

Microchip MPLAB XC8 Assembler V2.31 build 20201012212115 
                                                                                               Mon Aug 02 21:02:38 2021

Microchip MPLAB XC8 C Compiler v2.31 (Free license) build 20201012212115 Og1 
     1                           	processor	16F887
     2                           	pagewidth 120
     3                           	opt	flic
     4                           	psect	strings,global,class=STRING,delta=2,noexec
     5                           	psect	cinit,global,class=CODE,merge=1,delta=2
     6                           	psect	bssCOMMON,global,class=COMMON,space=1,delta=1,noexec
     7                           	psect	bssBANK0,global,class=BANK0,space=1,delta=1,noexec
     8                           	psect	bssBANK1,global,class=BANK1,space=1,delta=1,noexec
     9                           	psect	clrtext,global,class=CODE,delta=2
    10                           	psect	cstackBANK1,global,class=BANK1,space=1,delta=1,noexec
    11                           	psect	cstackCOMMON,global,class=COMMON,space=1,delta=1,noexec
    12                           	psect	cstackBANK0,global,class=BANK0,space=1,delta=1,noexec
    13                           	psect	maintext,global,class=CODE,split=1,delta=2
    14                           	psect	text1,local,class=CODE,merge=1,delta=2
    15                           	psect	text2,local,class=CODE,merge=1,delta=2
    16                           	psect	text3,local,class=CODE,merge=1,delta=2
    17                           	psect	text4,local,class=CODE,merge=1,delta=2
    18                           	psect	text5,local,class=CODE,merge=1,delta=2
    19                           	psect	text6,local,class=CODE,merge=1,delta=2
    20                           	psect	text7,local,class=CODE,merge=1,delta=2,group=2
    21                           	psect	text8,local,class=CODE,merge=1,delta=2,group=2
    22                           	psect	text9,local,class=CODE,merge=1,delta=2,group=2
    23                           	psect	text10,local,class=CODE,merge=1,delta=2,group=2
    24                           	psect	text11,local,class=CODE,merge=1,delta=2,group=2
    25                           	psect	text12,local,class=CODE,merge=1,delta=2,group=2
    26                           	psect	text13,local,class=CODE,merge=1,delta=2,group=2
    27                           	psect	text14,local,class=CODE,merge=1,delta=2,group=2
    28                           	psect	text15,local,class=CODE,merge=1,delta=2,group=2
    29                           	psect	text16,local,class=CODE,merge=1,delta=2,group=2
    30                           	psect	text17,local,class=CODE,merge=1,delta=2
    31                           	psect	text18,local,class=CODE,merge=1,delta=2,group=1
    32                           	psect	text19,local,class=CODE,merge=1,delta=2
    33                           	psect	config,global,abs,ovrld,class=CONFIG,space=4,delta=2,noexec
    34                           	dabs	1,0x7E,2
    35  0000                     
    36                           ; Version 2.20
    37                           ; Generated 12/02/2020 GMT
    38                           ; 
    39                           ; Copyright © 2020, Microchip Technology Inc. and its subsidiaries ("Microchip")
    40                           ; All rights reserved.
    41                           ; 
    42                           ; This software is developed by Microchip Technology Inc. and its subsidiaries ("Microch
      +                          ip").
    43                           ; 
    44                           ; Redistribution and use in source and binary forms, with or without modification, are
    45                           ; permitted provided that the following conditions are met:
    46                           ; 
    47                           ;     1. Redistributions of source code must retain the above copyright notice, this lis
      +                          t of
    48                           ;        conditions and the following disclaimer.
    49                           ; 
    50                           ;     2. Redistributions in binary form must reproduce the above copyright notice, this 
      +                          list
    51                           ;        of conditions and the following disclaimer in the documentation and/or other
    52                           ;        materials provided with the distribution.
    53                           ; 
    54                           ;     3. Microchip's name may not be used to endorse or promote products derived from th
      +                          is
    55                           ;        software without specific prior written permission.
    56                           ; 
    57                           ; THIS SOFTWARE IS PROVIDED BY MICROCHIP "AS IS" AND ANY EXPRESS OR IMPLIED WARRANTIES,
    58                           ; INCLUDING, BUT NOT LIMITED TO, THE IMPLIED WARRANTIES OF MERCHANTABILITY AND FITNESS F
      +                          OR
    59                           ; PURPOSE ARE DISCLAIMED.  IN NO EVENT SHALL MICROCHIP BE LIABLE FOR ANY DIRECT, INDIREC
      +                          T,
    60                           ; INCIDENTAL, SPECIAL, EXEMPLARY, OR CONSEQUENTIAL DAMAGES (INCLUDING BUT NOT LIMITED TO
    61                           ; PROCUREMENT OF SUBSTITUTE GOODS OR SERVICES; LOSS OF USE, DATA OR PROFITS; OR BUSINESS
    62                           ; INTERRUPTION) HOWSOEVER CAUSED AND ON ANY THEORY OF LIABILITY, WHETHER IN CONTRACT, ST
      +                          RICT
    63                           ; LIABILITY, OR TORT (INCLUDING NEGLIGENCE OR OTHERWISE) ARISING IN ANY WAY OUT OF THE U
      +                          SE OF
    64                           ; THIS SOFTWARE, EVEN IF ADVISED OF THE POSSIBILITY OF SUCH DAMAGE.
    65                           ; 
    66                           ; 
    67                           ; Code-generator required, PIC16F887 Definitions
    68                           ; 
    69                           ; SFR Addresses
    70  0000                     	;# 
    71  0001                     	;# 
    72  0002                     	;# 
    73  0003                     	;# 
    74  0004                     	;# 
    75  0005                     	;# 
    76  0006                     	;# 
    77  0007                     	;# 
    78  0008                     	;# 
    79  0009                     	;# 
    80  000A                     	;# 
    81  000B                     	;# 
    82  000C                     	;# 
    83  000D                     	;# 
    84  000E                     	;# 
    85  000E                     	;# 
    86  000F                     	;# 
    87  0010                     	;# 
    88  0011                     	;# 
    89  0012                     	;# 
    90  0013                     	;# 
    91  0014                     	;# 
    92  0015                     	;# 
    93  0015                     	;# 
    94  0016                     	;# 
    95  0017                     	;# 
    96  0018                     	;# 
    97  0019                     	;# 
    98  001A                     	;# 
    99  001B                     	;# 
   100  001B                     	;# 
   101  001C                     	;# 
   102  001D                     	;# 
   103  001E                     	;# 
   104  001F                     	;# 
   105  0081                     	;# 
   106  0085                     	;# 
   107  0086                     	;# 
   108  0087                     	;# 
   109  0088                     	;# 
   110  0089                     	;# 
   111  008C                     	;# 
   112  008D                     	;# 
   113  008E                     	;# 
   114  008F                     	;# 
   115  0090                     	;# 
   116  0091                     	;# 
   117  0092                     	;# 
   118  0093                     	;# 
   119  0093                     	;# 
   120  0093                     	;# 
   121  0094                     	;# 
   122  0095                     	;# 
   123  0096                     	;# 
   124  0097                     	;# 
   125  0098                     	;# 
   126  0099                     	;# 
   127  009A                     	;# 
   128  009B                     	;# 
   129  009C                     	;# 
   130  009D                     	;# 
   131  009E                     	;# 
   132  009F                     	;# 
   133  0105                     	;# 
   134  0107                     	;# 
   135  0108                     	;# 
   136  0109                     	;# 
   137  010C                     	;# 
   138  010C                     	;# 
   139  010D                     	;# 
   140  010E                     	;# 
   141  010F                     	;# 
   142  0185                     	;# 
   143  0187                     	;# 
   144  0188                     	;# 
   145  0189                     	;# 
   146  018C                     	;# 
   147  018D                     	;# 
   148  0000                     	;# 
   149  0001                     	;# 
   150  0002                     	;# 
   151  0003                     	;# 
   152  0004                     	;# 
   153  0005                     	;# 
   154  0006                     	;# 
   155  0007                     	;# 
   156  0008                     	;# 
   157  0009                     	;# 
   158  000A                     	;# 
   159  000B                     	;# 
   160  000C                     	;# 
   161  000D                     	;# 
   162  000E                     	;# 
   163  000E                     	;# 
   164  000F                     	;# 
   165  0010                     	;# 
   166  0011                     	;# 
   167  0012                     	;# 
   168  0013                     	;# 
   169  0014                     	;# 
   170  0015                     	;# 
   171  0015                     	;# 
   172  0016                     	;# 
   173  0017                     	;# 
   174  0018                     	;# 
   175  0019                     	;# 
   176  001A                     	;# 
   177  001B                     	;# 
   178  001B                     	;# 
   179  001C                     	;# 
   180  001D                     	;# 
   181  001E                     	;# 
   182  001F                     	;# 
   183  0081                     	;# 
   184  0085                     	;# 
   185  0086                     	;# 
   186  0087                     	;# 
   187  0088                     	;# 
   188  0089                     	;# 
   189  008C                     	;# 
   190  008D                     	;# 
   191  008E                     	;# 
   192  008F                     	;# 
   193  0090                     	;# 
   194  0091                     	;# 
   195  0092                     	;# 
   196  0093                     	;# 
   197  0093                     	;# 
   198  0093                     	;# 
   199  0094                     	;# 
   200  0095                     	;# 
   201  0096                     	;# 
   202  0097                     	;# 
   203  0098                     	;# 
   204  0099                     	;# 
   205  009A                     	;# 
   206  009B                     	;# 
   207  009C                     	;# 
   208  009D                     	;# 
   209  009E                     	;# 
   210  009F                     	;# 
   211  0105                     	;# 
   212  0107                     	;# 
   213  0108                     	;# 
   214  0109                     	;# 
   215  010C                     	;# 
   216  010C                     	;# 
   217  010D                     	;# 
   218  010E                     	;# 
   219  010F                     	;# 
   220  0185                     	;# 
   221  0187                     	;# 
   222  0188                     	;# 
   223  0189                     	;# 
   224  018C                     	;# 
   225  018D                     	;# 
   226  0000                     	;# 
   227  0001                     	;# 
   228  0002                     	;# 
   229  0003                     	;# 
   230  0004                     	;# 
   231  0005                     	;# 
   232  0006                     	;# 
   233  0007                     	;# 
   234  0008                     	;# 
   235  0009                     	;# 
   236  000A                     	;# 
   237  000B                     	;# 
   238  000C                     	;# 
   239  000D                     	;# 
   240  000E                     	;# 
   241  000E                     	;# 
   242  000F                     	;# 
   243  0010                     	;# 
   244  0011                     	;# 
   245  0012                     	;# 
   246  0013                     	;# 
   247  0014                     	;# 
   248  0015                     	;# 
   249  0015                     	;# 
   250  0016                     	;# 
   251  0017                     	;# 
   252  0018                     	;# 
   253  0019                     	;# 
   254  001A                     	;# 
   255  001B                     	;# 
   256  001B                     	;# 
   257  001C                     	;# 
   258  001D                     	;# 
   259  001E                     	;# 
   260  001F                     	;# 
   261  0081                     	;# 
   262  0085                     	;# 
   263  0086                     	;# 
   264  0087                     	;# 
   265  0088                     	;# 
   266  0089                     	;# 
   267  008C                     	;# 
   268  008D                     	;# 
   269  008E                     	;# 
   270  008F                     	;# 
   271  0090                     	;# 
   272  0091                     	;# 
   273  0092                     	;# 
   274  0093                     	;# 
   275  0093                     	;# 
   276  0093                     	;# 
   277  0094                     	;# 
   278  0095                     	;# 
   279  0096                     	;# 
   280  0097                     	;# 
   281  0098                     	;# 
   282  0099                     	;# 
   283  009A                     	;# 
   284  009B                     	;# 
   285  009C                     	;# 
   286  009D                     	;# 
   287  009E                     	;# 
   288  009F                     	;# 
   289  0105                     	;# 
   290  0107                     	;# 
   291  0108                     	;# 
   292  0109                     	;# 
   293  010C                     	;# 
   294  010C                     	;# 
   295  010D                     	;# 
   296  010E                     	;# 
   297  010F                     	;# 
   298  0185                     	;# 
   299  0187                     	;# 
   300  0188                     	;# 
   301  0189                     	;# 
   302  018C                     	;# 
   303  018D                     	;# 
   304  0013                     _SSPBUF	set	19
   305  0014                     _SSPCON	set	20
   306  0019                     _TXREG	set	25
   307  0018                     _RCSTAbits	set	24
   308  0008                     _PORTD	set	8
   309  0006                     _PORTB	set	6
   310  0007                     _PORTCbits	set	7
   311  0064                     _TXIF	set	100
   312  0094                     _SSPSTATbits	set	148
   313  0094                     _SSPSTAT	set	148
   314  009A                     _SPBRGH	set	154
   315  0099                     _SPBRG	set	153
   316  0098                     _TXSTAbits	set	152
   317  008F                     _OSCCONbits	set	143
   318  0088                     _TRISD	set	136
   319  0086                     _TRISB	set	134
   320  0087                     _TRISCbits	set	135
   321  043B                     _TRISC3	set	1083
   322  043D                     _TRISC5	set	1085
   323  0187                     _BAUDCTLbits	set	391
   324  0189                     _ANSELH	set	393
   325  0188                     _ANSEL	set	392
   326                           
   327                           	psect	strings
   328  1000                     __pstrings:
   329  1000                     stringtab:
   330  1000                     __stringtab:
   331                           
   332                           ;	String table - string pointers are 1 byte each
   333  1000  1BFF               	btfsc	btemp+1,7
   334  1001  280A               	ljmp	stringcode
   335  1002  1383               	bcf	3,7
   336  1003  187F               	btfsc	btemp+1,0
   337  1004  1783               	bsf	3,7
   338  1005  0800               	movf	0,w
   339  1006  0A84               	incf	4,f
   340  1007  1903               	skipnz
   341  1008  0AFF               	incf	btemp+1,f
   342  1009  0008               	return
   343  100A                     stringcode:
   344  100A                     stringdir:
   345  100A  3010               	movlw	high stringdir
   346  100B  008A               	movwf	10
   347  100C  0804               	movf	4,w
   348  100D  0A84               	incf	4,f
   349  100E  0782               	addwf	2,f
   350  100F                     __stringbase:
   351  100F  3400               	retlw	0
   352  1010                     __end_of__stringtab:
   353  1010                     STR_2:
   354  1010  340D               	retlw	13
   355  1011  342D               	retlw	45	;'-'
   356  1012  342D               	retlw	45	;'-'
   357  1013  342D               	retlw	45	;'-'
   358  1014  342D               	retlw	45	;'-'
   359  1015  342D               	retlw	45	;'-'
   360  1016  342D               	retlw	45	;'-'
   361  1017  342D               	retlw	45	;'-'
   362  1018  342D               	retlw	45	;'-'
   363  1019  342D               	retlw	45	;'-'
   364  101A  342D               	retlw	45	;'-'
   365  101B  342D               	retlw	45	;'-'
   366  101C  342D               	retlw	45	;'-'
   367  101D  342D               	retlw	45	;'-'
   368  101E  342D               	retlw	45	;'-'
   369  101F  342D               	retlw	45	;'-'
   370  1020  340D               	retlw	13
   371  1021  3400               	retlw	0
   372  1022                     STR_1:
   373  1022  340D               	retlw	13
   374  1023  3453               	retlw	83	;'S'
   375  1024  3465               	retlw	101	;'e'
   376  1025  346E               	retlw	110	;'n'
   377  1026  3473               	retlw	115	;'s'
   378  1027  346F               	retlw	111	;'o'
   379  1028  3472               	retlw	114	;'r'
   380  1029  3420               	retlw	32	;' '
   381  102A  3431               	retlw	49	;'1'
   382  102B  343A               	retlw	58	;':'
   383  102C  3420               	retlw	32	;' '
   384  102D  340D               	retlw	13
   385  102E  3400               	retlw	0
   386  102F                     STR_3:
   387  102F  340D               	retlw	13
   388  1030  3453               	retlw	83	;'S'
   389  1031  3465               	retlw	101	;'e'
   390  1032  346E               	retlw	110	;'n'
   391  1033  3473               	retlw	115	;'s'
   392  1034  346F               	retlw	111	;'o'
   393  1035  3472               	retlw	114	;'r'
   394  1036  3420               	retlw	32	;' '
   395  1037  3432               	retlw	50	;'2'
   396  1038  343A               	retlw	58	;':'
   397  1039  3420               	retlw	32	;' '
   398  103A  340D               	retlw	13
   399  103B  3400               	retlw	0
   400  1010                     
   401                           	psect	cinit
   402  07EF                     start_initialization:	
   403                           ; #config settings
   404                           
   405  07EF                     __initialization:
   406                           
   407                           ; Clear objects allocated to COMMON
   408  07EF  01FD               	clrf	__pbssCOMMON& (0+127)
   409                           
   410                           ; Clear objects allocated to BANK0
   411  07F0  1283               	bcf	3,5	;RP0=0, select bank0
   412  07F1  1303               	bcf	3,6	;RP1=0, select bank0
   413  07F2  01EE               	clrf	__pbssBANK0& (0+127)
   414                           
   415                           ; Clear objects allocated to BANK1
   416  07F3  1383               	bcf	3,7	;select IRP bank0
   417  07F4  30A0               	movlw	low __pbssBANK1
   418  07F5  0084               	movwf	4
   419  07F6  30BC               	movlw	low (__pbssBANK1+28)
   420  07F7  120A  118A  2003  120A  118A  	fcall	clear_ram0
   421  07FC                     end_of_initialization:	
   422                           ;End of C runtime variable initialization code
   423                           
   424  07FC                     __end_of__initialization:
   425  07FC  0183               	clrf	3
   426  07FD  120A  158A  29F9   	ljmp	_main	;jump to C main() function
   427                           
   428                           	psect	bssCOMMON
   429  007D                     __pbssCOMMON:
   430  007D                     _adc1:
   431  007D                     	ds	1
   432                           
   433                           	psect	bssBANK0
   434  006E                     __pbssBANK0:
   435  006E                     _adc2:
   436  006E                     	ds	1
   437                           
   438                           	psect	bssBANK1
   439  00A0                     __pbssBANK1:
   440  00A0                     _conv2:
   441  00A0                     	ds	4
   442  00A4                     _conv1:
   443  00A4                     	ds	4
   444  00A8                     _sensor2:
   445  00A8                     	ds	10
   446  00B2                     _sensor1:
   447  00B2                     	ds	10
   448                           
   449                           	psect	clrtext
   450  0003                     clear_ram0:	
   451                           ;	Called with FSR containing the base address, and
   452                           ;	W with the last address+1
   453                           
   454  0003  0064               	clrwdt	;clear the watchdog before getting into this loop
   455  0004                     clrloop0:
   456  0004  0180               	clrf	0	;clear RAM location pointed to by FSR
   457  0005  0A84               	incf	4,f	;increment pointer
   458  0006  0604               	xorwf	4,w	;XOR with final address
   459  0007  1903               	btfsc	3,2	;have we reached the end yet?
   460  0008  3400               	retlw	0	;all done for this memory range, return
   461  0009  0604               	xorwf	4,w	;XOR again to restore value
   462  000A  2804               	goto	clrloop0	;do the next byte
   463                           
   464                           	psect	cstackBANK1
   465  00BC                     __pcstackBANK1:
   466  00BC                     convert@temp:
   467                           
   468                           ; 2 bytes @ 0x0
   469  00BC                     	ds	2
   470  00BE                     convert@j:
   471                           
   472                           ; 2 bytes @ 0x2
   473  00BE                     	ds	2
   474  00C0                     convert@data:
   475                           
   476                           ; 1 bytes @ 0x4
   477  00C0                     	ds	1
   478  00C1                     convert@x:
   479                           
   480                           ; 4 bytes @ 0x5
   481  00C1                     	ds	4
   482  00C5                     convert@i:
   483                           
   484                           ; 2 bytes @ 0x9
   485  00C5                     	ds	2
   486  00C7                     convert@digits:
   487                           
   488                           ; 2 bytes @ 0xB
   489  00C7                     	ds	2
   490  00C9                     convert@mu:
   491                           
   492                           ; 2 bytes @ 0xD
   493  00C9                     	ds	2
   494  00CB                     ??_main:
   495                           
   496                           ; 1 bytes @ 0xF
   497  00CB                     	ds	4
   498                           
   499                           	psect	cstackCOMMON
   500  0070                     __pcstackCOMMON:
   501  0070                     ?___flge:
   502  0070                     ?_setup:	
   503                           ; 1 bit 
   504                           
   505  0070                     ?_spiWrite:	
   506                           ; 1 bytes @ 0x0
   507                           
   508  0070                     ??_spiWrite:	
   509                           ; 1 bytes @ 0x0
   510                           
   511  0070                     ?_spiRead:	
   512                           ; 1 bytes @ 0x0
   513                           
   514  0070                     ??_spiRead:	
   515                           ; 1 bytes @ 0x0
   516                           
   517  0070                     ?_Eusart:	
   518                           ; 1 bytes @ 0x0
   519                           
   520  0070                     ?_spiInit:	
   521                           ; 1 bytes @ 0x0
   522                           
   523  0070                     ?_main:	
   524                           ; 1 bytes @ 0x0
   525                           
   526  0070                     ?_putch:	
   527                           ; 1 bytes @ 0x0
   528                           
   529  0070                     ??_putch:	
   530                           ; 1 bytes @ 0x0
   531                           
   532  0070                     ?_spiReceiveWait:	
   533                           ; 1 bytes @ 0x0
   534                           
   535  0070                     ??_spiReceiveWait:	
   536                           ; 1 bytes @ 0x0
   537                           
   538  0070                     ?__Umul8_16:	
   539                           ; 1 bytes @ 0x0
   540                           
   541  0070                     ?___awdiv:	
   542                           ; 2 bytes @ 0x0
   543                           
   544  0070                     ?___fltol:	
   545                           ; 2 bytes @ 0x0
   546                           
   547  0070                     ?___fladd:	
   548                           ; 4 bytes @ 0x0
   549                           
   550  0070                     putch@data:	
   551                           ; 4 bytes @ 0x0
   552                           
   553  0070                     spiInit@sDataSample:	
   554                           ; 1 bytes @ 0x0
   555                           
   556  0070                     spiWrite@dat:	
   557                           ; 1 bytes @ 0x0
   558                           
   559  0070                     __Umul8_16@multiplicand:	
   560                           ; 1 bytes @ 0x0
   561                           
   562  0070                     ___awdiv@divisor:	
   563                           ; 1 bytes @ 0x0
   564                           
   565  0070                     ___flge@ff1:	
   566                           ; 2 bytes @ 0x0
   567                           
   568  0070                     ___fltol@f1:	
   569                           ; 4 bytes @ 0x0
   570                           
   571  0070                     ___fladd@b:	
   572                           ; 4 bytes @ 0x0
   573                           
   574                           
   575                           ; 4 bytes @ 0x0
   576  0070                     	ds	1
   577  0071                     ?_printf:
   578  0071                     spiInit@sClockIdle:	
   579                           ; 2 bytes @ 0x1
   580                           
   581  0071                     printf@f:	
   582                           ; 1 bytes @ 0x1
   583                           
   584                           
   585                           ; 2 bytes @ 0x1
   586  0071                     	ds	1
   587  0072                     ??__Umul8_16:
   588  0072                     spiInit@sTransmitEdge:	
   589                           ; 1 bytes @ 0x2
   590                           
   591  0072                     ___awdiv@dividend:	
   592                           ; 1 bytes @ 0x2
   593                           
   594                           
   595                           ; 2 bytes @ 0x2
   596  0072                     	ds	1
   597  0073                     ??_spiInit:
   598  0073                     ??_printf:	
   599                           ; 1 bytes @ 0x3
   600                           
   601  0073                     spiInit@sType:	
   602                           ; 1 bytes @ 0x3
   603                           
   604                           
   605                           ; 1 bytes @ 0x3
   606  0073                     	ds	1
   607  0074                     ??_setup:
   608  0074                     ??___awdiv:	
   609                           ; 1 bytes @ 0x4
   610                           
   611  0074                     ??___fltol:	
   612                           ; 1 bytes @ 0x4
   613                           
   614  0074                     __Umul8_16@product:	
   615                           ; 1 bytes @ 0x4
   616                           
   617  0074                     ___flge@ff2:	
   618                           ; 2 bytes @ 0x4
   619                           
   620  0074                     ___fladd@a:	
   621                           ; 4 bytes @ 0x4
   622                           
   623                           
   624                           ; 4 bytes @ 0x4
   625  0074                     	ds	1
   626  0075                     ___awdiv@counter:
   627                           
   628                           ; 1 bytes @ 0x5
   629  0075                     	ds	1
   630  0076                     ___awdiv@sign:
   631  0076                     __Umul8_16@word_mpld:	
   632                           ; 1 bytes @ 0x6
   633                           
   634                           
   635                           ; 2 bytes @ 0x6
   636  0076                     	ds	1
   637  0077                     printf@ap:
   638  0077                     ___awdiv@quotient:	
   639                           ; 1 bytes @ 0x7
   640                           
   641                           
   642                           ; 2 bytes @ 0x7
   643  0077                     	ds	1
   644  0078                     ??___flge:
   645  0078                     ___fladd@signs:	
   646                           ; 1 bytes @ 0x8
   647                           
   648  0078                     __Umul8_16@multiplier:	
   649                           ; 1 bytes @ 0x8
   650                           
   651                           
   652                           ; 1 bytes @ 0x8
   653  0078                     	ds	1
   654  0079                     printf@c:
   655  0079                     ___fltol@sign1:	
   656                           ; 1 bytes @ 0x9
   657                           
   658  0079                     ___fladd@aexp:	
   659                           ; 1 bytes @ 0x9
   660                           
   661                           
   662                           ; 1 bytes @ 0x9
   663  0079                     	ds	1
   664  007A                     ??_Eusart:
   665  007A                     ___fltol@exp1:	
   666                           ; 1 bytes @ 0xA
   667                           
   668  007A                     ___fladd@bexp:	
   669                           ; 1 bytes @ 0xA
   670                           
   671                           
   672                           ; 1 bytes @ 0xA
   673  007A                     	ds	1
   674  007B                     ??___wmul:
   675  007B                     ___fladd@grs:	
   676                           ; 1 bytes @ 0xB
   677                           
   678  007B                     ___wmul@product:	
   679                           ; 1 bytes @ 0xB
   680                           
   681                           
   682                           ; 2 bytes @ 0xB
   683  007B                     	ds	2
   684  007D                     ??___flsub:
   685                           
   686                           	psect	cstackBANK0
   687  0020                     __pcstackBANK0:	
   688                           ; 1 bytes @ 0xD
   689                           
   690  0020                     ??___fladd:
   691  0020                     ?___wmul:	
   692                           ; 1 bytes @ 0x0
   693                           
   694  0020                     ___wmul@multiplier:	
   695                           ; 2 bytes @ 0x0
   696                           
   697                           
   698                           ; 2 bytes @ 0x0
   699  0020                     	ds	2
   700  0022                     ___wmul@multiplicand:
   701                           
   702                           ; 2 bytes @ 0x2
   703  0022                     	ds	2
   704  0024                     ?___xxtofl:
   705  0024                     ___xxtofl@val:	
   706                           ; 4 bytes @ 0x4
   707                           
   708                           
   709                           ; 4 bytes @ 0x4
   710  0024                     	ds	4
   711  0028                     ??___xxtofl:
   712                           
   713                           ; 1 bytes @ 0x8
   714  0028                     	ds	4
   715  002C                     ___xxtofl@sign:
   716                           
   717                           ; 1 bytes @ 0xC
   718  002C                     	ds	1
   719  002D                     ___xxtofl@exp:
   720                           
   721                           ; 1 bytes @ 0xD
   722  002D                     	ds	1
   723  002E                     ___xxtofl@arg:
   724                           
   725                           ; 4 bytes @ 0xE
   726  002E                     	ds	4
   727  0032                     ?___flsub:
   728  0032                     ?___fldiv:	
   729                           ; 4 bytes @ 0x12
   730                           
   731  0032                     ___flsub@a:	
   732                           ; 4 bytes @ 0x12
   733                           
   734  0032                     ___fldiv@a:	
   735                           ; 4 bytes @ 0x12
   736                           
   737                           
   738                           ; 4 bytes @ 0x12
   739  0032                     	ds	4
   740  0036                     ___flsub@b:
   741  0036                     ___fldiv@b:	
   742                           ; 4 bytes @ 0x16
   743                           
   744                           
   745                           ; 4 bytes @ 0x16
   746  0036                     	ds	4
   747  003A                     ??___fldiv:
   748                           
   749                           ; 1 bytes @ 0x1A
   750  003A                     	ds	5
   751  003F                     ___fldiv@rem:
   752                           
   753                           ; 4 bytes @ 0x1F
   754  003F                     	ds	4
   755  0043                     ___fldiv@sign:
   756                           
   757                           ; 1 bytes @ 0x23
   758  0043                     	ds	1
   759  0044                     ___fldiv@new_exp:
   760                           
   761                           ; 2 bytes @ 0x24
   762  0044                     	ds	2
   763  0046                     ___fldiv@grs:
   764                           
   765                           ; 4 bytes @ 0x26
   766  0046                     	ds	4
   767  004A                     ___fldiv@bexp:
   768                           
   769                           ; 1 bytes @ 0x2A
   770  004A                     	ds	1
   771  004B                     ___fldiv@aexp:
   772                           
   773                           ; 1 bytes @ 0x2B
   774  004B                     	ds	1
   775  004C                     ?___flmul:
   776  004C                     ___flmul@b:	
   777                           ; 4 bytes @ 0x2C
   778                           
   779                           
   780                           ; 4 bytes @ 0x2C
   781  004C                     	ds	4
   782  0050                     ___flmul@a:
   783                           
   784                           ; 4 bytes @ 0x30
   785  0050                     	ds	4
   786  0054                     ??___flmul:
   787                           
   788                           ; 1 bytes @ 0x34
   789  0054                     	ds	5
   790  0059                     ___flmul@sign:
   791                           
   792                           ; 1 bytes @ 0x39
   793  0059                     	ds	1
   794  005A                     ___flmul@grs:
   795                           
   796                           ; 4 bytes @ 0x3A
   797  005A                     	ds	4
   798  005E                     ___flmul@aexp:
   799                           
   800                           ; 1 bytes @ 0x3E
   801  005E                     	ds	1
   802  005F                     ___flmul@bexp:
   803                           
   804                           ; 1 bytes @ 0x3F
   805  005F                     	ds	1
   806  0060                     ___flmul@prod:
   807                           
   808                           ; 4 bytes @ 0x40
   809  0060                     	ds	4
   810  0064                     ___flmul@temp:
   811                           
   812                           ; 2 bytes @ 0x44
   813  0064                     	ds	2
   814  0066                     ?_convert:
   815  0066                     convert@a:	
   816                           ; 1 bytes @ 0x46
   817                           
   818                           
   819                           ; 4 bytes @ 0x46
   820  0066                     	ds	4
   821  006A                     convert@place:
   822                           
   823                           ; 2 bytes @ 0x4A
   824  006A                     	ds	2
   825  006C                     ??_convert:
   826                           
   827                           ; 1 bytes @ 0x4C
   828  006C                     	ds	2
   829                           
   830                           	psect	maintext
   831  09F9                     __pmaintext:	
   832 ;;
   833 ;;Main: autosize = 0, tempsize = 4, incstack = 0, save=0
   834 ;;
   835 ;; *************** function _main *****************
   836 ;; Defined at:
   837 ;;		line 69 in file "Lab03_Master.c"
   838 ;; Parameters:    Size  Location     Type
   839 ;;		None
   840 ;; Auto vars:     Size  Location     Type
   841 ;;		None
   842 ;; Return value:  Size  Location     Type
   843 ;;                  1    wreg      void 
   844 ;; Registers used:
   845 ;;		wreg, fsr0l, fsr0h, status,2, status,0, btemp+1, pclath, cstack
   846 ;; Tracked objects:
   847 ;;		On entry : B00/0
   848 ;;		On exit  : 0/0
   849 ;;		Unchanged: 0/0
   850 ;; Data sizes:     COMMON   BANK0   BANK1   BANK3   BANK2
   851 ;;      Params:         0       0       0       0       0
   852 ;;      Locals:         0       0       0       0       0
   853 ;;      Temps:          0       0       4       0       0
   854 ;;      Totals:         0       0       4       0       0
   855 ;;Total ram usage:        4 bytes
   856 ;; Hardware stack levels required when called:    3
   857 ;; This function calls:
   858 ;;		_Eusart
   859 ;;		___fldiv
   860 ;;		___flmul
   861 ;;		___xxtofl
   862 ;;		_convert
   863 ;;		_setup
   864 ;;		_spiRead
   865 ;;		_spiWrite
   866 ;; This function is called by:
   867 ;;		Startup code after reset
   868 ;; This function uses a non-reentrant model
   869 ;;
   870                           
   871                           
   872                           ;psect for function _main
   873  09F9                     _main:
   874  09F9                     l2556:	
   875                           ;incstack = 0
   876                           ; Regs used in _main: [wreg-fsr0h+status,2+status,0+btemp+1+pclath+cstack]
   877                           
   878                           
   879                           ;Lab03_Master.c: 70:     setup();
   880  09F9  160A  118A  2717  120A  158A  	fcall	_setup
   881  09FE                     l2558:
   882                           
   883                           ;Lab03_Master.c: 76:        PORTCbits.RC2 = 0;
   884  09FE  1283               	bcf	3,5	;RP0=0, select bank0
   885  09FF  1303               	bcf	3,6	;RP1=0, select bank0
   886  0A00  1107               	bcf	7,2	;volatile
   887  0A01                     l2560:
   888                           
   889                           ;Lab03_Master.c: 77:        _delay((unsigned long)((1)*(8000000/4000.0)));
   890  0A01  3003               	movlw	3
   891  0A02  1683               	bsf	3,5	;RP0=1, select bank1
   892  0A03  1303               	bcf	3,6	;RP1=0, select bank1
   893  0A04  00CC               	movwf	(??_main^(0+128)+1)
   894  0A05  3097               	movlw	151
   895  0A06  00CB               	movwf	??_main^(0+128)
   896  0A07                     u3497:
   897  0A07  0BCB               	decfsz	??_main^(0+128),f
   898  0A08  2A07               	goto	u3497
   899  0A09  0BCC               	decfsz	(??_main^(0+128)+1),f
   900  0A0A  2A07               	goto	u3497
   901  0A0B                     l2562:
   902                           
   903                           ;Lab03_Master.c: 79:        spiWrite(1);
   904  0A0B  3001               	movlw	1
   905  0A0C  160A  118A  2698  120A  158A  	fcall	_spiWrite
   906  0A11                     l2564:
   907                           
   908                           ;Lab03_Master.c: 80:        PORTB = spiRead();
   909  0A11  120A  158A  2002  120A  158A  	fcall	_spiRead
   910  0A16  1283               	bcf	3,5	;RP0=0, select bank0
   911  0A17  1303               	bcf	3,6	;RP1=0, select bank0
   912  0A18  0086               	movwf	6	;volatile
   913  0A19                     l2566:
   914                           
   915                           ;Lab03_Master.c: 81:        adc1 = PORTB;
   916  0A19  0806               	movf	6,w	;volatile
   917  0A1A  1683               	bsf	3,5	;RP0=1, select bank1
   918  0A1B  1303               	bcf	3,6	;RP1=0, select bank1
   919  0A1C  00CB               	movwf	??_main^(0+128)
   920  0A1D  084B               	movf	??_main^(0+128),w
   921  0A1E  00FD               	movwf	_adc1	;volatile
   922  0A1F                     l2568:
   923                           
   924                           ;Lab03_Master.c: 83:        _delay((unsigned long)((1)*(8000000/4000.0)));
   925  0A1F  3003               	movlw	3
   926  0A20  1683               	bsf	3,5	;RP0=1, select bank1
   927  0A21  1303               	bcf	3,6	;RP1=0, select bank1
   928  0A22  00CC               	movwf	(??_main^(0+128)+1)
   929  0A23  3097               	movlw	151
   930  0A24  00CB               	movwf	??_main^(0+128)
   931  0A25                     u3507:
   932  0A25  0BCB               	decfsz	??_main^(0+128),f
   933  0A26  2A25               	goto	u3507
   934  0A27  0BCC               	decfsz	(??_main^(0+128)+1),f
   935  0A28  2A25               	goto	u3507
   936  0A29                     l2570:
   937                           
   938                           ;Lab03_Master.c: 84:        PORTCbits.RC2 = 1;
   939  0A29  1283               	bcf	3,5	;RP0=0, select bank0
   940  0A2A  1303               	bcf	3,6	;RP1=0, select bank0
   941  0A2B  1507               	bsf	7,2	;volatile
   942  0A2C                     l2572:
   943                           
   944                           ;Lab03_Master.c: 86:        PORTCbits.RC2 = 0;
   945  0A2C  1107               	bcf	7,2	;volatile
   946  0A2D                     l2574:
   947                           
   948                           ;Lab03_Master.c: 87:        _delay((unsigned long)((1)*(8000000/4000.0)));
   949  0A2D  3003               	movlw	3
   950  0A2E  1683               	bsf	3,5	;RP0=1, select bank1
   951  0A2F  1303               	bcf	3,6	;RP1=0, select bank1
   952  0A30  00CC               	movwf	(??_main^(0+128)+1)
   953  0A31  3097               	movlw	151
   954  0A32  00CB               	movwf	??_main^(0+128)
   955  0A33                     u3517:
   956  0A33  0BCB               	decfsz	??_main^(0+128),f
   957  0A34  2A33               	goto	u3517
   958  0A35  0BCC               	decfsz	(??_main^(0+128)+1),f
   959  0A36  2A33               	goto	u3517
   960                           
   961                           ;Lab03_Master.c: 89:        spiWrite(2);
   962  0A37  3002               	movlw	2
   963  0A38  160A  118A  2698  120A  158A  	fcall	_spiWrite
   964                           
   965                           ;Lab03_Master.c: 90:        PORTD = spiRead();
   966  0A3D  120A  158A  2002  120A  158A  	fcall	_spiRead
   967  0A42  1283               	bcf	3,5	;RP0=0, select bank0
   968  0A43  1303               	bcf	3,6	;RP1=0, select bank0
   969  0A44  0088               	movwf	8	;volatile
   970  0A45                     l2576:
   971                           
   972                           ;Lab03_Master.c: 91:        adc2 = PORTD;
   973  0A45  0808               	movf	8,w	;volatile
   974  0A46  1683               	bsf	3,5	;RP0=1, select bank1
   975  0A47  1303               	bcf	3,6	;RP1=0, select bank1
   976  0A48  00CB               	movwf	??_main^(0+128)
   977  0A49  084B               	movf	??_main^(0+128),w
   978  0A4A  1283               	bcf	3,5	;RP0=0, select bank0
   979  0A4B  1303               	bcf	3,6	;RP1=0, select bank0
   980  0A4C  00EE               	movwf	_adc2	;volatile
   981  0A4D                     l2578:
   982                           
   983                           ;Lab03_Master.c: 93:        _delay((unsigned long)((1)*(8000000/4000.0)));
   984  0A4D  3003               	movlw	3
   985  0A4E  1683               	bsf	3,5	;RP0=1, select bank1
   986  0A4F  1303               	bcf	3,6	;RP1=0, select bank1
   987  0A50  00CC               	movwf	(??_main^(0+128)+1)
   988  0A51  3097               	movlw	151
   989  0A52  00CB               	movwf	??_main^(0+128)
   990  0A53                     u3527:
   991  0A53  0BCB               	decfsz	??_main^(0+128),f
   992  0A54  2A53               	goto	u3527
   993  0A55  0BCC               	decfsz	(??_main^(0+128)+1),f
   994  0A56  2A53               	goto	u3527
   995  0A57                     l2580:
   996                           
   997                           ;Lab03_Master.c: 94:        PORTCbits.RC2 = 1;
   998  0A57  1283               	bcf	3,5	;RP0=0, select bank0
   999  0A58  1303               	bcf	3,6	;RP1=0, select bank0
  1000  0A59  1507               	bsf	7,2	;volatile
  1001  0A5A                     l2582:
  1002                           
  1003                           ;Lab03_Master.c: 97:       conv1 = 0;
  1004  0A5A  3000               	movlw	0
  1005  0A5B  1683               	bsf	3,5	;RP0=1, select bank1
  1006  0A5C  1303               	bcf	3,6	;RP1=0, select bank1
  1007  0A5D  00A7               	movwf	(_conv1+3)^(0+128)
  1008  0A5E  3000               	movlw	0
  1009  0A5F  00A6               	movwf	(_conv1+2)^(0+128)
  1010  0A60  3000               	movlw	0
  1011  0A61  00A5               	movwf	(_conv1+1)^(0+128)
  1012  0A62  3000               	movlw	0
  1013  0A63  00A4               	movwf	_conv1^(0+128)
  1014  0A64                     l2584:
  1015                           
  1016                           ;Lab03_Master.c: 98:       conv2 = 0;
  1017  0A64  3000               	movlw	0
  1018  0A65  00A3               	movwf	(_conv2+3)^(0+128)
  1019  0A66  3000               	movlw	0
  1020  0A67  00A2               	movwf	(_conv2+2)^(0+128)
  1021  0A68  3000               	movlw	0
  1022  0A69  00A1               	movwf	(_conv2+1)^(0+128)
  1023  0A6A  3000               	movlw	0
  1024  0A6B  00A0               	movwf	_conv2^(0+128)
  1025  0A6C                     l2586:
  1026                           
  1027                           ;Lab03_Master.c: 100:       conv1 = (adc1 / (float) 255)*5;
  1028  0A6C  3040               	movlw	64
  1029  0A6D  1283               	bcf	3,5	;RP0=0, select bank0
  1030  0A6E  1303               	bcf	3,6	;RP1=0, select bank0
  1031  0A6F  00CF               	movwf	___flmul@b+3
  1032  0A70  30A0               	movlw	160
  1033  0A71  00CE               	movwf	___flmul@b+2
  1034  0A72  3000               	movlw	0
  1035  0A73  00CD               	movwf	___flmul@b+1
  1036  0A74  3000               	movlw	0
  1037  0A75  00CC               	movwf	___flmul@b
  1038  0A76  3043               	movlw	67
  1039  0A77  00B5               	movwf	___fldiv@a+3
  1040  0A78  307F               	movlw	127
  1041  0A79  00B4               	movwf	___fldiv@a+2
  1042  0A7A  3000               	movlw	0
  1043  0A7B  00B3               	movwf	___fldiv@a+1
  1044  0A7C  3000               	movlw	0
  1045  0A7D  00B2               	movwf	___fldiv@a
  1046  0A7E  087D               	movf	_adc1,w	;volatile
  1047  0A7F  1683               	bsf	3,5	;RP0=1, select bank1
  1048  0A80  1303               	bcf	3,6	;RP1=0, select bank1
  1049  0A81  00CB               	movwf	??_main^(0+128)
  1050  0A82  01CC               	clrf	(??_main^(0+128)+1)
  1051  0A83  01CD               	clrf	(??_main^(0+128)+2)
  1052  0A84  01CE               	clrf	(??_main^(0+128)+3)
  1053  0A85  084E               	movf	(??_main+3)^(0+128),w
  1054  0A86  1283               	bcf	3,5	;RP0=0, select bank0
  1055  0A87  1303               	bcf	3,6	;RP1=0, select bank0
  1056  0A88  00A7               	movwf	___xxtofl@val+3
  1057  0A89  1683               	bsf	3,5	;RP0=1, select bank1
  1058  0A8A  1303               	bcf	3,6	;RP1=0, select bank1
  1059  0A8B  084D               	movf	(??_main+2)^(0+128),w
  1060  0A8C  1283               	bcf	3,5	;RP0=0, select bank0
  1061  0A8D  1303               	bcf	3,6	;RP1=0, select bank0
  1062  0A8E  00A6               	movwf	___xxtofl@val+2
  1063  0A8F  1683               	bsf	3,5	;RP0=1, select bank1
  1064  0A90  1303               	bcf	3,6	;RP1=0, select bank1
  1065  0A91  084C               	movf	(??_main+1)^(0+128),w
  1066  0A92  1283               	bcf	3,5	;RP0=0, select bank0
  1067  0A93  1303               	bcf	3,6	;RP1=0, select bank0
  1068  0A94  00A5               	movwf	___xxtofl@val+1
  1069  0A95  1683               	bsf	3,5	;RP0=1, select bank1
  1070  0A96  1303               	bcf	3,6	;RP1=0, select bank1
  1071  0A97  084B               	movf	??_main^(0+128),w
  1072  0A98  1283               	bcf	3,5	;RP0=0, select bank0
  1073  0A99  1303               	bcf	3,6	;RP1=0, select bank0
  1074  0A9A  00A4               	movwf	___xxtofl@val
  1075  0A9B  3001               	movlw	1
  1076  0A9C  120A  158A  213D  120A  158A  	fcall	___xxtofl
  1077  0AA1  1283               	bcf	3,5	;RP0=0, select bank0
  1078  0AA2  1303               	bcf	3,6	;RP1=0, select bank0
  1079  0AA3  0827               	movf	?___xxtofl+3,w
  1080  0AA4  00B9               	movwf	___fldiv@b+3
  1081  0AA5  0826               	movf	?___xxtofl+2,w
  1082  0AA6  00B8               	movwf	___fldiv@b+2
  1083  0AA7  0825               	movf	?___xxtofl+1,w
  1084  0AA8  00B7               	movwf	___fldiv@b+1
  1085  0AA9  0824               	movf	?___xxtofl,w
  1086  0AAA  00B6               	movwf	___fldiv@b
  1087  0AAB  120A  158A  238B  120A  158A  	fcall	___fldiv
  1088  0AB0  1283               	bcf	3,5	;RP0=0, select bank0
  1089  0AB1  1303               	bcf	3,6	;RP1=0, select bank0
  1090  0AB2  0835               	movf	?___fldiv+3,w
  1091  0AB3  00D3               	movwf	___flmul@a+3
  1092  0AB4  0834               	movf	?___fldiv+2,w
  1093  0AB5  00D2               	movwf	___flmul@a+2
  1094  0AB6  0833               	movf	?___fldiv+1,w
  1095  0AB7  00D1               	movwf	___flmul@a+1
  1096  0AB8  0832               	movf	?___fldiv,w
  1097  0AB9  00D0               	movwf	___flmul@a
  1098  0ABA  120A  118A  209A  120A  158A  	fcall	___flmul
  1099  0ABF  1283               	bcf	3,5	;RP0=0, select bank0
  1100  0AC0  1303               	bcf	3,6	;RP1=0, select bank0
  1101  0AC1  084F               	movf	?___flmul+3,w
  1102  0AC2  1683               	bsf	3,5	;RP0=1, select bank1
  1103  0AC3  1303               	bcf	3,6	;RP1=0, select bank1
  1104  0AC4  00A7               	movwf	(_conv1+3)^(0+128)
  1105  0AC5  1283               	bcf	3,5	;RP0=0, select bank0
  1106  0AC6  1303               	bcf	3,6	;RP1=0, select bank0
  1107  0AC7  084E               	movf	?___flmul+2,w
  1108  0AC8  1683               	bsf	3,5	;RP0=1, select bank1
  1109  0AC9  1303               	bcf	3,6	;RP1=0, select bank1
  1110  0ACA  00A6               	movwf	(_conv1+2)^(0+128)
  1111  0ACB  1283               	bcf	3,5	;RP0=0, select bank0
  1112  0ACC  1303               	bcf	3,6	;RP1=0, select bank0
  1113  0ACD  084D               	movf	?___flmul+1,w
  1114  0ACE  1683               	bsf	3,5	;RP0=1, select bank1
  1115  0ACF  1303               	bcf	3,6	;RP1=0, select bank1
  1116  0AD0  00A5               	movwf	(_conv1+1)^(0+128)
  1117  0AD1  1283               	bcf	3,5	;RP0=0, select bank0
  1118  0AD2  1303               	bcf	3,6	;RP1=0, select bank0
  1119  0AD3  084C               	movf	?___flmul,w
  1120  0AD4  1683               	bsf	3,5	;RP0=1, select bank1
  1121  0AD5  1303               	bcf	3,6	;RP1=0, select bank1
  1122  0AD6  00A4               	movwf	_conv1^(0+128)
  1123  0AD7                     l2588:
  1124                           
  1125                           ;Lab03_Master.c: 102:       convert(sensor1, conv1, 2);
  1126  0AD7  0827               	movf	(_conv1+3)^(0+128),w
  1127  0AD8  1283               	bcf	3,5	;RP0=0, select bank0
  1128  0AD9  1303               	bcf	3,6	;RP1=0, select bank0
  1129  0ADA  00E9               	movwf	convert@a+3
  1130  0ADB  1683               	bsf	3,5	;RP0=1, select bank1
  1131  0ADC  1303               	bcf	3,6	;RP1=0, select bank1
  1132  0ADD  0826               	movf	(_conv1+2)^(0+128),w
  1133  0ADE  1283               	bcf	3,5	;RP0=0, select bank0
  1134  0ADF  1303               	bcf	3,6	;RP1=0, select bank0
  1135  0AE0  00E8               	movwf	convert@a+2
  1136  0AE1  1683               	bsf	3,5	;RP0=1, select bank1
  1137  0AE2  1303               	bcf	3,6	;RP1=0, select bank1
  1138  0AE3  0825               	movf	(_conv1+1)^(0+128),w
  1139  0AE4  1283               	bcf	3,5	;RP0=0, select bank0
  1140  0AE5  1303               	bcf	3,6	;RP1=0, select bank0
  1141  0AE6  00E7               	movwf	convert@a+1
  1142  0AE7  1683               	bsf	3,5	;RP0=1, select bank1
  1143  0AE8  1303               	bcf	3,6	;RP1=0, select bank1
  1144  0AE9  0824               	movf	_conv1^(0+128),w
  1145  0AEA  1283               	bcf	3,5	;RP0=0, select bank0
  1146  0AEB  1303               	bcf	3,6	;RP1=0, select bank0
  1147  0AEC  00E6               	movwf	convert@a
  1148  0AED  3002               	movlw	2
  1149  0AEE  00EA               	movwf	convert@place
  1150  0AEF  3000               	movlw	0
  1151  0AF0  00EB               	movwf	convert@place+1
  1152  0AF1  30B2               	movlw	(low (_sensor1| 0))& (0+255)
  1153  0AF2  120A  118A  23FB  120A  158A  	fcall	_convert
  1154  0AF7                     l2590:
  1155                           
  1156                           ;Lab03_Master.c: 104:       conv2 = (adc2 / (float) 255)*5;
  1157  0AF7  3040               	movlw	64
  1158  0AF8  1283               	bcf	3,5	;RP0=0, select bank0
  1159  0AF9  1303               	bcf	3,6	;RP1=0, select bank0
  1160  0AFA  00CF               	movwf	___flmul@b+3
  1161  0AFB  30A0               	movlw	160
  1162  0AFC  00CE               	movwf	___flmul@b+2
  1163  0AFD  3000               	movlw	0
  1164  0AFE  00CD               	movwf	___flmul@b+1
  1165  0AFF  3000               	movlw	0
  1166  0B00  00CC               	movwf	___flmul@b
  1167  0B01  3043               	movlw	67
  1168  0B02  00B5               	movwf	___fldiv@a+3
  1169  0B03  307F               	movlw	127
  1170  0B04  00B4               	movwf	___fldiv@a+2
  1171  0B05  3000               	movlw	0
  1172  0B06  00B3               	movwf	___fldiv@a+1
  1173  0B07  3000               	movlw	0
  1174  0B08  00B2               	movwf	___fldiv@a
  1175  0B09  086E               	movf	_adc2,w	;volatile
  1176  0B0A  1683               	bsf	3,5	;RP0=1, select bank1
  1177  0B0B  1303               	bcf	3,6	;RP1=0, select bank1
  1178  0B0C  00CB               	movwf	??_main^(0+128)
  1179  0B0D  01CC               	clrf	(??_main^(0+128)+1)
  1180  0B0E  01CD               	clrf	(??_main^(0+128)+2)
  1181  0B0F  01CE               	clrf	(??_main^(0+128)+3)
  1182  0B10  084E               	movf	(??_main+3)^(0+128),w
  1183  0B11  1283               	bcf	3,5	;RP0=0, select bank0
  1184  0B12  1303               	bcf	3,6	;RP1=0, select bank0
  1185  0B13  00A7               	movwf	___xxtofl@val+3
  1186  0B14  1683               	bsf	3,5	;RP0=1, select bank1
  1187  0B15  1303               	bcf	3,6	;RP1=0, select bank1
  1188  0B16  084D               	movf	(??_main+2)^(0+128),w
  1189  0B17  1283               	bcf	3,5	;RP0=0, select bank0
  1190  0B18  1303               	bcf	3,6	;RP1=0, select bank0
  1191  0B19  00A6               	movwf	___xxtofl@val+2
  1192  0B1A  1683               	bsf	3,5	;RP0=1, select bank1
  1193  0B1B  1303               	bcf	3,6	;RP1=0, select bank1
  1194  0B1C  084C               	movf	(??_main+1)^(0+128),w
  1195  0B1D  1283               	bcf	3,5	;RP0=0, select bank0
  1196  0B1E  1303               	bcf	3,6	;RP1=0, select bank0
  1197  0B1F  00A5               	movwf	___xxtofl@val+1
  1198  0B20  1683               	bsf	3,5	;RP0=1, select bank1
  1199  0B21  1303               	bcf	3,6	;RP1=0, select bank1
  1200  0B22  084B               	movf	??_main^(0+128),w
  1201  0B23  1283               	bcf	3,5	;RP0=0, select bank0
  1202  0B24  1303               	bcf	3,6	;RP1=0, select bank0
  1203  0B25  00A4               	movwf	___xxtofl@val
  1204  0B26  3001               	movlw	1
  1205  0B27  120A  158A  213D  120A  158A  	fcall	___xxtofl
  1206  0B2C  1283               	bcf	3,5	;RP0=0, select bank0
  1207  0B2D  1303               	bcf	3,6	;RP1=0, select bank0
  1208  0B2E  0827               	movf	?___xxtofl+3,w
  1209  0B2F  00B9               	movwf	___fldiv@b+3
  1210  0B30  0826               	movf	?___xxtofl+2,w
  1211  0B31  00B8               	movwf	___fldiv@b+2
  1212  0B32  0825               	movf	?___xxtofl+1,w
  1213  0B33  00B7               	movwf	___fldiv@b+1
  1214  0B34  0824               	movf	?___xxtofl,w
  1215  0B35  00B6               	movwf	___fldiv@b
  1216  0B36  120A  158A  238B  120A  158A  	fcall	___fldiv
  1217  0B3B  1283               	bcf	3,5	;RP0=0, select bank0
  1218  0B3C  1303               	bcf	3,6	;RP1=0, select bank0
  1219  0B3D  0835               	movf	?___fldiv+3,w
  1220  0B3E  00D3               	movwf	___flmul@a+3
  1221  0B3F  0834               	movf	?___fldiv+2,w
  1222  0B40  00D2               	movwf	___flmul@a+2
  1223  0B41  0833               	movf	?___fldiv+1,w
  1224  0B42  00D1               	movwf	___flmul@a+1
  1225  0B43  0832               	movf	?___fldiv,w
  1226  0B44  00D0               	movwf	___flmul@a
  1227  0B45  120A  118A  209A  120A  158A  	fcall	___flmul
  1228  0B4A  1283               	bcf	3,5	;RP0=0, select bank0
  1229  0B4B  1303               	bcf	3,6	;RP1=0, select bank0
  1230  0B4C  084F               	movf	?___flmul+3,w
  1231  0B4D  1683               	bsf	3,5	;RP0=1, select bank1
  1232  0B4E  1303               	bcf	3,6	;RP1=0, select bank1
  1233  0B4F  00A3               	movwf	(_conv2+3)^(0+128)
  1234  0B50  1283               	bcf	3,5	;RP0=0, select bank0
  1235  0B51  1303               	bcf	3,6	;RP1=0, select bank0
  1236  0B52  084E               	movf	?___flmul+2,w
  1237  0B53  1683               	bsf	3,5	;RP0=1, select bank1
  1238  0B54  1303               	bcf	3,6	;RP1=0, select bank1
  1239  0B55  00A2               	movwf	(_conv2+2)^(0+128)
  1240  0B56  1283               	bcf	3,5	;RP0=0, select bank0
  1241  0B57  1303               	bcf	3,6	;RP1=0, select bank0
  1242  0B58  084D               	movf	?___flmul+1,w
  1243  0B59  1683               	bsf	3,5	;RP0=1, select bank1
  1244  0B5A  1303               	bcf	3,6	;RP1=0, select bank1
  1245  0B5B  00A1               	movwf	(_conv2+1)^(0+128)
  1246  0B5C  1283               	bcf	3,5	;RP0=0, select bank0
  1247  0B5D  1303               	bcf	3,6	;RP1=0, select bank0
  1248  0B5E  084C               	movf	?___flmul,w
  1249  0B5F  1683               	bsf	3,5	;RP0=1, select bank1
  1250  0B60  1303               	bcf	3,6	;RP1=0, select bank1
  1251  0B61  00A0               	movwf	_conv2^(0+128)
  1252  0B62                     l2592:
  1253                           
  1254                           ;Lab03_Master.c: 105:       convert(sensor2, conv2, 2);
  1255  0B62  0823               	movf	(_conv2+3)^(0+128),w
  1256  0B63  1283               	bcf	3,5	;RP0=0, select bank0
  1257  0B64  1303               	bcf	3,6	;RP1=0, select bank0
  1258  0B65  00E9               	movwf	convert@a+3
  1259  0B66  1683               	bsf	3,5	;RP0=1, select bank1
  1260  0B67  1303               	bcf	3,6	;RP1=0, select bank1
  1261  0B68  0822               	movf	(_conv2+2)^(0+128),w
  1262  0B69  1283               	bcf	3,5	;RP0=0, select bank0
  1263  0B6A  1303               	bcf	3,6	;RP1=0, select bank0
  1264  0B6B  00E8               	movwf	convert@a+2
  1265  0B6C  1683               	bsf	3,5	;RP0=1, select bank1
  1266  0B6D  1303               	bcf	3,6	;RP1=0, select bank1
  1267  0B6E  0821               	movf	(_conv2+1)^(0+128),w
  1268  0B6F  1283               	bcf	3,5	;RP0=0, select bank0
  1269  0B70  1303               	bcf	3,6	;RP1=0, select bank0
  1270  0B71  00E7               	movwf	convert@a+1
  1271  0B72  1683               	bsf	3,5	;RP0=1, select bank1
  1272  0B73  1303               	bcf	3,6	;RP1=0, select bank1
  1273  0B74  0820               	movf	_conv2^(0+128),w
  1274  0B75  1283               	bcf	3,5	;RP0=0, select bank0
  1275  0B76  1303               	bcf	3,6	;RP1=0, select bank0
  1276  0B77  00E6               	movwf	convert@a
  1277  0B78  3002               	movlw	2
  1278  0B79  00EA               	movwf	convert@place
  1279  0B7A  3000               	movlw	0
  1280  0B7B  00EB               	movwf	convert@place+1
  1281  0B7C  30A8               	movlw	(low (_sensor2| 0))& (0+255)
  1282  0B7D  120A  118A  23FB  120A  158A  	fcall	_convert
  1283  0B82                     l2594:
  1284                           
  1285                           ;Lab03_Master.c: 107:        Eusart();
  1286  0B82  120A  118A  2015  120A  158A  	fcall	_Eusart
  1287  0B87  29FE               	goto	l2558
  1288  0B88  120A  118A  2800   	ljmp	start
  1289  0B8B                     __end_of_main:
  1290                           
  1291                           	psect	text1
  1292  1698                     __ptext1:	
  1293 ;; *************** function _spiWrite *****************
  1294 ;; Defined at:
  1295 ;;		line 34 in file "Librerias.c"
  1296 ;; Parameters:    Size  Location     Type
  1297 ;;  dat             1    wreg     unsigned char 
  1298 ;; Auto vars:     Size  Location     Type
  1299 ;;  dat             1    0[COMMON] unsigned char 
  1300 ;; Return value:  Size  Location     Type
  1301 ;;                  1    wreg      void 
  1302 ;; Registers used:
  1303 ;;		wreg
  1304 ;; Tracked objects:
  1305 ;;		On entry : 0/0
  1306 ;;		On exit  : 0/0
  1307 ;;		Unchanged: 0/0
  1308 ;; Data sizes:     COMMON   BANK0   BANK1   BANK3   BANK2
  1309 ;;      Params:         0       0       0       0       0
  1310 ;;      Locals:         1       0       0       0       0
  1311 ;;      Temps:          0       0       0       0       0
  1312 ;;      Totals:         1       0       0       0       0
  1313 ;;Total ram usage:        1 bytes
  1314 ;; Hardware stack levels used:    1
  1315 ;; This function calls:
  1316 ;;		Nothing
  1317 ;; This function is called by:
  1318 ;;		_main
  1319 ;; This function uses a non-reentrant model
  1320 ;;
  1321                           
  1322                           
  1323                           ;psect for function _spiWrite
  1324  1698                     _spiWrite:
  1325                           
  1326                           ;incstack = 0
  1327                           ; Regs used in _spiWrite: [wreg]
  1328                           ;spiWrite@dat stored from wreg
  1329  1698  00F0               	movwf	spiWrite@dat
  1330  1699                     l2426:
  1331                           
  1332                           ;Librerias.c: 34: void spiWrite(char dat);Librerias.c: 35: {;Librerias.c: 36:     SSPBUF
      +                           = dat;
  1333  1699  0870               	movf	spiWrite@dat,w
  1334  169A  1283               	bcf	3,5	;RP0=0, select bank0
  1335  169B  1303               	bcf	3,6	;RP1=0, select bank0
  1336  169C  0093               	movwf	19	;volatile
  1337  169D                     l106:
  1338  169D  0008               	return
  1339  169E                     __end_of_spiWrite:
  1340                           
  1341                           	psect	text2
  1342  0802                     __ptext2:	
  1343 ;; *************** function _spiRead *****************
  1344 ;; Defined at:
  1345 ;;		line 47 in file "Librerias.c"
  1346 ;; Parameters:    Size  Location     Type
  1347 ;;		None
  1348 ;; Auto vars:     Size  Location     Type
  1349 ;;		None
  1350 ;; Return value:  Size  Location     Type
  1351 ;;                  1    wreg      unsigned char 
  1352 ;; Registers used:
  1353 ;;		wreg, status,2, status,0, pclath, cstack
  1354 ;; Tracked objects:
  1355 ;;		On entry : 0/0
  1356 ;;		On exit  : 0/0
  1357 ;;		Unchanged: 0/0
  1358 ;; Data sizes:     COMMON   BANK0   BANK1   BANK3   BANK2
  1359 ;;      Params:         0       0       0       0       0
  1360 ;;      Locals:         0       0       0       0       0
  1361 ;;      Temps:          0       0       0       0       0
  1362 ;;      Totals:         0       0       0       0       0
  1363 ;;Total ram usage:        0 bytes
  1364 ;; Hardware stack levels used:    1
  1365 ;; Hardware stack levels required when called:    1
  1366 ;; This function calls:
  1367 ;;		_spiReceiveWait
  1368 ;; This function is called by:
  1369 ;;		_main
  1370 ;; This function uses a non-reentrant model
  1371 ;;
  1372                           
  1373                           
  1374                           ;psect for function _spiRead
  1375  0802                     _spiRead:
  1376  0802                     l2428:	
  1377                           ;incstack = 0
  1378                           ; Regs used in _spiRead: [wreg+status,2+status,0+pclath+cstack]
  1379                           
  1380                           
  1381                           ;Librerias.c: 49:     spiReceiveWait();
  1382  0802  160A  118A  269E  120A  158A  	fcall	_spiReceiveWait
  1383  0807                     l2430:
  1384                           
  1385                           ;Librerias.c: 50:     return(SSPBUF);
  1386  0807  1283               	bcf	3,5	;RP0=0, select bank0
  1387  0808  1303               	bcf	3,6	;RP1=0, select bank0
  1388  0809  0813               	movf	19,w	;volatile
  1389  080A                     l114:
  1390  080A  0008               	return
  1391  080B                     __end_of_spiRead:
  1392                           
  1393                           	psect	text3
  1394  169E                     __ptext3:	
  1395 ;; *************** function _spiReceiveWait *****************
  1396 ;; Defined at:
  1397 ;;		line 29 in file "Librerias.c"
  1398 ;; Parameters:    Size  Location     Type
  1399 ;;		None
  1400 ;; Auto vars:     Size  Location     Type
  1401 ;;		None
  1402 ;; Return value:  Size  Location     Type
  1403 ;;                  1    wreg      void 
  1404 ;; Registers used:
  1405 ;;		None
  1406 ;; Tracked objects:
  1407 ;;		On entry : 0/0
  1408 ;;		On exit  : 0/0
  1409 ;;		Unchanged: 0/0
  1410 ;; Data sizes:     COMMON   BANK0   BANK1   BANK3   BANK2
  1411 ;;      Params:         0       0       0       0       0
  1412 ;;      Locals:         0       0       0       0       0
  1413 ;;      Temps:          0       0       0       0       0
  1414 ;;      Totals:         0       0       0       0       0
  1415 ;;Total ram usage:        0 bytes
  1416 ;; Hardware stack levels used:    1
  1417 ;; This function calls:
  1418 ;;		Nothing
  1419 ;; This function is called by:
  1420 ;;		_spiRead
  1421 ;; This function uses a non-reentrant model
  1422 ;;
  1423                           
  1424                           
  1425                           ;psect for function _spiReceiveWait
  1426  169E                     _spiReceiveWait:
  1427  169E                     l1944:	
  1428                           ;incstack = 0
  1429                           ; Regs used in _spiReceiveWait: []
  1430                           
  1431  169E                     l100:	
  1432                           ;Librerias.c: 31:     while ( !SSPSTATbits.BF );
  1433                           
  1434  169E  1683               	bsf	3,5	;RP0=1, select bank1
  1435  169F  1303               	bcf	3,6	;RP1=0, select bank1
  1436  16A0  1C14               	btfss	20,0	;volatile
  1437  16A1  2EA3               	goto	u2281
  1438  16A2  2EA4               	goto	u2280
  1439  16A3                     u2281:
  1440  16A3  2E9E               	goto	l100
  1441  16A4                     u2280:
  1442  16A4                     l103:
  1443  16A4  0008               	return
  1444  16A5                     __end_of_spiReceiveWait:
  1445                           
  1446                           	psect	text4
  1447  1717                     __ptext4:	
  1448 ;; *************** function _setup *****************
  1449 ;; Defined at:
  1450 ;;		line 114 in file "Lab03_Master.c"
  1451 ;; Parameters:    Size  Location     Type
  1452 ;;		None
  1453 ;; Auto vars:     Size  Location     Type
  1454 ;;		None
  1455 ;; Return value:  Size  Location     Type
  1456 ;;                  1    wreg      void 
  1457 ;; Registers used:
  1458 ;;		wreg, status,2, status,0, pclath, cstack
  1459 ;; Tracked objects:
  1460 ;;		On entry : 0/0
  1461 ;;		On exit  : 0/0
  1462 ;;		Unchanged: 0/0
  1463 ;; Data sizes:     COMMON   BANK0   BANK1   BANK3   BANK2
  1464 ;;      Params:         0       0       0       0       0
  1465 ;;      Locals:         0       0       0       0       0
  1466 ;;      Temps:          0       0       0       0       0
  1467 ;;      Totals:         0       0       0       0       0
  1468 ;;Total ram usage:        0 bytes
  1469 ;; Hardware stack levels used:    1
  1470 ;; Hardware stack levels required when called:    1
  1471 ;; This function calls:
  1472 ;;		_spiInit
  1473 ;; This function is called by:
  1474 ;;		_main
  1475 ;; This function uses a non-reentrant model
  1476 ;;
  1477                           
  1478                           
  1479                           ;psect for function _setup
  1480  1717                     _setup:
  1481  1717                     l2392:	
  1482                           ;incstack = 0
  1483                           ; Regs used in _setup: [wreg+status,2+status,0+pclath+cstack]
  1484                           
  1485                           
  1486                           ;Lab03_Master.c: 115:     ANSEL = 0x00;
  1487  1717  1683               	bsf	3,5	;RP0=1, select bank3
  1488  1718  1703               	bsf	3,6	;RP1=1, select bank3
  1489  1719  0188               	clrf	8	;volatile
  1490                           
  1491                           ;Lab03_Master.c: 116:     ANSELH = 0x00;
  1492  171A  0189               	clrf	9	;volatile
  1493  171B                     l2394:
  1494                           
  1495                           ;Lab03_Master.c: 118:     TRISCbits.TRISC2 = 0;
  1496  171B  1683               	bsf	3,5	;RP0=1, select bank1
  1497  171C  1303               	bcf	3,6	;RP1=0, select bank1
  1498  171D  1107               	bcf	7,2	;volatile
  1499                           
  1500                           ;Lab03_Master.c: 122:     TRISB = 0x00;
  1501  171E  0186               	clrf	6	;volatile
  1502                           
  1503                           ;Lab03_Master.c: 123:     TRISD = 0x00;
  1504  171F  0188               	clrf	8	;volatile
  1505                           
  1506                           ;Lab03_Master.c: 125:     PORTB = 0x00;
  1507  1720  1283               	bcf	3,5	;RP0=0, select bank0
  1508  1721  1303               	bcf	3,6	;RP1=0, select bank0
  1509  1722  0186               	clrf	6	;volatile
  1510                           
  1511                           ;Lab03_Master.c: 126:     PORTD = 0x00;
  1512  1723  0188               	clrf	8	;volatile
  1513  1724                     l2396:
  1514                           
  1515                           ;Lab03_Master.c: 127:     PORTCbits.RC2 = 1;
  1516  1724  1507               	bsf	7,2	;volatile
  1517  1725                     l2398:
  1518                           
  1519                           ;Lab03_Master.c: 128:     spiInit(SPI_MASTER_OSC_DIV4, SPI_DATA_SAMPLE_MIDDLE, SPI_CLOCK
      +                          _IDLE_LOW, SPI_IDLE_2_ACTIVE);
  1520  1725  01F0               	clrf	spiInit@sDataSample
  1521  1726  01F1               	clrf	spiInit@sClockIdle
  1522  1727  01F2               	clrf	spiInit@sTransmitEdge
  1523  1728  3020               	movlw	32
  1524  1729  120A  158A  200B  160A  118A  	fcall	_spiInit
  1525  172E                     l2400:
  1526                           
  1527                           ;Lab03_Master.c: 131:     OSCCONbits.IRCF2 = 1;
  1528  172E  1683               	bsf	3,5	;RP0=1, select bank1
  1529  172F  1303               	bcf	3,6	;RP1=0, select bank1
  1530  1730  170F               	bsf	15,6	;volatile
  1531  1731                     l2402:
  1532                           
  1533                           ;Lab03_Master.c: 132:     OSCCONbits.IRCF1 = 1;
  1534  1731  168F               	bsf	15,5	;volatile
  1535  1732                     l2404:
  1536                           
  1537                           ;Lab03_Master.c: 133:     OSCCONbits.IRCF0 = 1;
  1538  1732  160F               	bsf	15,4	;volatile
  1539  1733                     l2406:
  1540                           
  1541                           ;Lab03_Master.c: 134:     OSCCONbits.SCS = 1;
  1542  1733  140F               	bsf	15,0	;volatile
  1543  1734                     l2408:
  1544                           
  1545                           ;Lab03_Master.c: 137:     TXSTAbits.SYNC = 0;
  1546  1734  1218               	bcf	24,4	;volatile
  1547  1735                     l2410:
  1548                           
  1549                           ;Lab03_Master.c: 138:     TXSTAbits.BRGH = 1;
  1550  1735  1518               	bsf	24,2	;volatile
  1551  1736                     l2412:
  1552                           
  1553                           ;Lab03_Master.c: 140:     BAUDCTLbits.BRG16 = 1;
  1554  1736  1683               	bsf	3,5	;RP0=1, select bank3
  1555  1737  1703               	bsf	3,6	;RP1=1, select bank3
  1556  1738  1587               	bsf	7,3	;volatile
  1557  1739                     l2414:
  1558                           
  1559                           ;Lab03_Master.c: 142:     SPBRG = 207;
  1560  1739  30CF               	movlw	207
  1561  173A  1683               	bsf	3,5	;RP0=1, select bank1
  1562  173B  1303               	bcf	3,6	;RP1=0, select bank1
  1563  173C  0099               	movwf	25	;volatile
  1564  173D                     l2416:
  1565                           
  1566                           ;Lab03_Master.c: 143:     SPBRGH = 0;
  1567  173D  019A               	clrf	26	;volatile
  1568  173E                     l2418:
  1569                           
  1570                           ;Lab03_Master.c: 145:     RCSTAbits.SPEN = 1;
  1571  173E  1283               	bcf	3,5	;RP0=0, select bank0
  1572  173F  1303               	bcf	3,6	;RP1=0, select bank0
  1573  1740  1798               	bsf	24,7	;volatile
  1574  1741                     l2420:
  1575                           
  1576                           ;Lab03_Master.c: 146:     RCSTAbits.RX9 = 0;
  1577  1741  1318               	bcf	24,6	;volatile
  1578  1742                     l2422:
  1579                           
  1580                           ;Lab03_Master.c: 147:     RCSTAbits.CREN = 1;
  1581  1742  1618               	bsf	24,4	;volatile
  1582  1743                     l2424:
  1583                           
  1584                           ;Lab03_Master.c: 149:     TXSTAbits.TXEN = 1;
  1585  1743  1683               	bsf	3,5	;RP0=1, select bank1
  1586  1744  1303               	bcf	3,6	;RP1=0, select bank1
  1587  1745  1698               	bsf	24,5	;volatile
  1588  1746                     l71:
  1589  1746  0008               	return
  1590  1747                     __end_of_setup:
  1591                           
  1592                           	psect	text5
  1593  080B                     __ptext5:	
  1594 ;; *************** function _spiInit *****************
  1595 ;; Defined at:
  1596 ;;		line 12 in file "Librerias.c"
  1597 ;; Parameters:    Size  Location     Type
  1598 ;;  sType           1    wreg     enum E1264
  1599 ;;  sDataSample     1    0[COMMON] enum E1272
  1600 ;;  sClockIdle      1    1[COMMON] enum E1276
  1601 ;;  sTransmitEdg    1    2[COMMON] enum E1280
  1602 ;; Auto vars:     Size  Location     Type
  1603 ;;  sType           1    3[COMMON] enum E1264
  1604 ;; Return value:  Size  Location     Type
  1605 ;;                  1    wreg      void 
  1606 ;; Registers used:
  1607 ;;		wreg, status,2, status,0
  1608 ;; Tracked objects:
  1609 ;;		On entry : 0/0
  1610 ;;		On exit  : 0/0
  1611 ;;		Unchanged: 0/0
  1612 ;; Data sizes:     COMMON   BANK0   BANK1   BANK3   BANK2
  1613 ;;      Params:         3       0       0       0       0
  1614 ;;      Locals:         1       0       0       0       0
  1615 ;;      Temps:          0       0       0       0       0
  1616 ;;      Totals:         4       0       0       0       0
  1617 ;;Total ram usage:        4 bytes
  1618 ;; Hardware stack levels used:    1
  1619 ;; This function calls:
  1620 ;;		Nothing
  1621 ;; This function is called by:
  1622 ;;		_setup
  1623 ;; This function uses a non-reentrant model
  1624 ;;
  1625                           
  1626                           
  1627                           ;psect for function _spiInit
  1628  080B                     _spiInit:
  1629                           
  1630                           ;incstack = 0
  1631                           ; Regs used in _spiInit: [wreg+status,2+status,0]
  1632                           ;spiInit@sType stored from wreg
  1633  080B  00F3               	movwf	spiInit@sType
  1634  080C                     l1912:
  1635                           
  1636                           ;Librerias.c: 12: void spiInit(Spi_Type sType, Spi_Data_Sample sDataSample, Spi_Clock_Id
      +                          le sClockIdle, Spi_Transmit_Edge sTransmitEdge);Librerias.c: 13: {;Librerias.c: 14:     
      +                          TRISC5 = 0;
  1637  080C  1683               	bsf	3,5	;RP0=1, select bank1
  1638  080D  1303               	bcf	3,6	;RP1=0, select bank1
  1639  080E  1287               	bcf	7,5	;volatile
  1640                           
  1641                           ;Librerias.c: 15:     if(sType & 0b00000100)
  1642  080F  1D73               	btfss	spiInit@sType,2
  1643  0810  2812               	goto	u2251
  1644  0811  2813               	goto	u2250
  1645  0812                     u2251:
  1646  0812  2817               	goto	l1918
  1647  0813                     u2250:
  1648  0813                     l1914:
  1649                           
  1650                           ;Librerias.c: 16:     {;Librerias.c: 17:         SSPSTAT = sTransmitEdge;
  1651  0813  0872               	movf	spiInit@sTransmitEdge,w
  1652  0814  0094               	movwf	20	;volatile
  1653  0815                     l1916:
  1654                           
  1655                           ;Librerias.c: 18:         TRISC3 = 1;
  1656  0815  1587               	bsf	7,3	;volatile
  1657                           
  1658                           ;Librerias.c: 19:     }
  1659  0816  281B               	goto	l96
  1660  0817                     l1918:
  1661                           
  1662                           ;Librerias.c: 21:     {;Librerias.c: 22:         SSPSTAT = sDataSample | sTransmitEdge;
  1663  0817  0870               	movf	spiInit@sDataSample,w
  1664  0818  0472               	iorwf	spiInit@sTransmitEdge,w
  1665  0819  0094               	movwf	20	;volatile
  1666  081A                     l1920:
  1667                           
  1668                           ;Librerias.c: 23:         TRISC3 = 0;
  1669  081A  1187               	bcf	7,3	;volatile
  1670  081B                     l96:	
  1671                           ;Librerias.c: 24:     }
  1672                           
  1673                           
  1674                           ;Librerias.c: 26:     SSPCON = sType | sClockIdle;
  1675  081B  0873               	movf	spiInit@sType,w
  1676  081C  0471               	iorwf	spiInit@sClockIdle,w
  1677  081D  1283               	bcf	3,5	;RP0=0, select bank0
  1678  081E  1303               	bcf	3,6	;RP1=0, select bank0
  1679  081F  0094               	movwf	20	;volatile
  1680  0820                     l97:
  1681  0820  0008               	return
  1682  0821                     __end_of_spiInit:
  1683                           
  1684                           	psect	text6
  1685  03FB                     __ptext6:	
  1686 ;; *************** function _convert *****************
  1687 ;; Defined at:
  1688 ;;		line 53 in file "Librerias.c"
  1689 ;; Parameters:    Size  Location     Type
  1690 ;;  data            1    wreg     PTR unsigned char 
  1691 ;;		 -> sensor2(10), sensor1(10), 
  1692 ;;  a               4   70[BANK0 ] float 
  1693 ;;  place           2   74[BANK0 ] int 
  1694 ;; Auto vars:     Size  Location     Type
  1695 ;;  data            1    4[BANK1 ] PTR unsigned char 
  1696 ;;		 -> sensor2(10), sensor1(10), 
  1697 ;;  x               4    5[BANK1 ] float 
  1698 ;;  mu              2   13[BANK1 ] int 
  1699 ;;  digits          2   11[BANK1 ] int 
  1700 ;;  i               2    9[BANK1 ] int 
  1701 ;;  j               2    2[BANK1 ] int 
  1702 ;;  temp            2    0[BANK1 ] int 
  1703 ;; Return value:  Size  Location     Type
  1704 ;;                  1    wreg      void 
  1705 ;; Registers used:
  1706 ;;		wreg, fsr0l, fsr0h, status,2, status,0, btemp+1, pclath, cstack
  1707 ;; Tracked objects:
  1708 ;;		On entry : 0/0
  1709 ;;		On exit  : 0/0
  1710 ;;		Unchanged: 0/0
  1711 ;; Data sizes:     COMMON   BANK0   BANK1   BANK3   BANK2
  1712 ;;      Params:         0       6       0       0       0
  1713 ;;      Locals:         0       0      15       0       0
  1714 ;;      Temps:          0       2       0       0       0
  1715 ;;      Totals:         0       8      15       0       0
  1716 ;;Total ram usage:       23 bytes
  1717 ;; Hardware stack levels used:    1
  1718 ;; Hardware stack levels required when called:    2
  1719 ;; This function calls:
  1720 ;;		___awdiv
  1721 ;;		___fldiv
  1722 ;;		___flge
  1723 ;;		___flmul
  1724 ;;		___flsub
  1725 ;;		___fltol
  1726 ;;		___wmul
  1727 ;;		___xxtofl
  1728 ;; This function is called by:
  1729 ;;		_main
  1730 ;; This function uses a non-reentrant model
  1731 ;;
  1732                           
  1733                           
  1734                           ;psect for function _convert
  1735  03FB                     _convert:
  1736                           
  1737                           ;incstack = 0
  1738                           ; Regs used in _convert: [wreg-fsr0h+status,2+status,0+btemp+1+pclath+cstack]
  1739                           ;convert@data stored from wreg
  1740  03FB  1683               	bsf	3,5	;RP0=1, select bank1
  1741  03FC  1303               	bcf	3,6	;RP1=0, select bank1
  1742  03FD  00C0               	movwf	convert@data^(0+128)
  1743  03FE                     l2434:
  1744                           
  1745                           ;Librerias.c: 53: void convert(char *data,float a, int place);Librerias.c: 54: {;Libreri
      +                          as.c: 55:      int temp=a;
  1746  03FE  1283               	bcf	3,5	;RP0=0, select bank0
  1747  03FF  1303               	bcf	3,6	;RP1=0, select bank0
  1748  0400  0869               	movf	convert@a+3,w
  1749  0401  00F3               	movwf	___fltol@f1+3
  1750  0402  0868               	movf	convert@a+2,w
  1751  0403  00F2               	movwf	___fltol@f1+2
  1752  0404  0867               	movf	convert@a+1,w
  1753  0405  00F1               	movwf	___fltol@f1+1
  1754  0406  0866               	movf	convert@a,w
  1755  0407  00F0               	movwf	___fltol@f1
  1756  0408  120A  158A  2021  120A  118A  	fcall	___fltol
  1757  040D  0871               	movf	?___fltol+1,w
  1758  040E  1683               	bsf	3,5	;RP0=1, select bank1
  1759  040F  1303               	bcf	3,6	;RP1=0, select bank1
  1760  0410  00BD               	movwf	(convert@temp+1)^(0+128)
  1761  0411  0870               	movf	?___fltol,w
  1762  0412  00BC               	movwf	convert@temp^(0+128)
  1763  0413                     l2436:
  1764  0413                     l2438:
  1765                           
  1766                           ;Librerias.c: 57:      int digits=0;
  1767  0413  01C7               	clrf	convert@digits^(0+128)
  1768  0414  01C8               	clrf	(convert@digits+1)^(0+128)
  1769  0415                     l2440:
  1770                           
  1771                           ;Librerias.c: 58:      int i=0,mu=1;
  1772  0415  01C5               	clrf	convert@i^(0+128)
  1773  0416  01C6               	clrf	(convert@i+1)^(0+128)
  1774  0417                     l2442:
  1775  0417  3001               	movlw	1
  1776  0418  00C9               	movwf	convert@mu^(0+128)
  1777  0419  3000               	movlw	0
  1778  041A  00CA               	movwf	(convert@mu^(0+128)+1)
  1779  041B                     l2444:
  1780  041B                     l2446:
  1781                           
  1782                           ;Librerias.c: 60:      if(a<0)
  1783  041B  1283               	bcf	3,5	;RP0=0, select bank0
  1784  041C  1303               	bcf	3,6	;RP1=0, select bank0
  1785  041D  0869               	movf	convert@a+3,w
  1786  041E  00F3               	movwf	___flge@ff1+3
  1787  041F  0868               	movf	convert@a+2,w
  1788  0420  00F2               	movwf	___flge@ff1+2
  1789  0421  0867               	movf	convert@a+1,w
  1790  0422  00F1               	movwf	___flge@ff1+1
  1791  0423  0866               	movf	convert@a,w
  1792  0424  00F0               	movwf	___flge@ff1
  1793  0425  3000               	movlw	0
  1794  0426  00F7               	movwf	___flge@ff2+3
  1795  0427  3000               	movlw	0
  1796  0428  00F6               	movwf	___flge@ff2+2
  1797  0429  3000               	movlw	0
  1798  042A  00F5               	movwf	___flge@ff2+1
  1799  042B  3000               	movlw	0
  1800  042C  00F4               	movwf	___flge@ff2
  1801  042D  120A  158A  209B  120A  118A  	fcall	___flge
  1802  0432  1803               	btfsc	3,0
  1803  0433  2C35               	goto	u3401
  1804  0434  2C36               	goto	u3400
  1805  0435                     u3401:
  1806  0435  2C84               	goto	l2458
  1807  0436                     u3400:
  1808  0436                     l2448:
  1809                           
  1810                           ;Librerias.c: 61:      {;Librerias.c: 62:             a=a*-1;
  1811  0436  30BF               	movlw	191
  1812  0437  1283               	bcf	3,5	;RP0=0, select bank0
  1813  0438  1303               	bcf	3,6	;RP1=0, select bank0
  1814  0439  00CF               	movwf	___flmul@b+3
  1815  043A  3080               	movlw	128
  1816  043B  00CE               	movwf	___flmul@b+2
  1817  043C  3000               	movlw	0
  1818  043D  00CD               	movwf	___flmul@b+1
  1819  043E  3000               	movlw	0
  1820  043F  00CC               	movwf	___flmul@b
  1821  0440  0869               	movf	convert@a+3,w
  1822  0441  00D3               	movwf	___flmul@a+3
  1823  0442  0868               	movf	convert@a+2,w
  1824  0443  00D2               	movwf	___flmul@a+2
  1825  0444  0867               	movf	convert@a+1,w
  1826  0445  00D1               	movwf	___flmul@a+1
  1827  0446  0866               	movf	convert@a,w
  1828  0447  00D0               	movwf	___flmul@a
  1829  0448  120A  118A  209A  120A  118A  	fcall	___flmul
  1830  044D  1283               	bcf	3,5	;RP0=0, select bank0
  1831  044E  1303               	bcf	3,6	;RP1=0, select bank0
  1832  044F  084F               	movf	?___flmul+3,w
  1833  0450  00E9               	movwf	convert@a+3
  1834  0451  084E               	movf	?___flmul+2,w
  1835  0452  00E8               	movwf	convert@a+2
  1836  0453  084D               	movf	?___flmul+1,w
  1837  0454  00E7               	movwf	convert@a+1
  1838  0455  084C               	movf	?___flmul,w
  1839  0456  00E6               	movwf	convert@a
  1840  0457                     l2450:
  1841                           
  1842                           ;Librerias.c: 63:             data[i]='-';
  1843  0457  302D               	movlw	45
  1844  0458  00EC               	movwf	??_convert
  1845  0459  1683               	bsf	3,5	;RP0=1, select bank1
  1846  045A  1303               	bcf	3,6	;RP1=0, select bank1
  1847  045B  0840               	movf	convert@data^(0+128),w
  1848  045C  0084               	movwf	4
  1849  045D  1283               	bcf	3,5	;RP0=0, select bank0
  1850  045E  1303               	bcf	3,6	;RP1=0, select bank0
  1851  045F  086C               	movf	??_convert,w
  1852  0460  1383               	bcf	3,7	;select IRP bank0
  1853  0461  0080               	movwf	0
  1854  0462                     l2452:
  1855                           
  1856                           ;Librerias.c: 64:             i++;
  1857  0462  3001               	movlw	1
  1858  0463  1683               	bsf	3,5	;RP0=1, select bank1
  1859  0464  1303               	bcf	3,6	;RP1=0, select bank1
  1860  0465  07C5               	addwf	convert@i^(0+128),f
  1861  0466  1803               	skipnc
  1862  0467  0AC6               	incf	(convert@i+1)^(0+128),f
  1863  0468  3000               	movlw	0
  1864  0469  07C6               	addwf	(convert@i+1)^(0+128),f
  1865  046A  2C84               	goto	l2458
  1866  046B                     l2454:
  1867                           
  1868                           ;Librerias.c: 68:      {;Librerias.c: 69:          temp=temp/10;
  1869  046B  300A               	movlw	10
  1870  046C  00F0               	movwf	___awdiv@divisor
  1871  046D  3000               	movlw	0
  1872  046E  00F1               	movwf	___awdiv@divisor+1
  1873  046F  083D               	movf	(convert@temp+1)^(0+128),w
  1874  0470  00F3               	movwf	___awdiv@dividend+1
  1875  0471  083C               	movf	convert@temp^(0+128),w
  1876  0472  00F2               	movwf	___awdiv@dividend
  1877  0473  160A  118A  2799  120A  118A  	fcall	___awdiv
  1878  0478  0871               	movf	?___awdiv+1,w
  1879  0479  1683               	bsf	3,5	;RP0=1, select bank1
  1880  047A  1303               	bcf	3,6	;RP1=0, select bank1
  1881  047B  00BD               	movwf	(convert@temp+1)^(0+128)
  1882  047C  0870               	movf	?___awdiv,w
  1883  047D  00BC               	movwf	convert@temp^(0+128)
  1884  047E                     l2456:
  1885                           
  1886                           ;Librerias.c: 70:          digits++;
  1887  047E  3001               	movlw	1
  1888  047F  07C7               	addwf	convert@digits^(0+128),f
  1889  0480  1803               	skipnc
  1890  0481  0AC8               	incf	(convert@digits+1)^(0+128),f
  1891  0482  3000               	movlw	0
  1892  0483  07C8               	addwf	(convert@digits+1)^(0+128),f
  1893  0484                     l2458:
  1894                           
  1895                           ;Librerias.c: 67:      while(temp!=0)
  1896  0484  1683               	bsf	3,5	;RP0=1, select bank1
  1897  0485  1303               	bcf	3,6	;RP1=0, select bank1
  1898  0486  083C               	movf	convert@temp^(0+128),w
  1899  0487  043D               	iorwf	(convert@temp+1)^(0+128),w
  1900  0488  1D03               	btfss	3,2
  1901  0489  2C8B               	goto	u3411
  1902  048A  2C8C               	goto	u3410
  1903  048B                     u3411:
  1904  048B  2C6B               	goto	l2454
  1905  048C                     u3410:
  1906  048C  2DA8               	goto	l2482
  1907  048D                     l2460:
  1908                           
  1909                           ;Librerias.c: 73:      {;Librerias.c: 74:          if(digits==1)mu=1;
  1910  048D  0347               	decf	convert@digits^(0+128),w
  1911  048E  0448               	iorwf	(convert@digits+1)^(0+128),w
  1912  048F  1D03               	btfss	3,2
  1913  0490  2C92               	goto	u3421
  1914  0491  2C93               	goto	u3420
  1915  0492                     u3421:
  1916  0492  2C98               	goto	l2464
  1917  0493                     u3420:
  1918  0493                     l2462:
  1919  0493  3001               	movlw	1
  1920  0494  00C9               	movwf	convert@mu^(0+128)
  1921  0495  3000               	movlw	0
  1922  0496  00CA               	movwf	(convert@mu^(0+128)+1)
  1923  0497  2CDA               	goto	l2472
  1924  0498                     l2464:
  1925  0498  3002               	movlw	2
  1926  0499  00BE               	movwf	convert@j^(0+128)
  1927  049A  3000               	movlw	0
  1928  049B  00BF               	movwf	(convert@j^(0+128)+1)
  1929  049C  2CC4               	goto	l2470
  1930  049D                     l2466:
  1931  049D  1683               	bsf	3,5	;RP0=1, select bank1
  1932  049E  1303               	bcf	3,6	;RP1=0, select bank1
  1933  049F  084A               	movf	(convert@mu+1)^(0+128),w
  1934  04A0  1283               	bcf	3,5	;RP0=0, select bank0
  1935  04A1  1303               	bcf	3,6	;RP1=0, select bank0
  1936  04A2  00A1               	movwf	___wmul@multiplier+1
  1937  04A3  1683               	bsf	3,5	;RP0=1, select bank1
  1938  04A4  1303               	bcf	3,6	;RP1=0, select bank1
  1939  04A5  0849               	movf	convert@mu^(0+128),w
  1940  04A6  1283               	bcf	3,5	;RP0=0, select bank0
  1941  04A7  1303               	bcf	3,6	;RP1=0, select bank0
  1942  04A8  00A0               	movwf	___wmul@multiplier
  1943  04A9  300A               	movlw	10
  1944  04AA  00A2               	movwf	___wmul@multiplicand
  1945  04AB  3000               	movlw	0
  1946  04AC  00A3               	movwf	___wmul@multiplicand+1
  1947  04AD  160A  118A  26F0  120A  118A  	fcall	___wmul
  1948  04B2  1283               	bcf	3,5	;RP0=0, select bank0
  1949  04B3  1303               	bcf	3,6	;RP1=0, select bank0
  1950  04B4  0821               	movf	?___wmul+1,w
  1951  04B5  1683               	bsf	3,5	;RP0=1, select bank1
  1952  04B6  1303               	bcf	3,6	;RP1=0, select bank1
  1953  04B7  00CA               	movwf	(convert@mu+1)^(0+128)
  1954  04B8  1283               	bcf	3,5	;RP0=0, select bank0
  1955  04B9  1303               	bcf	3,6	;RP1=0, select bank0
  1956  04BA  0820               	movf	?___wmul,w
  1957  04BB  1683               	bsf	3,5	;RP0=1, select bank1
  1958  04BC  1303               	bcf	3,6	;RP1=0, select bank1
  1959  04BD  00C9               	movwf	convert@mu^(0+128)
  1960  04BE                     l2468:
  1961  04BE  3001               	movlw	1
  1962  04BF  07BE               	addwf	convert@j^(0+128),f
  1963  04C0  1803               	skipnc
  1964  04C1  0ABF               	incf	(convert@j+1)^(0+128),f
  1965  04C2  3000               	movlw	0
  1966  04C3  07BF               	addwf	(convert@j+1)^(0+128),f
  1967  04C4                     l2470:
  1968  04C4  0848               	movf	(convert@digits+1)^(0+128),w
  1969  04C5  3A80               	xorlw	128
  1970  04C6  1283               	bcf	3,5	;RP0=0, select bank0
  1971  04C7  1303               	bcf	3,6	;RP1=0, select bank0
  1972  04C8  00EC               	movwf	??_convert
  1973  04C9  1683               	bsf	3,5	;RP0=1, select bank1
  1974  04CA  1303               	bcf	3,6	;RP1=0, select bank1
  1975  04CB  083F               	movf	(convert@j+1)^(0+128),w
  1976  04CC  3A80               	xorlw	128
  1977  04CD  1283               	bcf	3,5	;RP0=0, select bank0
  1978  04CE  1303               	bcf	3,6	;RP1=0, select bank0
  1979  04CF  026C               	subwf	??_convert,w
  1980  04D0  1D03               	skipz
  1981  04D1  2CD6               	goto	u3435
  1982  04D2  1683               	bsf	3,5	;RP0=1, select bank1
  1983  04D3  1303               	bcf	3,6	;RP1=0, select bank1
  1984  04D4  083E               	movf	convert@j^(0+128),w
  1985  04D5  0247               	subwf	convert@digits^(0+128),w
  1986  04D6                     u3435:
  1987  04D6  1803               	skipnc
  1988  04D7  2CD9               	goto	u3431
  1989  04D8  2CDA               	goto	u3430
  1990  04D9                     u3431:
  1991  04D9  2C9D               	goto	l2466
  1992  04DA                     u3430:
  1993  04DA                     l2472:
  1994                           
  1995                           ;Librerias.c: 77:          x=a/mu;
  1996  04DA  1683               	bsf	3,5	;RP0=1, select bank1
  1997  04DB  1303               	bcf	3,6	;RP1=0, select bank1
  1998  04DC  0849               	movf	convert@mu^(0+128),w
  1999  04DD  1283               	bcf	3,5	;RP0=0, select bank0
  2000  04DE  1303               	bcf	3,6	;RP1=0, select bank0
  2001  04DF  00A4               	movwf	___xxtofl@val
  2002  04E0  1683               	bsf	3,5	;RP0=1, select bank1
  2003  04E1  1303               	bcf	3,6	;RP1=0, select bank1
  2004  04E2  084A               	movf	(convert@mu+1)^(0+128),w
  2005  04E3  1283               	bcf	3,5	;RP0=0, select bank0
  2006  04E4  1303               	bcf	3,6	;RP1=0, select bank0
  2007  04E5  00A5               	movwf	___xxtofl@val+1
  2008  04E6  3000               	movlw	0
  2009  04E7  1BA5               	btfsc	___xxtofl@val+1,7
  2010  04E8  30FF               	movlw	255
  2011  04E9  00A6               	movwf	___xxtofl@val+2
  2012  04EA  00A7               	movwf	___xxtofl@val+3
  2013  04EB  3001               	movlw	1
  2014  04EC  120A  158A  213D  120A  118A  	fcall	___xxtofl
  2015  04F1  1283               	bcf	3,5	;RP0=0, select bank0
  2016  04F2  1303               	bcf	3,6	;RP1=0, select bank0
  2017  04F3  0827               	movf	?___xxtofl+3,w
  2018  04F4  00B5               	movwf	___fldiv@a+3
  2019  04F5  0826               	movf	?___xxtofl+2,w
  2020  04F6  00B4               	movwf	___fldiv@a+2
  2021  04F7  0825               	movf	?___xxtofl+1,w
  2022  04F8  00B3               	movwf	___fldiv@a+1
  2023  04F9  0824               	movf	?___xxtofl,w
  2024  04FA  00B2               	movwf	___fldiv@a
  2025  04FB  0869               	movf	convert@a+3,w
  2026  04FC  00B9               	movwf	___fldiv@b+3
  2027  04FD  0868               	movf	convert@a+2,w
  2028  04FE  00B8               	movwf	___fldiv@b+2
  2029  04FF  0867               	movf	convert@a+1,w
  2030  0500  00B7               	movwf	___fldiv@b+1
  2031  0501  0866               	movf	convert@a,w
  2032  0502  00B6               	movwf	___fldiv@b
  2033  0503  120A  158A  238B  120A  118A  	fcall	___fldiv
  2034  0508  1283               	bcf	3,5	;RP0=0, select bank0
  2035  0509  1303               	bcf	3,6	;RP1=0, select bank0
  2036  050A  0835               	movf	?___fldiv+3,w
  2037  050B  1683               	bsf	3,5	;RP0=1, select bank1
  2038  050C  1303               	bcf	3,6	;RP1=0, select bank1
  2039  050D  00C4               	movwf	(convert@x+3)^(0+128)
  2040  050E  1283               	bcf	3,5	;RP0=0, select bank0
  2041  050F  1303               	bcf	3,6	;RP1=0, select bank0
  2042  0510  0834               	movf	?___fldiv+2,w
  2043  0511  1683               	bsf	3,5	;RP0=1, select bank1
  2044  0512  1303               	bcf	3,6	;RP1=0, select bank1
  2045  0513  00C3               	movwf	(convert@x+2)^(0+128)
  2046  0514  1283               	bcf	3,5	;RP0=0, select bank0
  2047  0515  1303               	bcf	3,6	;RP1=0, select bank0
  2048  0516  0833               	movf	?___fldiv+1,w
  2049  0517  1683               	bsf	3,5	;RP0=1, select bank1
  2050  0518  1303               	bcf	3,6	;RP1=0, select bank1
  2051  0519  00C2               	movwf	(convert@x+1)^(0+128)
  2052  051A  1283               	bcf	3,5	;RP0=0, select bank0
  2053  051B  1303               	bcf	3,6	;RP1=0, select bank0
  2054  051C  0832               	movf	?___fldiv,w
  2055  051D  1683               	bsf	3,5	;RP0=1, select bank1
  2056  051E  1303               	bcf	3,6	;RP1=0, select bank1
  2057  051F  00C1               	movwf	convert@x^(0+128)
  2058                           
  2059                           ;Librerias.c: 78:          a=a-((int)x*mu);
  2060  0520  084A               	movf	(convert@mu+1)^(0+128),w
  2061  0521  1283               	bcf	3,5	;RP0=0, select bank0
  2062  0522  1303               	bcf	3,6	;RP1=0, select bank0
  2063  0523  00A3               	movwf	___wmul@multiplicand+1
  2064  0524  1683               	bsf	3,5	;RP0=1, select bank1
  2065  0525  1303               	bcf	3,6	;RP1=0, select bank1
  2066  0526  0849               	movf	convert@mu^(0+128),w
  2067  0527  1283               	bcf	3,5	;RP0=0, select bank0
  2068  0528  1303               	bcf	3,6	;RP1=0, select bank0
  2069  0529  00A2               	movwf	___wmul@multiplicand
  2070  052A  1683               	bsf	3,5	;RP0=1, select bank1
  2071  052B  1303               	bcf	3,6	;RP1=0, select bank1
  2072  052C  0844               	movf	(convert@x+3)^(0+128),w
  2073  052D  00F3               	movwf	___fltol@f1+3
  2074  052E  0843               	movf	(convert@x+2)^(0+128),w
  2075  052F  00F2               	movwf	___fltol@f1+2
  2076  0530  0842               	movf	(convert@x+1)^(0+128),w
  2077  0531  00F1               	movwf	___fltol@f1+1
  2078  0532  0841               	movf	convert@x^(0+128),w
  2079  0533  00F0               	movwf	___fltol@f1
  2080  0534  120A  158A  2021  120A  118A  	fcall	___fltol
  2081  0539  0871               	movf	?___fltol+1,w
  2082  053A  1283               	bcf	3,5	;RP0=0, select bank0
  2083  053B  1303               	bcf	3,6	;RP1=0, select bank0
  2084  053C  00A1               	movwf	___wmul@multiplier+1
  2085  053D  0870               	movf	?___fltol,w
  2086  053E  00A0               	movwf	___wmul@multiplier
  2087  053F  160A  118A  26F0  120A  118A  	fcall	___wmul
  2088  0544  1283               	bcf	3,5	;RP0=0, select bank0
  2089  0545  1303               	bcf	3,6	;RP1=0, select bank0
  2090  0546  0820               	movf	?___wmul,w
  2091  0547  00A4               	movwf	___xxtofl@val
  2092  0548  0821               	movf	?___wmul+1,w
  2093  0549  00A5               	movwf	___xxtofl@val+1
  2094  054A  3000               	movlw	0
  2095  054B  1BA5               	btfsc	___xxtofl@val+1,7
  2096  054C  30FF               	movlw	255
  2097  054D  00A6               	movwf	___xxtofl@val+2
  2098  054E  00A7               	movwf	___xxtofl@val+3
  2099  054F  3001               	movlw	1
  2100  0550  120A  158A  213D  120A  118A  	fcall	___xxtofl
  2101  0555  1283               	bcf	3,5	;RP0=0, select bank0
  2102  0556  1303               	bcf	3,6	;RP1=0, select bank0
  2103  0557  0827               	movf	?___xxtofl+3,w
  2104  0558  00B5               	movwf	___flsub@a+3
  2105  0559  0826               	movf	?___xxtofl+2,w
  2106  055A  00B4               	movwf	___flsub@a+2
  2107  055B  0825               	movf	?___xxtofl+1,w
  2108  055C  00B3               	movwf	___flsub@a+1
  2109  055D  0824               	movf	?___xxtofl,w
  2110  055E  00B2               	movwf	___flsub@a
  2111  055F  0869               	movf	convert@a+3,w
  2112  0560  00B9               	movwf	___flsub@b+3
  2113  0561  0868               	movf	convert@a+2,w
  2114  0562  00B8               	movwf	___flsub@b+2
  2115  0563  0867               	movf	convert@a+1,w
  2116  0564  00B7               	movwf	___flsub@b+1
  2117  0565  0866               	movf	convert@a,w
  2118  0566  00B6               	movwf	___flsub@b
  2119  0567  160A  118A  26A5  120A  118A  	fcall	___flsub
  2120  056C  1283               	bcf	3,5	;RP0=0, select bank0
  2121  056D  1303               	bcf	3,6	;RP1=0, select bank0
  2122  056E  0835               	movf	?___flsub+3,w
  2123  056F  00E9               	movwf	convert@a+3
  2124  0570  0834               	movf	?___flsub+2,w
  2125  0571  00E8               	movwf	convert@a+2
  2126  0572  0833               	movf	?___flsub+1,w
  2127  0573  00E7               	movwf	convert@a+1
  2128  0574  0832               	movf	?___flsub,w
  2129  0575  00E6               	movwf	convert@a
  2130  0576                     l2474:
  2131                           
  2132                           ;Librerias.c: 79:          data[i]=0x30+((int)x);
  2133  0576  1683               	bsf	3,5	;RP0=1, select bank1
  2134  0577  1303               	bcf	3,6	;RP1=0, select bank1
  2135  0578  0844               	movf	(convert@x+3)^(0+128),w
  2136  0579  00F3               	movwf	___fltol@f1+3
  2137  057A  0843               	movf	(convert@x+2)^(0+128),w
  2138  057B  00F2               	movwf	___fltol@f1+2
  2139  057C  0842               	movf	(convert@x+1)^(0+128),w
  2140  057D  00F1               	movwf	___fltol@f1+1
  2141  057E  0841               	movf	convert@x^(0+128),w
  2142  057F  00F0               	movwf	___fltol@f1
  2143  0580  120A  158A  2021  120A  118A  	fcall	___fltol
  2144  0585  0870               	movf	?___fltol,w
  2145  0586  3E30               	addlw	48
  2146  0587  1283               	bcf	3,5	;RP0=0, select bank0
  2147  0588  1303               	bcf	3,6	;RP1=0, select bank0
  2148  0589  00EC               	movwf	??_convert
  2149  058A  1683               	bsf	3,5	;RP0=1, select bank1
  2150  058B  1303               	bcf	3,6	;RP1=0, select bank1
  2151  058C  0845               	movf	convert@i^(0+128),w
  2152  058D  0740               	addwf	convert@data^(0+128),w
  2153  058E  1283               	bcf	3,5	;RP0=0, select bank0
  2154  058F  1303               	bcf	3,6	;RP1=0, select bank0
  2155  0590  00ED               	movwf	??_convert+1
  2156  0591  086D               	movf	??_convert+1,w
  2157  0592  0084               	movwf	4
  2158  0593  086C               	movf	??_convert,w
  2159  0594  1383               	bcf	3,7	;select IRP bank0
  2160  0595  0080               	movwf	0
  2161  0596                     l2476:
  2162                           
  2163                           ;Librerias.c: 80:          i++;
  2164  0596  3001               	movlw	1
  2165  0597  1683               	bsf	3,5	;RP0=1, select bank1
  2166  0598  1303               	bcf	3,6	;RP1=0, select bank1
  2167  0599  07C5               	addwf	convert@i^(0+128),f
  2168  059A  1803               	skipnc
  2169  059B  0AC6               	incf	(convert@i+1)^(0+128),f
  2170  059C  3000               	movlw	0
  2171  059D  07C6               	addwf	(convert@i+1)^(0+128),f
  2172  059E                     l2478:
  2173                           
  2174                           ;Librerias.c: 81:          digits--;
  2175  059E  30FF               	movlw	255
  2176  059F  07C7               	addwf	convert@digits^(0+128),f
  2177  05A0  1803               	skipnc
  2178  05A1  0AC8               	incf	(convert@digits+1)^(0+128),f
  2179  05A2  30FF               	movlw	255
  2180  05A3  07C8               	addwf	(convert@digits+1)^(0+128),f
  2181  05A4                     l2480:
  2182                           
  2183                           ;Librerias.c: 82:          mu=1;
  2184  05A4  3001               	movlw	1
  2185  05A5  00C9               	movwf	convert@mu^(0+128)
  2186  05A6  3000               	movlw	0
  2187  05A7  00CA               	movwf	(convert@mu^(0+128)+1)
  2188  05A8                     l2482:
  2189                           
  2190                           ;Librerias.c: 72:      while(digits!=0)
  2191  05A8  0847               	movf	convert@digits^(0+128),w
  2192  05A9  0448               	iorwf	(convert@digits+1)^(0+128),w
  2193  05AA  1D03               	btfss	3,2
  2194  05AB  2DAD               	goto	u3441
  2195  05AC  2DAE               	goto	u3440
  2196  05AD                     u3441:
  2197  05AD  2C8D               	goto	l2460
  2198  05AE                     u3440:
  2199  05AE                     l2484:
  2200                           
  2201                           ;Librerias.c: 85:      data[i]='.';
  2202  05AE  302E               	movlw	46
  2203  05AF  1283               	bcf	3,5	;RP0=0, select bank0
  2204  05B0  1303               	bcf	3,6	;RP1=0, select bank0
  2205  05B1  00EC               	movwf	??_convert
  2206  05B2  1683               	bsf	3,5	;RP0=1, select bank1
  2207  05B3  1303               	bcf	3,6	;RP1=0, select bank1
  2208  05B4  0845               	movf	convert@i^(0+128),w
  2209  05B5  0740               	addwf	convert@data^(0+128),w
  2210  05B6  1283               	bcf	3,5	;RP0=0, select bank0
  2211  05B7  1303               	bcf	3,6	;RP1=0, select bank0
  2212  05B8  00ED               	movwf	??_convert+1
  2213  05B9  086D               	movf	??_convert+1,w
  2214  05BA  0084               	movwf	4
  2215  05BB  086C               	movf	??_convert,w
  2216  05BC  1383               	bcf	3,7	;select IRP bank0
  2217  05BD  0080               	movwf	0
  2218  05BE                     l2486:
  2219                           
  2220                           ;Librerias.c: 86:      i++;
  2221  05BE  3001               	movlw	1
  2222  05BF  1683               	bsf	3,5	;RP0=1, select bank1
  2223  05C0  1303               	bcf	3,6	;RP1=0, select bank1
  2224  05C1  07C5               	addwf	convert@i^(0+128),f
  2225  05C2  1803               	skipnc
  2226  05C3  0AC6               	incf	(convert@i+1)^(0+128),f
  2227  05C4  3000               	movlw	0
  2228  05C5  07C6               	addwf	(convert@i+1)^(0+128),f
  2229  05C6                     l2488:
  2230  05C6                     l2490:
  2231                           
  2232                           ;Librerias.c: 88:      for(j=1;j<=place;j++)mu=mu*10;
  2233  05C6  3001               	movlw	1
  2234  05C7  00BE               	movwf	convert@j^(0+128)
  2235  05C8  3000               	movlw	0
  2236  05C9  00BF               	movwf	(convert@j^(0+128)+1)
  2237  05CA  2DF2               	goto	l2496
  2238  05CB                     l2492:
  2239  05CB  1683               	bsf	3,5	;RP0=1, select bank1
  2240  05CC  1303               	bcf	3,6	;RP1=0, select bank1
  2241  05CD  084A               	movf	(convert@mu+1)^(0+128),w
  2242  05CE  1283               	bcf	3,5	;RP0=0, select bank0
  2243  05CF  1303               	bcf	3,6	;RP1=0, select bank0
  2244  05D0  00A1               	movwf	___wmul@multiplier+1
  2245  05D1  1683               	bsf	3,5	;RP0=1, select bank1
  2246  05D2  1303               	bcf	3,6	;RP1=0, select bank1
  2247  05D3  0849               	movf	convert@mu^(0+128),w
  2248  05D4  1283               	bcf	3,5	;RP0=0, select bank0
  2249  05D5  1303               	bcf	3,6	;RP1=0, select bank0
  2250  05D6  00A0               	movwf	___wmul@multiplier
  2251  05D7  300A               	movlw	10
  2252  05D8  00A2               	movwf	___wmul@multiplicand
  2253  05D9  3000               	movlw	0
  2254  05DA  00A3               	movwf	___wmul@multiplicand+1
  2255  05DB  160A  118A  26F0  120A  118A  	fcall	___wmul
  2256  05E0  1283               	bcf	3,5	;RP0=0, select bank0
  2257  05E1  1303               	bcf	3,6	;RP1=0, select bank0
  2258  05E2  0821               	movf	?___wmul+1,w
  2259  05E3  1683               	bsf	3,5	;RP0=1, select bank1
  2260  05E4  1303               	bcf	3,6	;RP1=0, select bank1
  2261  05E5  00CA               	movwf	(convert@mu+1)^(0+128)
  2262  05E6  1283               	bcf	3,5	;RP0=0, select bank0
  2263  05E7  1303               	bcf	3,6	;RP1=0, select bank0
  2264  05E8  0820               	movf	?___wmul,w
  2265  05E9  1683               	bsf	3,5	;RP0=1, select bank1
  2266  05EA  1303               	bcf	3,6	;RP1=0, select bank1
  2267  05EB  00C9               	movwf	convert@mu^(0+128)
  2268  05EC                     l2494:
  2269  05EC  3001               	movlw	1
  2270  05ED  07BE               	addwf	convert@j^(0+128),f
  2271  05EE  1803               	skipnc
  2272  05EF  0ABF               	incf	(convert@j+1)^(0+128),f
  2273  05F0  3000               	movlw	0
  2274  05F1  07BF               	addwf	(convert@j+1)^(0+128),f
  2275  05F2                     l2496:
  2276  05F2  1283               	bcf	3,5	;RP0=0, select bank0
  2277  05F3  1303               	bcf	3,6	;RP1=0, select bank0
  2278  05F4  086B               	movf	convert@place+1,w
  2279  05F5  3A80               	xorlw	128
  2280  05F6  00EC               	movwf	??_convert
  2281  05F7  1683               	bsf	3,5	;RP0=1, select bank1
  2282  05F8  1303               	bcf	3,6	;RP1=0, select bank1
  2283  05F9  083F               	movf	(convert@j+1)^(0+128),w
  2284  05FA  3A80               	xorlw	128
  2285  05FB  1283               	bcf	3,5	;RP0=0, select bank0
  2286  05FC  1303               	bcf	3,6	;RP1=0, select bank0
  2287  05FD  026C               	subwf	??_convert,w
  2288  05FE  1D03               	skipz
  2289  05FF  2E06               	goto	u3455
  2290  0600  1683               	bsf	3,5	;RP0=1, select bank1
  2291  0601  1303               	bcf	3,6	;RP1=0, select bank1
  2292  0602  083E               	movf	convert@j^(0+128),w
  2293  0603  1283               	bcf	3,5	;RP0=0, select bank0
  2294  0604  1303               	bcf	3,6	;RP1=0, select bank0
  2295  0605  026A               	subwf	convert@place,w
  2296  0606                     u3455:
  2297  0606  1803               	skipnc
  2298  0607  2E09               	goto	u3451
  2299  0608  2E0A               	goto	u3450
  2300  0609                     u3451:
  2301  0609  2DCB               	goto	l2492
  2302  060A                     u3450:
  2303  060A                     l2498:
  2304                           
  2305                           ;Librerias.c: 89:      x=(a-(int)a)*mu;
  2306  060A  1683               	bsf	3,5	;RP0=1, select bank1
  2307  060B  1303               	bcf	3,6	;RP1=0, select bank1
  2308  060C  0849               	movf	convert@mu^(0+128),w
  2309  060D  1283               	bcf	3,5	;RP0=0, select bank0
  2310  060E  1303               	bcf	3,6	;RP1=0, select bank0
  2311  060F  00A4               	movwf	___xxtofl@val
  2312  0610  1683               	bsf	3,5	;RP0=1, select bank1
  2313  0611  1303               	bcf	3,6	;RP1=0, select bank1
  2314  0612  084A               	movf	(convert@mu+1)^(0+128),w
  2315  0613  1283               	bcf	3,5	;RP0=0, select bank0
  2316  0614  1303               	bcf	3,6	;RP1=0, select bank0
  2317  0615  00A5               	movwf	___xxtofl@val+1
  2318  0616  3000               	movlw	0
  2319  0617  1BA5               	btfsc	___xxtofl@val+1,7
  2320  0618  30FF               	movlw	255
  2321  0619  00A6               	movwf	___xxtofl@val+2
  2322  061A  00A7               	movwf	___xxtofl@val+3
  2323  061B  3001               	movlw	1
  2324  061C  120A  158A  213D  120A  118A  	fcall	___xxtofl
  2325  0621  1283               	bcf	3,5	;RP0=0, select bank0
  2326  0622  1303               	bcf	3,6	;RP1=0, select bank0
  2327  0623  0827               	movf	?___xxtofl+3,w
  2328  0624  00CF               	movwf	___flmul@b+3
  2329  0625  0826               	movf	?___xxtofl+2,w
  2330  0626  00CE               	movwf	___flmul@b+2
  2331  0627  0825               	movf	?___xxtofl+1,w
  2332  0628  00CD               	movwf	___flmul@b+1
  2333  0629  0824               	movf	?___xxtofl,w
  2334  062A  00CC               	movwf	___flmul@b
  2335  062B  0869               	movf	convert@a+3,w
  2336  062C  00F3               	movwf	___fltol@f1+3
  2337  062D  0868               	movf	convert@a+2,w
  2338  062E  00F2               	movwf	___fltol@f1+2
  2339  062F  0867               	movf	convert@a+1,w
  2340  0630  00F1               	movwf	___fltol@f1+1
  2341  0631  0866               	movf	convert@a,w
  2342  0632  00F0               	movwf	___fltol@f1
  2343  0633  120A  158A  2021  120A  118A  	fcall	___fltol
  2344  0638  0870               	movf	?___fltol,w
  2345  0639  1283               	bcf	3,5	;RP0=0, select bank0
  2346  063A  1303               	bcf	3,6	;RP1=0, select bank0
  2347  063B  00A4               	movwf	___xxtofl@val
  2348  063C  0871               	movf	?___fltol+1,w
  2349  063D  00A5               	movwf	___xxtofl@val+1
  2350  063E  3000               	movlw	0
  2351  063F  1BA5               	btfsc	___xxtofl@val+1,7
  2352  0640  30FF               	movlw	255
  2353  0641  00A6               	movwf	___xxtofl@val+2
  2354  0642  00A7               	movwf	___xxtofl@val+3
  2355  0643  3001               	movlw	1
  2356  0644  120A  158A  213D  120A  118A  	fcall	___xxtofl
  2357  0649  1283               	bcf	3,5	;RP0=0, select bank0
  2358  064A  1303               	bcf	3,6	;RP1=0, select bank0
  2359  064B  0827               	movf	?___xxtofl+3,w
  2360  064C  00B5               	movwf	___flsub@a+3
  2361  064D  0826               	movf	?___xxtofl+2,w
  2362  064E  00B4               	movwf	___flsub@a+2
  2363  064F  0825               	movf	?___xxtofl+1,w
  2364  0650  00B3               	movwf	___flsub@a+1
  2365  0651  0824               	movf	?___xxtofl,w
  2366  0652  00B2               	movwf	___flsub@a
  2367  0653  0869               	movf	convert@a+3,w
  2368  0654  00B9               	movwf	___flsub@b+3
  2369  0655  0868               	movf	convert@a+2,w
  2370  0656  00B8               	movwf	___flsub@b+2
  2371  0657  0867               	movf	convert@a+1,w
  2372  0658  00B7               	movwf	___flsub@b+1
  2373  0659  0866               	movf	convert@a,w
  2374  065A  00B6               	movwf	___flsub@b
  2375  065B  160A  118A  26A5  120A  118A  	fcall	___flsub
  2376  0660  1283               	bcf	3,5	;RP0=0, select bank0
  2377  0661  1303               	bcf	3,6	;RP1=0, select bank0
  2378  0662  0835               	movf	?___flsub+3,w
  2379  0663  00D3               	movwf	___flmul@a+3
  2380  0664  0834               	movf	?___flsub+2,w
  2381  0665  00D2               	movwf	___flmul@a+2
  2382  0666  0833               	movf	?___flsub+1,w
  2383  0667  00D1               	movwf	___flmul@a+1
  2384  0668  0832               	movf	?___flsub,w
  2385  0669  00D0               	movwf	___flmul@a
  2386  066A  120A  118A  209A  120A  118A  	fcall	___flmul
  2387  066F  1283               	bcf	3,5	;RP0=0, select bank0
  2388  0670  1303               	bcf	3,6	;RP1=0, select bank0
  2389  0671  084F               	movf	?___flmul+3,w
  2390  0672  1683               	bsf	3,5	;RP0=1, select bank1
  2391  0673  1303               	bcf	3,6	;RP1=0, select bank1
  2392  0674  00C4               	movwf	(convert@x+3)^(0+128)
  2393  0675  1283               	bcf	3,5	;RP0=0, select bank0
  2394  0676  1303               	bcf	3,6	;RP1=0, select bank0
  2395  0677  084E               	movf	?___flmul+2,w
  2396  0678  1683               	bsf	3,5	;RP0=1, select bank1
  2397  0679  1303               	bcf	3,6	;RP1=0, select bank1
  2398  067A  00C3               	movwf	(convert@x+2)^(0+128)
  2399  067B  1283               	bcf	3,5	;RP0=0, select bank0
  2400  067C  1303               	bcf	3,6	;RP1=0, select bank0
  2401  067D  084D               	movf	?___flmul+1,w
  2402  067E  1683               	bsf	3,5	;RP0=1, select bank1
  2403  067F  1303               	bcf	3,6	;RP1=0, select bank1
  2404  0680  00C2               	movwf	(convert@x+1)^(0+128)
  2405  0681  1283               	bcf	3,5	;RP0=0, select bank0
  2406  0682  1303               	bcf	3,6	;RP1=0, select bank0
  2407  0683  084C               	movf	?___flmul,w
  2408  0684  1683               	bsf	3,5	;RP0=1, select bank1
  2409  0685  1303               	bcf	3,6	;RP1=0, select bank1
  2410  0686  00C1               	movwf	convert@x^(0+128)
  2411  0687                     l2500:
  2412                           
  2413                           ;Librerias.c: 90:      a=x;
  2414  0687  0844               	movf	(convert@x+3)^(0+128),w
  2415  0688  1283               	bcf	3,5	;RP0=0, select bank0
  2416  0689  1303               	bcf	3,6	;RP1=0, select bank0
  2417  068A  00E9               	movwf	convert@a+3
  2418  068B  1683               	bsf	3,5	;RP0=1, select bank1
  2419  068C  1303               	bcf	3,6	;RP1=0, select bank1
  2420  068D  0843               	movf	(convert@x+2)^(0+128),w
  2421  068E  1283               	bcf	3,5	;RP0=0, select bank0
  2422  068F  1303               	bcf	3,6	;RP1=0, select bank0
  2423  0690  00E8               	movwf	convert@a+2
  2424  0691  1683               	bsf	3,5	;RP0=1, select bank1
  2425  0692  1303               	bcf	3,6	;RP1=0, select bank1
  2426  0693  0842               	movf	(convert@x+1)^(0+128),w
  2427  0694  1283               	bcf	3,5	;RP0=0, select bank0
  2428  0695  1303               	bcf	3,6	;RP1=0, select bank0
  2429  0696  00E7               	movwf	convert@a+1
  2430  0697  1683               	bsf	3,5	;RP0=1, select bank1
  2431  0698  1303               	bcf	3,6	;RP1=0, select bank1
  2432  0699  0841               	movf	convert@x^(0+128),w
  2433  069A  1283               	bcf	3,5	;RP0=0, select bank0
  2434  069B  1303               	bcf	3,6	;RP1=0, select bank0
  2435  069C  00E6               	movwf	convert@a
  2436  069D                     l2502:
  2437  069D  0869               	movf	convert@a+3,w
  2438  069E  00F3               	movwf	___fltol@f1+3
  2439  069F  0868               	movf	convert@a+2,w
  2440  06A0  00F2               	movwf	___fltol@f1+2
  2441  06A1  0867               	movf	convert@a+1,w
  2442  06A2  00F1               	movwf	___fltol@f1+1
  2443  06A3  0866               	movf	convert@a,w
  2444  06A4  00F0               	movwf	___fltol@f1
  2445  06A5  120A  158A  2021  120A  118A  	fcall	___fltol
  2446  06AA                     l2504:
  2447  06AA                     l2506:
  2448                           
  2449                           ;Librerias.c: 93:      mu=1;
  2450  06AA  3001               	movlw	1
  2451  06AB  1683               	bsf	3,5	;RP0=1, select bank1
  2452  06AC  1303               	bcf	3,6	;RP1=0, select bank1
  2453  06AD  00C9               	movwf	convert@mu^(0+128)
  2454  06AE  3000               	movlw	0
  2455  06AF  00CA               	movwf	(convert@mu^(0+128)+1)
  2456  06B0                     l2508:
  2457                           
  2458                           ;Librerias.c: 94:      digits=place;
  2459  06B0  1283               	bcf	3,5	;RP0=0, select bank0
  2460  06B1  1303               	bcf	3,6	;RP1=0, select bank0
  2461  06B2  086B               	movf	convert@place+1,w
  2462  06B3  1683               	bsf	3,5	;RP0=1, select bank1
  2463  06B4  1303               	bcf	3,6	;RP1=0, select bank1
  2464  06B5  00C8               	movwf	(convert@digits+1)^(0+128)
  2465  06B6  1283               	bcf	3,5	;RP0=0, select bank0
  2466  06B7  1303               	bcf	3,6	;RP1=0, select bank0
  2467  06B8  086A               	movf	convert@place,w
  2468  06B9  1683               	bsf	3,5	;RP0=1, select bank1
  2469  06BA  1303               	bcf	3,6	;RP1=0, select bank1
  2470  06BB  00C7               	movwf	convert@digits^(0+128)
  2471                           
  2472                           ;Librerias.c: 95:      while(digits!=0)
  2473  06BC  2FD8               	goto	l2532
  2474  06BD                     l2510:
  2475                           
  2476                           ;Librerias.c: 96:      {;Librerias.c: 97:          if(digits==1)mu=1;
  2477  06BD  0347               	decf	convert@digits^(0+128),w
  2478  06BE  0448               	iorwf	(convert@digits+1)^(0+128),w
  2479  06BF  1D03               	btfss	3,2
  2480  06C0  2EC2               	goto	u3461
  2481  06C1  2EC3               	goto	u3460
  2482  06C2                     u3461:
  2483  06C2  2EC8               	goto	l2514
  2484  06C3                     u3460:
  2485  06C3                     l2512:
  2486  06C3  3001               	movlw	1
  2487  06C4  00C9               	movwf	convert@mu^(0+128)
  2488  06C5  3000               	movlw	0
  2489  06C6  00CA               	movwf	(convert@mu^(0+128)+1)
  2490  06C7  2F0A               	goto	l2522
  2491  06C8                     l2514:
  2492  06C8  3002               	movlw	2
  2493  06C9  00BE               	movwf	convert@j^(0+128)
  2494  06CA  3000               	movlw	0
  2495  06CB  00BF               	movwf	(convert@j^(0+128)+1)
  2496  06CC  2EF4               	goto	l2520
  2497  06CD                     l2516:
  2498  06CD  1683               	bsf	3,5	;RP0=1, select bank1
  2499  06CE  1303               	bcf	3,6	;RP1=0, select bank1
  2500  06CF  084A               	movf	(convert@mu+1)^(0+128),w
  2501  06D0  1283               	bcf	3,5	;RP0=0, select bank0
  2502  06D1  1303               	bcf	3,6	;RP1=0, select bank0
  2503  06D2  00A1               	movwf	___wmul@multiplier+1
  2504  06D3  1683               	bsf	3,5	;RP0=1, select bank1
  2505  06D4  1303               	bcf	3,6	;RP1=0, select bank1
  2506  06D5  0849               	movf	convert@mu^(0+128),w
  2507  06D6  1283               	bcf	3,5	;RP0=0, select bank0
  2508  06D7  1303               	bcf	3,6	;RP1=0, select bank0
  2509  06D8  00A0               	movwf	___wmul@multiplier
  2510  06D9  300A               	movlw	10
  2511  06DA  00A2               	movwf	___wmul@multiplicand
  2512  06DB  3000               	movlw	0
  2513  06DC  00A3               	movwf	___wmul@multiplicand+1
  2514  06DD  160A  118A  26F0  120A  118A  	fcall	___wmul
  2515  06E2  1283               	bcf	3,5	;RP0=0, select bank0
  2516  06E3  1303               	bcf	3,6	;RP1=0, select bank0
  2517  06E4  0821               	movf	?___wmul+1,w
  2518  06E5  1683               	bsf	3,5	;RP0=1, select bank1
  2519  06E6  1303               	bcf	3,6	;RP1=0, select bank1
  2520  06E7  00CA               	movwf	(convert@mu+1)^(0+128)
  2521  06E8  1283               	bcf	3,5	;RP0=0, select bank0
  2522  06E9  1303               	bcf	3,6	;RP1=0, select bank0
  2523  06EA  0820               	movf	?___wmul,w
  2524  06EB  1683               	bsf	3,5	;RP0=1, select bank1
  2525  06EC  1303               	bcf	3,6	;RP1=0, select bank1
  2526  06ED  00C9               	movwf	convert@mu^(0+128)
  2527  06EE                     l2518:
  2528  06EE  3001               	movlw	1
  2529  06EF  07BE               	addwf	convert@j^(0+128),f
  2530  06F0  1803               	skipnc
  2531  06F1  0ABF               	incf	(convert@j+1)^(0+128),f
  2532  06F2  3000               	movlw	0
  2533  06F3  07BF               	addwf	(convert@j+1)^(0+128),f
  2534  06F4                     l2520:
  2535  06F4  0848               	movf	(convert@digits+1)^(0+128),w
  2536  06F5  3A80               	xorlw	128
  2537  06F6  1283               	bcf	3,5	;RP0=0, select bank0
  2538  06F7  1303               	bcf	3,6	;RP1=0, select bank0
  2539  06F8  00EC               	movwf	??_convert
  2540  06F9  1683               	bsf	3,5	;RP0=1, select bank1
  2541  06FA  1303               	bcf	3,6	;RP1=0, select bank1
  2542  06FB  083F               	movf	(convert@j+1)^(0+128),w
  2543  06FC  3A80               	xorlw	128
  2544  06FD  1283               	bcf	3,5	;RP0=0, select bank0
  2545  06FE  1303               	bcf	3,6	;RP1=0, select bank0
  2546  06FF  026C               	subwf	??_convert,w
  2547  0700  1D03               	skipz
  2548  0701  2F06               	goto	u3475
  2549  0702  1683               	bsf	3,5	;RP0=1, select bank1
  2550  0703  1303               	bcf	3,6	;RP1=0, select bank1
  2551  0704  083E               	movf	convert@j^(0+128),w
  2552  0705  0247               	subwf	convert@digits^(0+128),w
  2553  0706                     u3475:
  2554  0706  1803               	skipnc
  2555  0707  2F09               	goto	u3471
  2556  0708  2F0A               	goto	u3470
  2557  0709                     u3471:
  2558  0709  2ECD               	goto	l2516
  2559  070A                     u3470:
  2560  070A                     l2522:
  2561                           
  2562                           ;Librerias.c: 100:          x=a/mu;
  2563  070A  1683               	bsf	3,5	;RP0=1, select bank1
  2564  070B  1303               	bcf	3,6	;RP1=0, select bank1
  2565  070C  0849               	movf	convert@mu^(0+128),w
  2566  070D  1283               	bcf	3,5	;RP0=0, select bank0
  2567  070E  1303               	bcf	3,6	;RP1=0, select bank0
  2568  070F  00A4               	movwf	___xxtofl@val
  2569  0710  1683               	bsf	3,5	;RP0=1, select bank1
  2570  0711  1303               	bcf	3,6	;RP1=0, select bank1
  2571  0712  084A               	movf	(convert@mu+1)^(0+128),w
  2572  0713  1283               	bcf	3,5	;RP0=0, select bank0
  2573  0714  1303               	bcf	3,6	;RP1=0, select bank0
  2574  0715  00A5               	movwf	___xxtofl@val+1
  2575  0716  3000               	movlw	0
  2576  0717  1BA5               	btfsc	___xxtofl@val+1,7
  2577  0718  30FF               	movlw	255
  2578  0719  00A6               	movwf	___xxtofl@val+2
  2579  071A  00A7               	movwf	___xxtofl@val+3
  2580  071B  3001               	movlw	1
  2581  071C  120A  158A  213D  120A  118A  	fcall	___xxtofl
  2582  0721  1283               	bcf	3,5	;RP0=0, select bank0
  2583  0722  1303               	bcf	3,6	;RP1=0, select bank0
  2584  0723  0827               	movf	?___xxtofl+3,w
  2585  0724  00B5               	movwf	___fldiv@a+3
  2586  0725  0826               	movf	?___xxtofl+2,w
  2587  0726  00B4               	movwf	___fldiv@a+2
  2588  0727  0825               	movf	?___xxtofl+1,w
  2589  0728  00B3               	movwf	___fldiv@a+1
  2590  0729  0824               	movf	?___xxtofl,w
  2591  072A  00B2               	movwf	___fldiv@a
  2592  072B  0869               	movf	convert@a+3,w
  2593  072C  00B9               	movwf	___fldiv@b+3
  2594  072D  0868               	movf	convert@a+2,w
  2595  072E  00B8               	movwf	___fldiv@b+2
  2596  072F  0867               	movf	convert@a+1,w
  2597  0730  00B7               	movwf	___fldiv@b+1
  2598  0731  0866               	movf	convert@a,w
  2599  0732  00B6               	movwf	___fldiv@b
  2600  0733  120A  158A  238B  120A  118A  	fcall	___fldiv
  2601  0738  1283               	bcf	3,5	;RP0=0, select bank0
  2602  0739  1303               	bcf	3,6	;RP1=0, select bank0
  2603  073A  0835               	movf	?___fldiv+3,w
  2604  073B  1683               	bsf	3,5	;RP0=1, select bank1
  2605  073C  1303               	bcf	3,6	;RP1=0, select bank1
  2606  073D  00C4               	movwf	(convert@x+3)^(0+128)
  2607  073E  1283               	bcf	3,5	;RP0=0, select bank0
  2608  073F  1303               	bcf	3,6	;RP1=0, select bank0
  2609  0740  0834               	movf	?___fldiv+2,w
  2610  0741  1683               	bsf	3,5	;RP0=1, select bank1
  2611  0742  1303               	bcf	3,6	;RP1=0, select bank1
  2612  0743  00C3               	movwf	(convert@x+2)^(0+128)
  2613  0744  1283               	bcf	3,5	;RP0=0, select bank0
  2614  0745  1303               	bcf	3,6	;RP1=0, select bank0
  2615  0746  0833               	movf	?___fldiv+1,w
  2616  0747  1683               	bsf	3,5	;RP0=1, select bank1
  2617  0748  1303               	bcf	3,6	;RP1=0, select bank1
  2618  0749  00C2               	movwf	(convert@x+1)^(0+128)
  2619  074A  1283               	bcf	3,5	;RP0=0, select bank0
  2620  074B  1303               	bcf	3,6	;RP1=0, select bank0
  2621  074C  0832               	movf	?___fldiv,w
  2622  074D  1683               	bsf	3,5	;RP0=1, select bank1
  2623  074E  1303               	bcf	3,6	;RP1=0, select bank1
  2624  074F  00C1               	movwf	convert@x^(0+128)
  2625                           
  2626                           ;Librerias.c: 101:          a=a-((int)x*mu);
  2627  0750  084A               	movf	(convert@mu+1)^(0+128),w
  2628  0751  1283               	bcf	3,5	;RP0=0, select bank0
  2629  0752  1303               	bcf	3,6	;RP1=0, select bank0
  2630  0753  00A3               	movwf	___wmul@multiplicand+1
  2631  0754  1683               	bsf	3,5	;RP0=1, select bank1
  2632  0755  1303               	bcf	3,6	;RP1=0, select bank1
  2633  0756  0849               	movf	convert@mu^(0+128),w
  2634  0757  1283               	bcf	3,5	;RP0=0, select bank0
  2635  0758  1303               	bcf	3,6	;RP1=0, select bank0
  2636  0759  00A2               	movwf	___wmul@multiplicand
  2637  075A  1683               	bsf	3,5	;RP0=1, select bank1
  2638  075B  1303               	bcf	3,6	;RP1=0, select bank1
  2639  075C  0844               	movf	(convert@x+3)^(0+128),w
  2640  075D  00F3               	movwf	___fltol@f1+3
  2641  075E  0843               	movf	(convert@x+2)^(0+128),w
  2642  075F  00F2               	movwf	___fltol@f1+2
  2643  0760  0842               	movf	(convert@x+1)^(0+128),w
  2644  0761  00F1               	movwf	___fltol@f1+1
  2645  0762  0841               	movf	convert@x^(0+128),w
  2646  0763  00F0               	movwf	___fltol@f1
  2647  0764  120A  158A  2021  120A  118A  	fcall	___fltol
  2648  0769  0871               	movf	?___fltol+1,w
  2649  076A  1283               	bcf	3,5	;RP0=0, select bank0
  2650  076B  1303               	bcf	3,6	;RP1=0, select bank0
  2651  076C  00A1               	movwf	___wmul@multiplier+1
  2652  076D  0870               	movf	?___fltol,w
  2653  076E  00A0               	movwf	___wmul@multiplier
  2654  076F  160A  118A  26F0  120A  118A  	fcall	___wmul
  2655  0774  1283               	bcf	3,5	;RP0=0, select bank0
  2656  0775  1303               	bcf	3,6	;RP1=0, select bank0
  2657  0776  0820               	movf	?___wmul,w
  2658  0777  00A4               	movwf	___xxtofl@val
  2659  0778  0821               	movf	?___wmul+1,w
  2660  0779  00A5               	movwf	___xxtofl@val+1
  2661  077A  3000               	movlw	0
  2662  077B  1BA5               	btfsc	___xxtofl@val+1,7
  2663  077C  30FF               	movlw	255
  2664  077D  00A6               	movwf	___xxtofl@val+2
  2665  077E  00A7               	movwf	___xxtofl@val+3
  2666  077F  3001               	movlw	1
  2667  0780  120A  158A  213D  120A  118A  	fcall	___xxtofl
  2668  0785  1283               	bcf	3,5	;RP0=0, select bank0
  2669  0786  1303               	bcf	3,6	;RP1=0, select bank0
  2670  0787  0827               	movf	?___xxtofl+3,w
  2671  0788  00B5               	movwf	___flsub@a+3
  2672  0789  0826               	movf	?___xxtofl+2,w
  2673  078A  00B4               	movwf	___flsub@a+2
  2674  078B  0825               	movf	?___xxtofl+1,w
  2675  078C  00B3               	movwf	___flsub@a+1
  2676  078D  0824               	movf	?___xxtofl,w
  2677  078E  00B2               	movwf	___flsub@a
  2678  078F  0869               	movf	convert@a+3,w
  2679  0790  00B9               	movwf	___flsub@b+3
  2680  0791  0868               	movf	convert@a+2,w
  2681  0792  00B8               	movwf	___flsub@b+2
  2682  0793  0867               	movf	convert@a+1,w
  2683  0794  00B7               	movwf	___flsub@b+1
  2684  0795  0866               	movf	convert@a,w
  2685  0796  00B6               	movwf	___flsub@b
  2686  0797  160A  118A  26A5  120A  118A  	fcall	___flsub
  2687  079C  1283               	bcf	3,5	;RP0=0, select bank0
  2688  079D  1303               	bcf	3,6	;RP1=0, select bank0
  2689  079E  0835               	movf	?___flsub+3,w
  2690  079F  00E9               	movwf	convert@a+3
  2691  07A0  0834               	movf	?___flsub+2,w
  2692  07A1  00E8               	movwf	convert@a+2
  2693  07A2  0833               	movf	?___flsub+1,w
  2694  07A3  00E7               	movwf	convert@a+1
  2695  07A4  0832               	movf	?___flsub,w
  2696  07A5  00E6               	movwf	convert@a
  2697  07A6                     l2524:
  2698                           
  2699                           ;Librerias.c: 102:          data[i]=0x30+((int)x);
  2700  07A6  1683               	bsf	3,5	;RP0=1, select bank1
  2701  07A7  1303               	bcf	3,6	;RP1=0, select bank1
  2702  07A8  0844               	movf	(convert@x+3)^(0+128),w
  2703  07A9  00F3               	movwf	___fltol@f1+3
  2704  07AA  0843               	movf	(convert@x+2)^(0+128),w
  2705  07AB  00F2               	movwf	___fltol@f1+2
  2706  07AC  0842               	movf	(convert@x+1)^(0+128),w
  2707  07AD  00F1               	movwf	___fltol@f1+1
  2708  07AE  0841               	movf	convert@x^(0+128),w
  2709  07AF  00F0               	movwf	___fltol@f1
  2710  07B0  120A  158A  2021  120A  118A  	fcall	___fltol
  2711  07B5  0870               	movf	?___fltol,w
  2712  07B6  3E30               	addlw	48
  2713  07B7  1283               	bcf	3,5	;RP0=0, select bank0
  2714  07B8  1303               	bcf	3,6	;RP1=0, select bank0
  2715  07B9  00EC               	movwf	??_convert
  2716  07BA  1683               	bsf	3,5	;RP0=1, select bank1
  2717  07BB  1303               	bcf	3,6	;RP1=0, select bank1
  2718  07BC  0845               	movf	convert@i^(0+128),w
  2719  07BD  0740               	addwf	convert@data^(0+128),w
  2720  07BE  1283               	bcf	3,5	;RP0=0, select bank0
  2721  07BF  1303               	bcf	3,6	;RP1=0, select bank0
  2722  07C0  00ED               	movwf	??_convert+1
  2723  07C1  086D               	movf	??_convert+1,w
  2724  07C2  0084               	movwf	4
  2725  07C3  086C               	movf	??_convert,w
  2726  07C4  1383               	bcf	3,7	;select IRP bank0
  2727  07C5  0080               	movwf	0
  2728  07C6                     l2526:
  2729                           
  2730                           ;Librerias.c: 103:          i++;
  2731  07C6  3001               	movlw	1
  2732  07C7  1683               	bsf	3,5	;RP0=1, select bank1
  2733  07C8  1303               	bcf	3,6	;RP1=0, select bank1
  2734  07C9  07C5               	addwf	convert@i^(0+128),f
  2735  07CA  1803               	skipnc
  2736  07CB  0AC6               	incf	(convert@i+1)^(0+128),f
  2737  07CC  3000               	movlw	0
  2738  07CD  07C6               	addwf	(convert@i+1)^(0+128),f
  2739  07CE                     l2528:
  2740                           
  2741                           ;Librerias.c: 104:          digits--;
  2742  07CE  30FF               	movlw	255
  2743  07CF  07C7               	addwf	convert@digits^(0+128),f
  2744  07D0  1803               	skipnc
  2745  07D1  0AC8               	incf	(convert@digits+1)^(0+128),f
  2746  07D2  30FF               	movlw	255
  2747  07D3  07C8               	addwf	(convert@digits+1)^(0+128),f
  2748  07D4                     l2530:
  2749                           
  2750                           ;Librerias.c: 105:          mu=1;
  2751  07D4  3001               	movlw	1
  2752  07D5  00C9               	movwf	convert@mu^(0+128)
  2753  07D6  3000               	movlw	0
  2754  07D7  00CA               	movwf	(convert@mu^(0+128)+1)
  2755  07D8                     l2532:
  2756                           
  2757                           ;Librerias.c: 95:      while(digits!=0)
  2758  07D8  0847               	movf	convert@digits^(0+128),w
  2759  07D9  0448               	iorwf	(convert@digits+1)^(0+128),w
  2760  07DA  1D03               	btfss	3,2
  2761  07DB  2FDD               	goto	u3481
  2762  07DC  2FDE               	goto	u3480
  2763  07DD                     u3481:
  2764  07DD  2EBD               	goto	l2510
  2765  07DE                     u3480:
  2766  07DE                     l2534:
  2767                           
  2768                           ;Librerias.c: 108:     data[i]='\n';
  2769  07DE  300A               	movlw	10
  2770  07DF  1283               	bcf	3,5	;RP0=0, select bank0
  2771  07E0  1303               	bcf	3,6	;RP1=0, select bank0
  2772  07E1  00EC               	movwf	??_convert
  2773  07E2  1683               	bsf	3,5	;RP0=1, select bank1
  2774  07E3  1303               	bcf	3,6	;RP1=0, select bank1
  2775  07E4  0845               	movf	convert@i^(0+128),w
  2776  07E5  0740               	addwf	convert@data^(0+128),w
  2777  07E6  1283               	bcf	3,5	;RP0=0, select bank0
  2778  07E7  1303               	bcf	3,6	;RP1=0, select bank0
  2779  07E8  00ED               	movwf	??_convert+1
  2780  07E9  086D               	movf	??_convert+1,w
  2781  07EA  0084               	movwf	4
  2782  07EB  086C               	movf	??_convert,w
  2783  07EC  1383               	bcf	3,7	;select IRP bank0
  2784  07ED  0080               	movwf	0
  2785  07EE                     l140:
  2786  07EE  0008               	return
  2787  07EF                     __end_of_convert:
  2788                           
  2789                           	psect	text7
  2790  093D                     __ptext7:	
  2791 ;; *************** function ___xxtofl *****************
  2792 ;; Defined at:
  2793 ;;		line 10 in file "C:\Program Files\Microchip\xc8\v2.31\pic\sources\c90\common\xxtofl.c"
  2794 ;; Parameters:    Size  Location     Type
  2795 ;;  sign            1    wreg     unsigned char 
  2796 ;;  val             4    4[BANK0 ] long 
  2797 ;; Auto vars:     Size  Location     Type
  2798 ;;  sign            1   12[BANK0 ] unsigned char 
  2799 ;;  arg             4   14[BANK0 ] unsigned long 
  2800 ;;  exp             1   13[BANK0 ] unsigned char 
  2801 ;; Return value:  Size  Location     Type
  2802 ;;                  4    4[BANK0 ] unsigned char 
  2803 ;; Registers used:
  2804 ;;		wreg, status,2, status,0
  2805 ;; Tracked objects:
  2806 ;;		On entry : 0/0
  2807 ;;		On exit  : 0/0
  2808 ;;		Unchanged: 0/0
  2809 ;; Data sizes:     COMMON   BANK0   BANK1   BANK3   BANK2
  2810 ;;      Params:         0       4       0       0       0
  2811 ;;      Locals:         0       6       0       0       0
  2812 ;;      Temps:          0       4       0       0       0
  2813 ;;      Totals:         0      14       0       0       0
  2814 ;;Total ram usage:       14 bytes
  2815 ;; Hardware stack levels used:    1
  2816 ;; This function calls:
  2817 ;;		Nothing
  2818 ;; This function is called by:
  2819 ;;		_main
  2820 ;;		_convert
  2821 ;; This function uses a non-reentrant model
  2822 ;;
  2823                           
  2824                           
  2825                           ;psect for function ___xxtofl
  2826  093D                     ___xxtofl:
  2827                           
  2828                           ;incstack = 0
  2829                           ; Regs used in ___xxtofl: [wreg+status,2+status,0]
  2830                           ;___xxtofl@sign stored from wreg
  2831  093D  1283               	bcf	3,5	;RP0=0, select bank0
  2832  093E  1303               	bcf	3,6	;RP1=0, select bank0
  2833  093F  00AC               	movwf	___xxtofl@sign
  2834  0940                     l2348:
  2835  0940  082C               	movf	___xxtofl@sign,w
  2836  0941  1903               	btfsc	3,2
  2837  0942  2944               	goto	u3261
  2838  0943  2945               	goto	u3260
  2839  0944                     u3261:
  2840  0944  2959               	goto	l2354
  2841  0945                     u3260:
  2842  0945                     l2350:
  2843  0945  1FA7               	btfss	___xxtofl@val+3,7
  2844  0946  2948               	goto	u3271
  2845  0947  2949               	goto	u3270
  2846  0948                     u3271:
  2847  0948  2959               	goto	l2354
  2848  0949                     u3270:
  2849  0949                     l2352:
  2850  0949  0924               	comf	___xxtofl@val,w
  2851  094A  00AE               	movwf	___xxtofl@arg
  2852  094B  0925               	comf	___xxtofl@val+1,w
  2853  094C  00AF               	movwf	___xxtofl@arg+1
  2854  094D  0926               	comf	___xxtofl@val+2,w
  2855  094E  00B0               	movwf	___xxtofl@arg+2
  2856  094F  0927               	comf	___xxtofl@val+3,w
  2857  0950  00B1               	movwf	___xxtofl@arg+3
  2858  0951  0AAE               	incf	___xxtofl@arg,f
  2859  0952  1903               	skipnz
  2860  0953  0AAF               	incf	___xxtofl@arg+1,f
  2861  0954  1903               	skipnz
  2862  0955  0AB0               	incf	___xxtofl@arg+2,f
  2863  0956  1903               	skipnz
  2864  0957  0AB1               	incf	___xxtofl@arg+3,f
  2865  0958  2961               	goto	l675
  2866  0959                     l2354:
  2867  0959  0827               	movf	___xxtofl@val+3,w
  2868  095A  00B1               	movwf	___xxtofl@arg+3
  2869  095B  0826               	movf	___xxtofl@val+2,w
  2870  095C  00B0               	movwf	___xxtofl@arg+2
  2871  095D  0825               	movf	___xxtofl@val+1,w
  2872  095E  00AF               	movwf	___xxtofl@arg+1
  2873  095F  0824               	movf	___xxtofl@val,w
  2874  0960  00AE               	movwf	___xxtofl@arg
  2875  0961                     l675:
  2876  0961  0827               	movf	___xxtofl@val+3,w
  2877  0962  0426               	iorwf	___xxtofl@val+2,w
  2878  0963  0425               	iorwf	___xxtofl@val+1,w
  2879  0964  0424               	iorwf	___xxtofl@val,w
  2880  0965  1D03               	skipz
  2881  0966  2968               	goto	u3281
  2882  0967  2969               	goto	u3280
  2883  0968                     u3281:
  2884  0968  2972               	goto	l2360
  2885  0969                     u3280:
  2886  0969                     l2356:
  2887  0969  3000               	movlw	0
  2888  096A  00A7               	movwf	?___xxtofl+3
  2889  096B  3000               	movlw	0
  2890  096C  00A6               	movwf	?___xxtofl+2
  2891  096D  3000               	movlw	0
  2892  096E  00A5               	movwf	?___xxtofl+1
  2893  096F  3000               	movlw	0
  2894  0970  00A4               	movwf	?___xxtofl
  2895  0971  29F8               	goto	l677
  2896  0972                     l2360:
  2897  0972  3096               	movlw	150
  2898  0973  00A8               	movwf	??___xxtofl
  2899  0974  0828               	movf	??___xxtofl,w
  2900  0975  00AD               	movwf	___xxtofl@exp
  2901  0976  2984               	goto	l2364
  2902  0977                     l2362:
  2903  0977  3001               	movlw	1
  2904  0978  00A8               	movwf	??___xxtofl
  2905  0979  0828               	movf	??___xxtofl,w
  2906  097A  07AD               	addwf	___xxtofl@exp,f
  2907  097B  3001               	movlw	1
  2908  097C                     u3295:
  2909  097C  1003               	clrc
  2910  097D  0CB1               	rrf	___xxtofl@arg+3,f
  2911  097E  0CB0               	rrf	___xxtofl@arg+2,f
  2912  097F  0CAF               	rrf	___xxtofl@arg+1,f
  2913  0980  0CAE               	rrf	___xxtofl@arg,f
  2914  0981  3EFF               	addlw	-1
  2915  0982  1D03               	skipz
  2916  0983  297C               	goto	u3295
  2917  0984                     l2364:
  2918  0984  30FE               	movlw	254
  2919  0985  0531               	andwf	___xxtofl@arg+3,w
  2920  0986  1D03               	btfss	3,2
  2921  0987  2989               	goto	u3301
  2922  0988  298A               	goto	u3300
  2923  0989                     u3301:
  2924  0989  2977               	goto	l2362
  2925  098A                     u3300:
  2926  098A  29A6               	goto	l681
  2927  098B                     l2366:
  2928  098B  3001               	movlw	1
  2929  098C  00A8               	movwf	??___xxtofl
  2930  098D  0828               	movf	??___xxtofl,w
  2931  098E  07AD               	addwf	___xxtofl@exp,f
  2932  098F                     l2368:
  2933  098F  3001               	movlw	1
  2934  0990  07AE               	addwf	___xxtofl@arg,f
  2935  0991  3000               	movlw	0
  2936  0992  1803               	skipnc
  2937  0993  3001               	movlw	1
  2938  0994  07AF               	addwf	___xxtofl@arg+1,f
  2939  0995  3000               	movlw	0
  2940  0996  1803               	skipnc
  2941  0997  3001               	movlw	1
  2942  0998  07B0               	addwf	___xxtofl@arg+2,f
  2943  0999  3000               	movlw	0
  2944  099A  1803               	skipnc
  2945  099B  3001               	movlw	1
  2946  099C  07B1               	addwf	___xxtofl@arg+3,f
  2947  099D                     l2370:
  2948  099D  3001               	movlw	1
  2949  099E                     u3315:
  2950  099E  1003               	clrc
  2951  099F  0CB1               	rrf	___xxtofl@arg+3,f
  2952  09A0  0CB0               	rrf	___xxtofl@arg+2,f
  2953  09A1  0CAF               	rrf	___xxtofl@arg+1,f
  2954  09A2  0CAE               	rrf	___xxtofl@arg,f
  2955  09A3  3EFF               	addlw	-1
  2956  09A4  1D03               	skipz
  2957  09A5  299E               	goto	u3315
  2958  09A6                     l681:
  2959  09A6  30FF               	movlw	255
  2960  09A7  0531               	andwf	___xxtofl@arg+3,w
  2961  09A8  1D03               	btfss	3,2
  2962  09A9  29AB               	goto	u3321
  2963  09AA  29AC               	goto	u3320
  2964  09AB                     u3321:
  2965  09AB  298B               	goto	l2366
  2966  09AC                     u3320:
  2967  09AC  29B8               	goto	l2374
  2968  09AD                     l2372:
  2969  09AD  3001               	movlw	1
  2970  09AE  02AD               	subwf	___xxtofl@exp,f
  2971  09AF  3001               	movlw	1
  2972  09B0  00A8               	movwf	??___xxtofl
  2973  09B1                     u3335:
  2974  09B1  1003               	clrc
  2975  09B2  0DAE               	rlf	___xxtofl@arg,f
  2976  09B3  0DAF               	rlf	___xxtofl@arg+1,f
  2977  09B4  0DB0               	rlf	___xxtofl@arg+2,f
  2978  09B5  0DB1               	rlf	___xxtofl@arg+3,f
  2979  09B6  0BA8               	decfsz	??___xxtofl,f
  2980  09B7  29B1               	goto	u3335
  2981  09B8                     l2374:
  2982  09B8  1BB0               	btfsc	___xxtofl@arg+2,7
  2983  09B9  29BB               	goto	u3341
  2984  09BA  29BC               	goto	u3340
  2985  09BB                     u3341:
  2986  09BB  29C2               	goto	l688
  2987  09BC                     u3340:
  2988  09BC                     l2376:
  2989  09BC  3002               	movlw	2
  2990  09BD  022D               	subwf	___xxtofl@exp,w
  2991  09BE  1803               	skipnc
  2992  09BF  29C1               	goto	u3351
  2993  09C0  29C2               	goto	u3350
  2994  09C1                     u3351:
  2995  09C1  29AD               	goto	l2372
  2996  09C2                     u3350:
  2997  09C2                     l688:
  2998  09C2  182D               	btfsc	___xxtofl@exp,0
  2999  09C3  29C5               	goto	u3361
  3000  09C4  29C6               	goto	u3360
  3001  09C5                     u3361:
  3002  09C5  29CE               	goto	l689
  3003  09C6                     u3360:
  3004  09C6                     l2378:
  3005  09C6  30FF               	movlw	255
  3006  09C7  05AE               	andwf	___xxtofl@arg,f
  3007  09C8  30FF               	movlw	255
  3008  09C9  05AF               	andwf	___xxtofl@arg+1,f
  3009  09CA  307F               	movlw	127
  3010  09CB  05B0               	andwf	___xxtofl@arg+2,f
  3011  09CC  30FF               	movlw	255
  3012  09CD  05B1               	andwf	___xxtofl@arg+3,f
  3013  09CE                     l689:
  3014  09CE  1003               	clrc
  3015  09CF  0CAD               	rrf	___xxtofl@exp,f
  3016  09D0                     l2380:
  3017  09D0  082D               	movf	___xxtofl@exp,w
  3018  09D1  00A8               	movwf	??___xxtofl
  3019  09D2  01A9               	clrf	??___xxtofl+1
  3020  09D3  01AA               	clrf	??___xxtofl+2
  3021  09D4  01AB               	clrf	??___xxtofl+3
  3022  09D5  3018               	movlw	24
  3023  09D6                     u3375:
  3024  09D6  1003               	clrc
  3025  09D7  0DA8               	rlf	??___xxtofl,f
  3026  09D8  0DA9               	rlf	??___xxtofl+1,f
  3027  09D9  0DAA               	rlf	??___xxtofl+2,f
  3028  09DA  0DAB               	rlf	??___xxtofl+3,f
  3029  09DB                     u3370:
  3030  09DB  3EFF               	addlw	-1
  3031  09DC  1D03               	skipz
  3032  09DD  29D6               	goto	u3375
  3033  09DE  0828               	movf	??___xxtofl,w
  3034  09DF  04AE               	iorwf	___xxtofl@arg,f
  3035  09E0  0829               	movf	??___xxtofl+1,w
  3036  09E1  04AF               	iorwf	___xxtofl@arg+1,f
  3037  09E2  082A               	movf	??___xxtofl+2,w
  3038  09E3  04B0               	iorwf	___xxtofl@arg+2,f
  3039  09E4  082B               	movf	??___xxtofl+3,w
  3040  09E5  04B1               	iorwf	___xxtofl@arg+3,f
  3041  09E6                     l2382:
  3042  09E6  082C               	movf	___xxtofl@sign,w
  3043  09E7  1903               	btfsc	3,2
  3044  09E8  29EA               	goto	u3381
  3045  09E9  29EB               	goto	u3380
  3046  09EA                     u3381:
  3047  09EA  29F0               	goto	l2388
  3048  09EB                     u3380:
  3049  09EB                     l2384:
  3050  09EB  1FA7               	btfss	___xxtofl@val+3,7
  3051  09EC  29EE               	goto	u3391
  3052  09ED  29EF               	goto	u3390
  3053  09EE                     u3391:
  3054  09EE  29F0               	goto	l2388
  3055  09EF                     u3390:
  3056  09EF                     l2386:
  3057  09EF  17B1               	bsf	___xxtofl@arg+3,7
  3058  09F0                     l2388:
  3059  09F0  0831               	movf	___xxtofl@arg+3,w
  3060  09F1  00A7               	movwf	?___xxtofl+3
  3061  09F2  0830               	movf	___xxtofl@arg+2,w
  3062  09F3  00A6               	movwf	?___xxtofl+2
  3063  09F4  082F               	movf	___xxtofl@arg+1,w
  3064  09F5  00A5               	movwf	?___xxtofl+1
  3065  09F6  082E               	movf	___xxtofl@arg,w
  3066  09F7  00A4               	movwf	?___xxtofl
  3067  09F8                     l677:
  3068  09F8  0008               	return
  3069  09F9                     __end_of___xxtofl:
  3070                           
  3071                           	psect	text8
  3072  16F0                     __ptext8:	
  3073 ;; *************** function ___wmul *****************
  3074 ;; Defined at:
  3075 ;;		line 15 in file "C:\Program Files\Microchip\xc8\v2.31\pic\sources\c90\common\Umul16.c"
  3076 ;; Parameters:    Size  Location     Type
  3077 ;;  multiplier      2    0[BANK0 ] unsigned int 
  3078 ;;  multiplicand    2    2[BANK0 ] unsigned int 
  3079 ;; Auto vars:     Size  Location     Type
  3080 ;;  product         2   11[COMMON] unsigned int 
  3081 ;; Return value:  Size  Location     Type
  3082 ;;                  2    0[BANK0 ] unsigned int 
  3083 ;; Registers used:
  3084 ;;		wreg, status,2, status,0
  3085 ;; Tracked objects:
  3086 ;;		On entry : 0/0
  3087 ;;		On exit  : 0/0
  3088 ;;		Unchanged: 0/0
  3089 ;; Data sizes:     COMMON   BANK0   BANK1   BANK3   BANK2
  3090 ;;      Params:         0       4       0       0       0
  3091 ;;      Locals:         2       0       0       0       0
  3092 ;;      Temps:          0       0       0       0       0
  3093 ;;      Totals:         2       4       0       0       0
  3094 ;;Total ram usage:        6 bytes
  3095 ;; Hardware stack levels used:    1
  3096 ;; This function calls:
  3097 ;;		Nothing
  3098 ;; This function is called by:
  3099 ;;		_convert
  3100 ;; This function uses a non-reentrant model
  3101 ;;
  3102                           
  3103                           
  3104                           ;psect for function ___wmul
  3105  16F0                     ___wmul:
  3106  16F0                     l1946:	
  3107                           ;incstack = 0
  3108                           ; Regs used in ___wmul: [wreg+status,2+status,0]
  3109                           
  3110  16F0  01FB               	clrf	___wmul@product
  3111  16F1  01FC               	clrf	___wmul@product+1
  3112  16F2                     l1948:
  3113  16F2  1283               	bcf	3,5	;RP0=0, select bank0
  3114  16F3  1303               	bcf	3,6	;RP1=0, select bank0
  3115  16F4  1C20               	btfss	___wmul@multiplier,0
  3116  16F5  2EF7               	goto	u2291
  3117  16F6  2EF8               	goto	u2290
  3118  16F7                     u2291:
  3119  16F7  2EFE               	goto	l242
  3120  16F8                     u2290:
  3121  16F8                     l1950:
  3122  16F8  0822               	movf	___wmul@multiplicand,w
  3123  16F9  07FB               	addwf	___wmul@product,f
  3124  16FA  1803               	skipnc
  3125  16FB  0AFC               	incf	___wmul@product+1,f
  3126  16FC  0823               	movf	___wmul@multiplicand+1,w
  3127  16FD  07FC               	addwf	___wmul@product+1,f
  3128  16FE                     l242:
  3129  16FE  3001               	movlw	1
  3130  16FF                     u2305:
  3131  16FF  1003               	clrc
  3132  1700  0DA2               	rlf	___wmul@multiplicand,f
  3133  1701  0DA3               	rlf	___wmul@multiplicand+1,f
  3134  1702  3EFF               	addlw	-1
  3135  1703  1D03               	skipz
  3136  1704  2EFF               	goto	u2305
  3137  1705                     l1952:
  3138  1705  3001               	movlw	1
  3139  1706                     u2315:
  3140  1706  1003               	clrc
  3141  1707  0CA1               	rrf	___wmul@multiplier+1,f
  3142  1708  0CA0               	rrf	___wmul@multiplier,f
  3143  1709  3EFF               	addlw	-1
  3144  170A  1D03               	skipz
  3145  170B  2F06               	goto	u2315
  3146  170C                     l1954:
  3147  170C  0820               	movf	___wmul@multiplier,w
  3148  170D  0421               	iorwf	___wmul@multiplier+1,w
  3149  170E  1D03               	btfss	3,2
  3150  170F  2F11               	goto	u2321
  3151  1710  2F12               	goto	u2320
  3152  1711                     u2321:
  3153  1711  2EF2               	goto	l1948
  3154  1712                     u2320:
  3155  1712                     l1956:
  3156  1712  087C               	movf	___wmul@product+1,w
  3157  1713  00A1               	movwf	?___wmul+1
  3158  1714  087B               	movf	___wmul@product,w
  3159  1715  00A0               	movwf	?___wmul
  3160  1716                     l244:
  3161  1716  0008               	return
  3162  1717                     __end_of___wmul:
  3163                           
  3164                           	psect	text9
  3165  0821                     __ptext9:	
  3166 ;; *************** function ___fltol *****************
  3167 ;; Defined at:
  3168 ;;		line 43 in file "C:\Program Files\Microchip\xc8\v2.31\pic\sources\c90\common\fltol.c"
  3169 ;; Parameters:    Size  Location     Type
  3170 ;;  f1              4    0[COMMON] unsigned int 
  3171 ;; Auto vars:     Size  Location     Type
  3172 ;;  exp1            1   10[COMMON] unsigned char 
  3173 ;;  sign1           1    9[COMMON] unsigned char 
  3174 ;; Return value:  Size  Location     Type
  3175 ;;                  4    0[COMMON] long 
  3176 ;; Registers used:
  3177 ;;		wreg, status,2, status,0
  3178 ;; Tracked objects:
  3179 ;;		On entry : 0/0
  3180 ;;		On exit  : 0/0
  3181 ;;		Unchanged: 0/0
  3182 ;; Data sizes:     COMMON   BANK0   BANK1   BANK3   BANK2
  3183 ;;      Params:         4       0       0       0       0
  3184 ;;      Locals:         2       0       0       0       0
  3185 ;;      Temps:          5       0       0       0       0
  3186 ;;      Totals:        11       0       0       0       0
  3187 ;;Total ram usage:       11 bytes
  3188 ;; Hardware stack levels used:    1
  3189 ;; This function calls:
  3190 ;;		Nothing
  3191 ;; This function is called by:
  3192 ;;		_convert
  3193 ;; This function uses a non-reentrant model
  3194 ;;
  3195                           
  3196                           
  3197                           ;psect for function ___fltol
  3198  0821                     ___fltol:
  3199  0821                     l2024:	
  3200                           ;incstack = 0
  3201                           ; Regs used in ___fltol: [wreg+status,2+status,0]
  3202                           
  3203  0821  1003               	clrc
  3204  0822  0D72               	rlf	___fltol@f1+2,w
  3205  0823  0D73               	rlf	___fltol@f1+3,w
  3206  0824  00F4               	movwf	??___fltol
  3207  0825  0874               	movf	??___fltol,w
  3208  0826  00FA               	movwf	___fltol@exp1
  3209  0827  087A               	movf	___fltol@exp1,w
  3210  0828  1D03               	btfss	3,2
  3211  0829  282B               	goto	u2501
  3212  082A  282C               	goto	u2500
  3213  082B                     u2501:
  3214  082B  2835               	goto	l2030
  3215  082C                     u2500:
  3216  082C                     l2026:
  3217  082C  3000               	movlw	0
  3218  082D  00F3               	movwf	?___fltol+3
  3219  082E  3000               	movlw	0
  3220  082F  00F2               	movwf	?___fltol+2
  3221  0830  3000               	movlw	0
  3222  0831  00F1               	movwf	?___fltol+1
  3223  0832  3000               	movlw	0
  3224  0833  00F0               	movwf	?___fltol
  3225  0834  289A               	goto	l428
  3226  0835                     l2030:
  3227  0835  0870               	movf	___fltol@f1,w
  3228  0836  00F4               	movwf	??___fltol
  3229  0837  0871               	movf	___fltol@f1+1,w
  3230  0838  00F5               	movwf	??___fltol+1
  3231  0839  0872               	movf	___fltol@f1+2,w
  3232  083A  00F6               	movwf	??___fltol+2
  3233  083B  0873               	movf	___fltol@f1+3,w
  3234  083C  00F7               	movwf	??___fltol+3
  3235  083D  301F               	movlw	31
  3236  083E                     u2515:
  3237  083E  1003               	clrc
  3238  083F  0CF7               	rrf	??___fltol+3,f
  3239  0840  0CF6               	rrf	??___fltol+2,f
  3240  0841  0CF5               	rrf	??___fltol+1,f
  3241  0842  0CF4               	rrf	??___fltol,f
  3242  0843                     u2510:
  3243  0843  3EFF               	addlw	-1
  3244  0844  1D03               	skipz
  3245  0845  283E               	goto	u2515
  3246  0846  0874               	movf	??___fltol,w
  3247  0847  00F8               	movwf	??___fltol+4
  3248  0848  0878               	movf	??___fltol+4,w
  3249  0849  00F9               	movwf	___fltol@sign1
  3250  084A                     l2032:
  3251  084A  17F2               	bsf	___fltol@f1+2,7
  3252  084B                     l2034:
  3253  084B  30FF               	movlw	255
  3254  084C  05F0               	andwf	___fltol@f1,f
  3255  084D  30FF               	movlw	255
  3256  084E  05F1               	andwf	___fltol@f1+1,f
  3257  084F  30FF               	movlw	255
  3258  0850  05F2               	andwf	___fltol@f1+2,f
  3259  0851  3000               	movlw	0
  3260  0852  05F3               	andwf	___fltol@f1+3,f
  3261  0853                     l2036:
  3262  0853  3096               	movlw	150
  3263  0854  02FA               	subwf	___fltol@exp1,f
  3264  0855                     l2038:
  3265  0855  1FFA               	btfss	___fltol@exp1,7
  3266  0856  2858               	goto	u2521
  3267  0857  2859               	goto	u2520
  3268  0858                     u2521:
  3269  0858  2873               	goto	l2048
  3270  0859                     u2520:
  3271  0859                     l2040:
  3272  0859  087A               	movf	___fltol@exp1,w
  3273  085A  3A80               	xorlw	128
  3274  085B  3E97               	addlw	151
  3275  085C  1803               	skipnc
  3276  085D  285F               	goto	u2531
  3277  085E  2860               	goto	u2530
  3278  085F                     u2531:
  3279  085F  2861               	goto	l2046
  3280  0860                     u2530:
  3281  0860  282C               	goto	l2026
  3282  0861                     l2046:
  3283  0861  3001               	movlw	1
  3284  0862                     u2545:
  3285  0862  1003               	clrc
  3286  0863  0CF3               	rrf	___fltol@f1+3,f
  3287  0864  0CF2               	rrf	___fltol@f1+2,f
  3288  0865  0CF1               	rrf	___fltol@f1+1,f
  3289  0866  0CF0               	rrf	___fltol@f1,f
  3290  0867  3EFF               	addlw	-1
  3291  0868  1D03               	skipz
  3292  0869  2862               	goto	u2545
  3293  086A  3001               	movlw	1
  3294  086B  00F4               	movwf	??___fltol
  3295  086C  0874               	movf	??___fltol,w
  3296  086D  07FA               	addwf	___fltol@exp1,f
  3297  086E  1D03               	btfss	3,2
  3298  086F  2871               	goto	u2551
  3299  0870  2872               	goto	u2550
  3300  0871                     u2551:
  3301  0871  2861               	goto	l2046
  3302  0872                     u2550:
  3303  0872  288A               	goto	l2056
  3304  0873                     l2048:
  3305  0873  3020               	movlw	32
  3306  0874  027A               	subwf	___fltol@exp1,w
  3307  0875  1C03               	skipc
  3308  0876  2878               	goto	u2561
  3309  0877  2879               	goto	u2560
  3310  0878                     u2561:
  3311  0878  2885               	goto	l435
  3312  0879                     u2560:
  3313  0879  282C               	goto	l2026
  3314  087A                     l2054:
  3315  087A  3001               	movlw	1
  3316  087B  00F4               	movwf	??___fltol
  3317  087C                     u2575:
  3318  087C  1003               	clrc
  3319  087D  0DF0               	rlf	___fltol@f1,f
  3320  087E  0DF1               	rlf	___fltol@f1+1,f
  3321  087F  0DF2               	rlf	___fltol@f1+2,f
  3322  0880  0DF3               	rlf	___fltol@f1+3,f
  3323  0881  0BF4               	decfsz	??___fltol,f
  3324  0882  287C               	goto	u2575
  3325  0883  3001               	movlw	1
  3326  0884  02FA               	subwf	___fltol@exp1,f
  3327  0885                     l435:
  3328  0885  087A               	movf	___fltol@exp1,w
  3329  0886  1D03               	btfss	3,2
  3330  0887  2889               	goto	u2581
  3331  0888  288A               	goto	u2580
  3332  0889                     u2581:
  3333  0889  287A               	goto	l2054
  3334  088A                     u2580:
  3335  088A                     l2056:
  3336  088A  0879               	movf	___fltol@sign1,w
  3337  088B  1903               	btfsc	3,2
  3338  088C  288E               	goto	u2591
  3339  088D  288F               	goto	u2590
  3340  088E                     u2591:
  3341  088E  289A               	goto	l438
  3342  088F                     u2590:
  3343  088F                     l2058:
  3344  088F  09F0               	comf	___fltol@f1,f
  3345  0890  09F1               	comf	___fltol@f1+1,f
  3346  0891  09F2               	comf	___fltol@f1+2,f
  3347  0892  09F3               	comf	___fltol@f1+3,f
  3348  0893  0AF0               	incf	___fltol@f1,f
  3349  0894  1903               	skipnz
  3350  0895  0AF1               	incf	___fltol@f1+1,f
  3351  0896  1903               	skipnz
  3352  0897  0AF2               	incf	___fltol@f1+2,f
  3353  0898  1903               	skipnz
  3354  0899  0AF3               	incf	___fltol@f1+3,f
  3355  089A                     l438:
  3356  089A                     l428:
  3357  089A  0008               	return
  3358  089B                     __end_of___fltol:
  3359                           
  3360                           	psect	text10
  3361  16A5                     __ptext10:	
  3362 ;; *************** function ___flsub *****************
  3363 ;; Defined at:
  3364 ;;		line 242 in file "C:\Program Files\Microchip\xc8\v2.31\pic\sources\c90\common\sprcadd.c"
  3365 ;; Parameters:    Size  Location     Type
  3366 ;;  a               4   18[BANK0 ] long 
  3367 ;;  b               4   22[BANK0 ] long 
  3368 ;; Auto vars:     Size  Location     Type
  3369 ;;		None
  3370 ;; Return value:  Size  Location     Type
  3371 ;;                  4   18[BANK0 ] long 
  3372 ;; Registers used:
  3373 ;;		wreg, status,2, status,0, btemp+1, pclath, cstack
  3374 ;; Tracked objects:
  3375 ;;		On entry : 0/0
  3376 ;;		On exit  : 0/0
  3377 ;;		Unchanged: 0/0
  3378 ;; Data sizes:     COMMON   BANK0   BANK1   BANK3   BANK2
  3379 ;;      Params:         0       8       0       0       0
  3380 ;;      Locals:         0       0       0       0       0
  3381 ;;      Temps:          0       0       0       0       0
  3382 ;;      Totals:         0       8       0       0       0
  3383 ;;Total ram usage:        8 bytes
  3384 ;; Hardware stack levels used:    1
  3385 ;; Hardware stack levels required when called:    1
  3386 ;; This function calls:
  3387 ;;		___fladd
  3388 ;; This function is called by:
  3389 ;;		_convert
  3390 ;; This function uses a non-reentrant model
  3391 ;;
  3392                           
  3393                           
  3394                           ;psect for function ___flsub
  3395  16A5                     ___flsub:
  3396  16A5                     l2060:	
  3397                           ;incstack = 0
  3398                           ; Regs used in ___flsub: [wreg+status,2+status,0+btemp+1+pclath+cstack]
  3399                           
  3400  16A5  3080               	movlw	128
  3401  16A6  1283               	bcf	3,5	;RP0=0, select bank0
  3402  16A7  1303               	bcf	3,6	;RP1=0, select bank0
  3403  16A8  06B5               	xorwf	___flsub@a+3,f
  3404  16A9                     l2062:
  3405  16A9  0839               	movf	___flsub@b+3,w
  3406  16AA  00F3               	movwf	___fladd@b+3
  3407  16AB  0838               	movf	___flsub@b+2,w
  3408  16AC  00F2               	movwf	___fladd@b+2
  3409  16AD  0837               	movf	___flsub@b+1,w
  3410  16AE  00F1               	movwf	___fladd@b+1
  3411  16AF  0836               	movf	___flsub@b,w
  3412  16B0  00F0               	movwf	___fladd@b
  3413  16B1  0835               	movf	___flsub@a+3,w
  3414  16B2  00F7               	movwf	___fladd@a+3
  3415  16B3  0834               	movf	___flsub@a+2,w
  3416  16B4  00F6               	movwf	___fladd@a+2
  3417  16B5  0833               	movf	___flsub@a+1,w
  3418  16B6  00F5               	movwf	___fladd@a+1
  3419  16B7  0832               	movf	___flsub@a,w
  3420  16B8  00F4               	movwf	___fladd@a
  3421  16B9  120A  158A  2568  160A  118A  	fcall	___fladd
  3422  16BE  0873               	movf	?___fladd+3,w
  3423  16BF  1283               	bcf	3,5	;RP0=0, select bank0
  3424  16C0  1303               	bcf	3,6	;RP1=0, select bank0
  3425  16C1  00B5               	movwf	?___flsub+3
  3426  16C2  0872               	movf	?___fladd+2,w
  3427  16C3  00B4               	movwf	?___flsub+2
  3428  16C4  0871               	movf	?___fladd+1,w
  3429  16C5  00B3               	movwf	?___flsub+1
  3430  16C6  0870               	movf	?___fladd,w
  3431  16C7  00B2               	movwf	?___flsub
  3432  16C8                     l581:
  3433  16C8  0008               	return
  3434  16C9                     __end_of___flsub:
  3435                           
  3436                           	psect	text11
  3437  0D68                     __ptext11:	
  3438 ;; *************** function ___fladd *****************
  3439 ;; Defined at:
  3440 ;;		line 10 in file "C:\Program Files\Microchip\xc8\v2.31\pic\sources\c90\common\sprcadd.c"
  3441 ;; Parameters:    Size  Location     Type
  3442 ;;  b               4    0[COMMON] long 
  3443 ;;  a               4    4[COMMON] long 
  3444 ;; Auto vars:     Size  Location     Type
  3445 ;;  grs             1   11[COMMON] unsigned char 
  3446 ;;  bexp            1   10[COMMON] unsigned char 
  3447 ;;  aexp            1    9[COMMON] unsigned char 
  3448 ;;  signs           1    8[COMMON] unsigned char 
  3449 ;; Return value:  Size  Location     Type
  3450 ;;                  4    0[COMMON] unsigned char 
  3451 ;; Registers used:
  3452 ;;		wreg, status,2, status,0, btemp+1
  3453 ;; Tracked objects:
  3454 ;;		On entry : 0/0
  3455 ;;		On exit  : 0/0
  3456 ;;		Unchanged: 0/0
  3457 ;; Data sizes:     COMMON   BANK0   BANK1   BANK3   BANK2
  3458 ;;      Params:         8       0       0       0       0
  3459 ;;      Locals:         4       0       0       0       0
  3460 ;;      Temps:          0       8       0       0       0
  3461 ;;      Totals:        12       8       0       0       0
  3462 ;;Total ram usage:       20 bytes
  3463 ;; Hardware stack levels used:    1
  3464 ;; This function calls:
  3465 ;;		Nothing
  3466 ;; This function is called by:
  3467 ;;		___flsub
  3468 ;; This function uses a non-reentrant model
  3469 ;;
  3470                           
  3471                           
  3472                           ;psect for function ___fladd
  3473  0D68                     ___fladd:
  3474  0D68                     l1704:	
  3475                           ;incstack = 0
  3476                           ; Regs used in ___fladd: [wreg+status,2+status,0+btemp+1]
  3477                           
  3478  0D68  0873               	movf	___fladd@b+3,w
  3479  0D69  3980               	andlw	128
  3480  0D6A  1283               	bcf	3,5	;RP0=0, select bank0
  3481  0D6B  1303               	bcf	3,6	;RP1=0, select bank0
  3482  0D6C  00A0               	movwf	??___fladd
  3483  0D6D  0820               	movf	??___fladd,w
  3484  0D6E  00F8               	movwf	___fladd@signs
  3485  0D6F                     l1706:
  3486  0D6F  0873               	movf	___fladd@b+3,w
  3487  0D70  00A0               	movwf	??___fladd
  3488  0D71  0720               	addwf	??___fladd,w
  3489  0D72  00A1               	movwf	??___fladd+1
  3490  0D73  0821               	movf	??___fladd+1,w
  3491  0D74  00FA               	movwf	___fladd@bexp
  3492  0D75                     l1708:
  3493  0D75  1FF2               	btfss	___fladd@b+2,7
  3494  0D76  2D78               	goto	u1761
  3495  0D77  2D79               	goto	u1760
  3496  0D78                     u1761:
  3497  0D78  2D7A               	goto	l1712
  3498  0D79                     u1760:
  3499  0D79                     l1710:
  3500  0D79  147A               	bsf	___fladd@bexp,0
  3501  0D7A                     l1712:
  3502  0D7A  087A               	movf	___fladd@bexp,w
  3503  0D7B  1903               	btfsc	3,2
  3504  0D7C  2D7E               	goto	u1771
  3505  0D7D  2D7F               	goto	u1770
  3506  0D7E                     u1771:
  3507  0D7E  2D8F               	goto	l1722
  3508  0D7F                     u1770:
  3509  0D7F                     l1714:
  3510  0D7F  0A7A               	incf	___fladd@bexp,w
  3511  0D80  1D03               	btfss	3,2
  3512  0D81  2D83               	goto	u1781
  3513  0D82  2D84               	goto	u1780
  3514  0D83                     u1781:
  3515  0D83  2D8C               	goto	l1718
  3516  0D84                     u1780:
  3517  0D84                     l1716:
  3518  0D84  3000               	movlw	0
  3519  0D85  00F3               	movwf	___fladd@b+3
  3520  0D86  3000               	movlw	0
  3521  0D87  00F2               	movwf	___fladd@b+2
  3522  0D88  3000               	movlw	0
  3523  0D89  00F1               	movwf	___fladd@b+1
  3524  0D8A  3000               	movlw	0
  3525  0D8B  00F0               	movwf	___fladd@b
  3526  0D8C                     l1718:
  3527  0D8C  17F2               	bsf	___fladd@b+2,7
  3528  0D8D                     l1720:
  3529  0D8D  01F3               	clrf	___fladd@b+3
  3530  0D8E  2D97               	goto	l1724
  3531  0D8F                     l1722:
  3532  0D8F  3000               	movlw	0
  3533  0D90  00F3               	movwf	___fladd@b+3
  3534  0D91  3000               	movlw	0
  3535  0D92  00F2               	movwf	___fladd@b+2
  3536  0D93  3000               	movlw	0
  3537  0D94  00F1               	movwf	___fladd@b+1
  3538  0D95  3000               	movlw	0
  3539  0D96  00F0               	movwf	___fladd@b
  3540  0D97                     l1724:
  3541  0D97  0877               	movf	___fladd@a+3,w
  3542  0D98  3980               	andlw	128
  3543  0D99  00A0               	movwf	??___fladd
  3544  0D9A  0820               	movf	??___fladd,w
  3545  0D9B  00F9               	movwf	___fladd@aexp
  3546  0D9C                     l1726:
  3547  0D9C  0879               	movf	___fladd@aexp,w
  3548  0D9D  0678               	xorwf	___fladd@signs,w
  3549  0D9E  1903               	skipnz
  3550  0D9F  2DA1               	goto	u1791
  3551  0DA0  2DA2               	goto	u1790
  3552  0DA1                     u1791:
  3553  0DA1  2DA3               	goto	l1730
  3554  0DA2                     u1790:
  3555  0DA2                     l1728:
  3556  0DA2  1778               	bsf	___fladd@signs,6
  3557  0DA3                     l1730:
  3558  0DA3  0877               	movf	___fladd@a+3,w
  3559  0DA4  00A0               	movwf	??___fladd
  3560  0DA5  0720               	addwf	??___fladd,w
  3561  0DA6  00A1               	movwf	??___fladd+1
  3562  0DA7  0821               	movf	??___fladd+1,w
  3563  0DA8  00F9               	movwf	___fladd@aexp
  3564  0DA9                     l1732:
  3565  0DA9  1FF6               	btfss	___fladd@a+2,7
  3566  0DAA  2DAC               	goto	u1801
  3567  0DAB  2DAD               	goto	u1800
  3568  0DAC                     u1801:
  3569  0DAC  2DAE               	goto	l1736
  3570  0DAD                     u1800:
  3571  0DAD                     l1734:
  3572  0DAD  1479               	bsf	___fladd@aexp,0
  3573  0DAE                     l1736:
  3574  0DAE  0879               	movf	___fladd@aexp,w
  3575  0DAF  1903               	btfsc	3,2
  3576  0DB0  2DB2               	goto	u1811
  3577  0DB1  2DB3               	goto	u1810
  3578  0DB2                     u1811:
  3579  0DB2  2DC3               	goto	l1746
  3580  0DB3                     u1810:
  3581  0DB3                     l1738:
  3582  0DB3  0A79               	incf	___fladd@aexp,w
  3583  0DB4  1D03               	btfss	3,2
  3584  0DB5  2DB7               	goto	u1821
  3585  0DB6  2DB8               	goto	u1820
  3586  0DB7                     u1821:
  3587  0DB7  2DC0               	goto	l1742
  3588  0DB8                     u1820:
  3589  0DB8                     l1740:
  3590  0DB8  3000               	movlw	0
  3591  0DB9  00F7               	movwf	___fladd@a+3
  3592  0DBA  3000               	movlw	0
  3593  0DBB  00F6               	movwf	___fladd@a+2
  3594  0DBC  3000               	movlw	0
  3595  0DBD  00F5               	movwf	___fladd@a+1
  3596  0DBE  3000               	movlw	0
  3597  0DBF  00F4               	movwf	___fladd@a
  3598  0DC0                     l1742:
  3599  0DC0  17F6               	bsf	___fladd@a+2,7
  3600  0DC1                     l1744:
  3601  0DC1  01F7               	clrf	___fladd@a+3
  3602  0DC2  2DCB               	goto	l535
  3603  0DC3                     l1746:
  3604  0DC3  3000               	movlw	0
  3605  0DC4  00F7               	movwf	___fladd@a+3
  3606  0DC5  3000               	movlw	0
  3607  0DC6  00F6               	movwf	___fladd@a+2
  3608  0DC7  3000               	movlw	0
  3609  0DC8  00F5               	movwf	___fladd@a+1
  3610  0DC9  3000               	movlw	0
  3611  0DCA  00F4               	movwf	___fladd@a
  3612  0DCB                     l535:
  3613  0DCB  087A               	movf	___fladd@bexp,w
  3614  0DCC  0279               	subwf	___fladd@aexp,w
  3615  0DCD  1803               	skipnc
  3616  0DCE  2DD0               	goto	u1831
  3617  0DCF  2DD1               	goto	u1830
  3618  0DD0                     u1831:
  3619  0DD0  2E15               	goto	l1782
  3620  0DD1                     u1830:
  3621  0DD1                     l1748:
  3622  0DD1  1F78               	btfss	___fladd@signs,6
  3623  0DD2  2DD4               	goto	u1841
  3624  0DD3  2DD5               	goto	u1840
  3625  0DD4                     u1841:
  3626  0DD4  2DD9               	goto	l1752
  3627  0DD5                     u1840:
  3628  0DD5                     l1750:
  3629  0DD5  3080               	movlw	128
  3630  0DD6  00A0               	movwf	??___fladd
  3631  0DD7  0820               	movf	??___fladd,w
  3632  0DD8  06F8               	xorwf	___fladd@signs,f
  3633  0DD9                     l1752:
  3634  0DD9  087A               	movf	___fladd@bexp,w
  3635  0DDA  00A0               	movwf	??___fladd
  3636  0DDB  0820               	movf	??___fladd,w
  3637  0DDC  00FB               	movwf	___fladd@grs
  3638  0DDD                     l1754:
  3639  0DDD  0879               	movf	___fladd@aexp,w
  3640  0DDE  00A0               	movwf	??___fladd
  3641  0DDF  0820               	movf	??___fladd,w
  3642  0DE0  00FA               	movwf	___fladd@bexp
  3643  0DE1                     l1756:
  3644  0DE1  087B               	movf	___fladd@grs,w
  3645  0DE2  00A0               	movwf	??___fladd
  3646  0DE3  0820               	movf	??___fladd,w
  3647  0DE4  00F9               	movwf	___fladd@aexp
  3648  0DE5                     l1758:
  3649  0DE5  0870               	movf	___fladd@b,w
  3650  0DE6  00A0               	movwf	??___fladd
  3651  0DE7  0820               	movf	??___fladd,w
  3652  0DE8  00FB               	movwf	___fladd@grs
  3653  0DE9                     l1760:
  3654  0DE9  0874               	movf	___fladd@a,w
  3655  0DEA  00A0               	movwf	??___fladd
  3656  0DEB  0820               	movf	??___fladd,w
  3657  0DEC  00F0               	movwf	___fladd@b
  3658  0DED                     l1762:
  3659  0DED  087B               	movf	___fladd@grs,w
  3660  0DEE  00A0               	movwf	??___fladd
  3661  0DEF  0820               	movf	??___fladd,w
  3662  0DF0  00F4               	movwf	___fladd@a
  3663  0DF1                     l1764:
  3664  0DF1  0871               	movf	___fladd@b+1,w
  3665  0DF2  00A0               	movwf	??___fladd
  3666  0DF3  0820               	movf	??___fladd,w
  3667  0DF4  00FB               	movwf	___fladd@grs
  3668  0DF5                     l1766:
  3669  0DF5  0875               	movf	___fladd@a+1,w
  3670  0DF6  00A0               	movwf	??___fladd
  3671  0DF7  0820               	movf	??___fladd,w
  3672  0DF8  00F1               	movwf	___fladd@b+1
  3673  0DF9                     l1768:
  3674  0DF9  087B               	movf	___fladd@grs,w
  3675  0DFA  00A0               	movwf	??___fladd
  3676  0DFB  0820               	movf	??___fladd,w
  3677  0DFC  00F5               	movwf	___fladd@a+1
  3678  0DFD                     l1770:
  3679  0DFD  0872               	movf	___fladd@b+2,w
  3680  0DFE  00A0               	movwf	??___fladd
  3681  0DFF  0820               	movf	??___fladd,w
  3682  0E00  00FB               	movwf	___fladd@grs
  3683  0E01                     l1772:
  3684  0E01  0876               	movf	___fladd@a+2,w
  3685  0E02  00A0               	movwf	??___fladd
  3686  0E03  0820               	movf	??___fladd,w
  3687  0E04  00F2               	movwf	___fladd@b+2
  3688  0E05                     l1774:
  3689  0E05  087B               	movf	___fladd@grs,w
  3690  0E06  00A0               	movwf	??___fladd
  3691  0E07  0820               	movf	??___fladd,w
  3692  0E08  00F6               	movwf	___fladd@a+2
  3693  0E09                     l1776:
  3694  0E09  0873               	movf	___fladd@b+3,w
  3695  0E0A  00A0               	movwf	??___fladd
  3696  0E0B  0820               	movf	??___fladd,w
  3697  0E0C  00FB               	movwf	___fladd@grs
  3698  0E0D                     l1778:
  3699  0E0D  0877               	movf	___fladd@a+3,w
  3700  0E0E  00A0               	movwf	??___fladd
  3701  0E0F  0820               	movf	??___fladd,w
  3702  0E10  00F3               	movwf	___fladd@b+3
  3703  0E11                     l1780:
  3704  0E11  087B               	movf	___fladd@grs,w
  3705  0E12  00A0               	movwf	??___fladd
  3706  0E13  0820               	movf	??___fladd,w
  3707  0E14  00F7               	movwf	___fladd@a+3
  3708  0E15                     l1782:
  3709  0E15  01FB               	clrf	___fladd@grs
  3710  0E16                     l1784:
  3711  0E16  0879               	movf	___fladd@aexp,w
  3712  0E17  00A0               	movwf	??___fladd
  3713  0E18  01A1               	clrf	??___fladd+1
  3714  0E19  0821               	movf	??___fladd+1,w
  3715  0E1A  00A3               	movwf	??___fladd+3
  3716  0E1B  087A               	movf	___fladd@bexp,w
  3717  0E1C  0220               	subwf	??___fladd,w
  3718  0E1D  00A2               	movwf	??___fladd+2
  3719  0E1E  1C03               	skipc
  3720  0E1F  03A3               	decf	??___fladd+3,f
  3721  0E20  0823               	movf	??___fladd+3,w
  3722  0E21  3A80               	xorlw	128
  3723  0E22  00FF               	movwf	btemp+1
  3724  0E23  3080               	movlw	128
  3725  0E24  027F               	subwf	btemp+1,w
  3726  0E25  1D03               	skipz
  3727  0E26  2E29               	goto	u1855
  3728  0E27  301A               	movlw	26
  3729  0E28  0222               	subwf	??___fladd+2,w
  3730  0E29                     u1855:
  3731  0E29  1C03               	skipc
  3732  0E2A  2E2C               	goto	u1851
  3733  0E2B  2E2D               	goto	u1850
  3734  0E2C                     u1851:
  3735  0E2C  2E6E               	goto	l1800
  3736  0E2D                     u1850:
  3737  0E2D                     l1786:
  3738  0E2D  0873               	movf	___fladd@b+3,w
  3739  0E2E  0472               	iorwf	___fladd@b+2,w
  3740  0E2F  0471               	iorwf	___fladd@b+1,w
  3741  0E30  0470               	iorwf	___fladd@b,w
  3742  0E31  1D03               	skipz
  3743  0E32  2E34               	goto	u1861
  3744  0E33  2E36               	goto	u1860
  3745  0E34                     u1861:
  3746  0E34  3001               	movlw	1
  3747  0E35  2E37               	goto	u1870
  3748  0E36                     u1860:
  3749  0E36  3000               	movlw	0
  3750  0E37                     u1870:
  3751  0E37  1283               	bcf	3,5	;RP0=0, select bank0
  3752  0E38  1303               	bcf	3,6	;RP1=0, select bank0
  3753  0E39  00A0               	movwf	??___fladd
  3754  0E3A  0820               	movf	??___fladd,w
  3755  0E3B  00FB               	movwf	___fladd@grs
  3756  0E3C  3000               	movlw	0
  3757  0E3D  00F3               	movwf	___fladd@b+3
  3758  0E3E  3000               	movlw	0
  3759  0E3F  00F2               	movwf	___fladd@b+2
  3760  0E40  3000               	movlw	0
  3761  0E41  00F1               	movwf	___fladd@b+1
  3762  0E42  3000               	movlw	0
  3763  0E43  00F0               	movwf	___fladd@b
  3764  0E44  0879               	movf	___fladd@aexp,w
  3765  0E45  00A0               	movwf	??___fladd
  3766  0E46  0820               	movf	??___fladd,w
  3767  0E47  00FA               	movwf	___fladd@bexp
  3768  0E48  2E74               	goto	l539
  3769  0E49                     l541:
  3770  0E49  1C7B               	btfss	___fladd@grs,0
  3771  0E4A  2E4C               	goto	u1881
  3772  0E4B  2E4D               	goto	u1880
  3773  0E4C                     u1881:
  3774  0E4C  2E58               	goto	l1790
  3775  0E4D                     u1880:
  3776  0E4D                     l1788:
  3777  0E4D  087B               	movf	___fladd@grs,w
  3778  0E4E  1283               	bcf	3,5	;RP0=0, select bank0
  3779  0E4F  1303               	bcf	3,6	;RP1=0, select bank0
  3780  0E50  00A0               	movwf	??___fladd
  3781  0E51  1003               	clrc
  3782  0E52  0C20               	rrf	??___fladd,w
  3783  0E53  3801               	iorlw	1
  3784  0E54  00A1               	movwf	??___fladd+1
  3785  0E55  0821               	movf	??___fladd+1,w
  3786  0E56  00FB               	movwf	___fladd@grs
  3787  0E57  2E5A               	goto	l1792
  3788  0E58                     l1790:
  3789  0E58  1003               	clrc
  3790  0E59  0CFB               	rrf	___fladd@grs,f
  3791  0E5A                     l1792:
  3792  0E5A  1C70               	btfss	___fladd@b,0
  3793  0E5B  2E5D               	goto	u1891
  3794  0E5C  2E5E               	goto	u1890
  3795  0E5D                     u1891:
  3796  0E5D  2E5F               	goto	l1796
  3797  0E5E                     u1890:
  3798  0E5E                     l1794:
  3799  0E5E  17FB               	bsf	___fladd@grs,7
  3800  0E5F                     l1796:
  3801  0E5F  3001               	movlw	1
  3802  0E60  1283               	bcf	3,5	;RP0=0, select bank0
  3803  0E61  1303               	bcf	3,6	;RP1=0, select bank0
  3804  0E62  00A0               	movwf	??___fladd
  3805  0E63                     u1905:
  3806  0E63  0D73               	rlf	___fladd@b+3,w
  3807  0E64  0CF3               	rrf	___fladd@b+3,f
  3808  0E65  0CF2               	rrf	___fladd@b+2,f
  3809  0E66  0CF1               	rrf	___fladd@b+1,f
  3810  0E67  0CF0               	rrf	___fladd@b,f
  3811  0E68  0BA0               	decfsz	??___fladd& (0+127),f
  3812  0E69  2E63               	goto	u1905
  3813  0E6A                     l1798:
  3814  0E6A  3001               	movlw	1
  3815  0E6B  00A0               	movwf	??___fladd
  3816  0E6C  0820               	movf	??___fladd,w
  3817  0E6D  07FA               	addwf	___fladd@bexp,f
  3818  0E6E                     l1800:
  3819  0E6E  0879               	movf	___fladd@aexp,w
  3820  0E6F  027A               	subwf	___fladd@bexp,w
  3821  0E70  1C03               	skipc
  3822  0E71  2E73               	goto	u1911
  3823  0E72  2E74               	goto	u1910
  3824  0E73                     u1911:
  3825  0E73  2E49               	goto	l541
  3826  0E74                     u1910:
  3827  0E74                     l539:
  3828  0E74  1B78               	btfsc	___fladd@signs,6
  3829  0E75  2E77               	goto	u1921
  3830  0E76  2E78               	goto	u1920
  3831  0E77                     u1921:
  3832  0E77  2EC7               	goto	l1826
  3833  0E78                     u1920:
  3834  0E78                     l1802:
  3835  0E78  087A               	movf	___fladd@bexp,w
  3836  0E79  1D03               	btfss	3,2
  3837  0E7A  2E7C               	goto	u1931
  3838  0E7B  2E7D               	goto	u1930
  3839  0E7C                     u1931:
  3840  0E7C  2E86               	goto	l1808
  3841  0E7D                     u1930:
  3842  0E7D                     l1804:
  3843  0E7D  3000               	movlw	0
  3844  0E7E  00F3               	movwf	?___fladd+3
  3845  0E7F  3000               	movlw	0
  3846  0E80  00F2               	movwf	?___fladd+2
  3847  0E81  3000               	movlw	0
  3848  0E82  00F1               	movwf	?___fladd+1
  3849  0E83  3000               	movlw	0
  3850  0E84  00F0               	movwf	?___fladd
  3851  0E85  2FFF               	goto	l548
  3852  0E86                     l1808:
  3853  0E86  0874               	movf	___fladd@a,w
  3854  0E87  07F0               	addwf	___fladd@b,f
  3855  0E88  0875               	movf	___fladd@a+1,w
  3856  0E89  1103               	clrz
  3857  0E8A  1803               	skipnc
  3858  0E8B  3E01               	addlw	1
  3859  0E8C  1903               	skipnz
  3860  0E8D  2E8F               	goto	u1941
  3861  0E8E  07F1               	addwf	___fladd@b+1,f
  3862  0E8F                     u1941:
  3863  0E8F  0876               	movf	___fladd@a+2,w
  3864  0E90  1103               	clrz
  3865  0E91  1803               	skipnc
  3866  0E92  3E01               	addlw	1
  3867  0E93  1903               	skipnz
  3868  0E94  2E96               	goto	u1942
  3869  0E95  07F2               	addwf	___fladd@b+2,f
  3870  0E96                     u1942:
  3871  0E96  0877               	movf	___fladd@a+3,w
  3872  0E97  1103               	clrz
  3873  0E98  1803               	skipnc
  3874  0E99  3E01               	addlw	1
  3875  0E9A  1903               	skipnz
  3876  0E9B  2E9D               	goto	u1943
  3877  0E9C  07F3               	addwf	___fladd@b+3,f
  3878  0E9D                     u1943:
  3879  0E9D                     l1810:
  3880  0E9D  1C73               	btfss	___fladd@b+3,0
  3881  0E9E  2EA0               	goto	u1951
  3882  0E9F  2EA1               	goto	u1950
  3883  0EA0                     u1951:
  3884  0EA0  2F7F               	goto	l1860
  3885  0EA1                     u1950:
  3886  0EA1                     l1812:
  3887  0EA1  1C7B               	btfss	___fladd@grs,0
  3888  0EA2  2EA4               	goto	u1961
  3889  0EA3  2EA5               	goto	u1960
  3890  0EA4                     u1961:
  3891  0EA4  2EB0               	goto	l1816
  3892  0EA5                     u1960:
  3893  0EA5                     l1814:
  3894  0EA5  087B               	movf	___fladd@grs,w
  3895  0EA6  1283               	bcf	3,5	;RP0=0, select bank0
  3896  0EA7  1303               	bcf	3,6	;RP1=0, select bank0
  3897  0EA8  00A0               	movwf	??___fladd
  3898  0EA9  1003               	clrc
  3899  0EAA  0C20               	rrf	??___fladd,w
  3900  0EAB  3801               	iorlw	1
  3901  0EAC  00A1               	movwf	??___fladd+1
  3902  0EAD  0821               	movf	??___fladd+1,w
  3903  0EAE  00FB               	movwf	___fladd@grs
  3904  0EAF  2EB2               	goto	l1818
  3905  0EB0                     l1816:
  3906  0EB0  1003               	clrc
  3907  0EB1  0CFB               	rrf	___fladd@grs,f
  3908  0EB2                     l1818:
  3909  0EB2  1C70               	btfss	___fladd@b,0
  3910  0EB3  2EB5               	goto	u1971
  3911  0EB4  2EB6               	goto	u1970
  3912  0EB5                     u1971:
  3913  0EB5  2EB7               	goto	l1822
  3914  0EB6                     u1970:
  3915  0EB6                     l1820:
  3916  0EB6  17FB               	bsf	___fladd@grs,7
  3917  0EB7                     l1822:
  3918  0EB7  3001               	movlw	1
  3919  0EB8  1283               	bcf	3,5	;RP0=0, select bank0
  3920  0EB9  1303               	bcf	3,6	;RP1=0, select bank0
  3921  0EBA  00A0               	movwf	??___fladd
  3922  0EBB                     u1985:
  3923  0EBB  0D73               	rlf	___fladd@b+3,w
  3924  0EBC  0CF3               	rrf	___fladd@b+3,f
  3925  0EBD  0CF2               	rrf	___fladd@b+2,f
  3926  0EBE  0CF1               	rrf	___fladd@b+1,f
  3927  0EBF  0CF0               	rrf	___fladd@b,f
  3928  0EC0  0BA0               	decfsz	??___fladd& (0+127),f
  3929  0EC1  2EBB               	goto	u1985
  3930  0EC2                     l1824:
  3931  0EC2  3001               	movlw	1
  3932  0EC3  00A0               	movwf	??___fladd
  3933  0EC4  0820               	movf	??___fladd,w
  3934  0EC5  07FA               	addwf	___fladd@bexp,f
  3935  0EC6  2F7F               	goto	l1860
  3936  0EC7                     l1826:
  3937  0EC7  0873               	movf	___fladd@b+3,w
  3938  0EC8  3A80               	xorlw	128
  3939  0EC9  00FF               	movwf	btemp+1
  3940  0ECA  0877               	movf	___fladd@a+3,w
  3941  0ECB  3A80               	xorlw	128
  3942  0ECC  027F               	subwf	btemp+1,w
  3943  0ECD  1D03               	skipz
  3944  0ECE  2ED9               	goto	u1993
  3945  0ECF  0876               	movf	___fladd@a+2,w
  3946  0ED0  0272               	subwf	___fladd@b+2,w
  3947  0ED1  1D03               	skipz
  3948  0ED2  2ED9               	goto	u1993
  3949  0ED3  0875               	movf	___fladd@a+1,w
  3950  0ED4  0271               	subwf	___fladd@b+1,w
  3951  0ED5  1D03               	skipz
  3952  0ED6  2ED9               	goto	u1993
  3953  0ED7  0874               	movf	___fladd@a,w
  3954  0ED8  0270               	subwf	___fladd@b,w
  3955  0ED9                     u1993:
  3956  0ED9  1803               	skipnc
  3957  0EDA  2EDC               	goto	u1991
  3958  0EDB  2EDD               	goto	u1990
  3959  0EDC                     u1991:
  3960  0EDC  2F37               	goto	l1836
  3961  0EDD                     u1990:
  3962  0EDD                     l1828:
  3963  0EDD  30FF               	movlw	255
  3964  0EDE  1283               	bcf	3,5	;RP0=0, select bank0
  3965  0EDF  1303               	bcf	3,6	;RP1=0, select bank0
  3966  0EE0  00A0               	movwf	??___fladd
  3967  0EE1  30FF               	movlw	255
  3968  0EE2  00A1               	movwf	??___fladd+1
  3969  0EE3  30FF               	movlw	255
  3970  0EE4  00A2               	movwf	??___fladd+2
  3971  0EE5  30FF               	movlw	255
  3972  0EE6  00A3               	movwf	??___fladd+3
  3973  0EE7  0874               	movf	___fladd@a,w
  3974  0EE8  00A4               	movwf	??___fladd+4
  3975  0EE9  0875               	movf	___fladd@a+1,w
  3976  0EEA  00A5               	movwf	??___fladd+5
  3977  0EEB  0876               	movf	___fladd@a+2,w
  3978  0EEC  00A6               	movwf	??___fladd+6
  3979  0EED  0877               	movf	___fladd@a+3,w
  3980  0EEE  00A7               	movwf	??___fladd+7
  3981  0EEF  0870               	movf	___fladd@b,w
  3982  0EF0  02A4               	subwf	??___fladd+4,f
  3983  0EF1  0871               	movf	___fladd@b+1,w
  3984  0EF2  1C03               	skipc
  3985  0EF3  0F71               	incfsz	___fladd@b+1,w
  3986  0EF4  2EF6               	goto	u2001
  3987  0EF5  2EF7               	goto	u2002
  3988  0EF6                     u2001:
  3989  0EF6  02A5               	subwf	??___fladd+5,f
  3990  0EF7                     u2002:
  3991  0EF7  0872               	movf	___fladd@b+2,w
  3992  0EF8  1C03               	skipc
  3993  0EF9  0F72               	incfsz	___fladd@b+2,w
  3994  0EFA  2EFC               	goto	u2003
  3995  0EFB  2EFD               	goto	u2004
  3996  0EFC                     u2003:
  3997  0EFC  02A6               	subwf	??___fladd+6,f
  3998  0EFD                     u2004:
  3999  0EFD  0873               	movf	___fladd@b+3,w
  4000  0EFE  1C03               	skipc
  4001  0EFF  0F73               	incfsz	___fladd@b+3,w
  4002  0F00  2F02               	goto	u2005
  4003  0F01  2F03               	goto	u2006
  4004  0F02                     u2005:
  4005  0F02  02A7               	subwf	??___fladd+7,f
  4006  0F03                     u2006:
  4007  0F03  0824               	movf	??___fladd+4,w
  4008  0F04  07A0               	addwf	??___fladd,f
  4009  0F05  0825               	movf	??___fladd+5,w
  4010  0F06  1803               	skipnc
  4011  0F07  0F25               	incfsz	??___fladd+5,w
  4012  0F08  2F0A               	goto	u2010
  4013  0F09  2F0B               	goto	u2011
  4014  0F0A                     u2010:
  4015  0F0A  07A1               	addwf	??___fladd+1,f
  4016  0F0B                     u2011:
  4017  0F0B  0826               	movf	??___fladd+6,w
  4018  0F0C  1803               	skipnc
  4019  0F0D  0F26               	incfsz	??___fladd+6,w
  4020  0F0E  2F10               	goto	u2012
  4021  0F0F  2F11               	goto	u2013
  4022  0F10                     u2012:
  4023  0F10  07A2               	addwf	??___fladd+2,f
  4024  0F11                     u2013:
  4025  0F11  0827               	movf	??___fladd+7,w
  4026  0F12  1803               	skipnc
  4027  0F13  0A27               	incf	??___fladd+7,w
  4028  0F14  07A3               	addwf	??___fladd+3,f
  4029  0F15  0823               	movf	??___fladd+3,w
  4030  0F16  00F3               	movwf	___fladd@b+3
  4031  0F17  0822               	movf	??___fladd+2,w
  4032  0F18  00F2               	movwf	___fladd@b+2
  4033  0F19  0821               	movf	??___fladd+1,w
  4034  0F1A  00F1               	movwf	___fladd@b+1
  4035  0F1B  0820               	movf	??___fladd,w
  4036  0F1C  00F0               	movwf	___fladd@b
  4037  0F1D                     l1830:
  4038  0F1D  3080               	movlw	128
  4039  0F1E  00A0               	movwf	??___fladd
  4040  0F1F  0820               	movf	??___fladd,w
  4041  0F20  06F8               	xorwf	___fladd@signs,f
  4042  0F21  09FB               	comf	___fladd@grs,f
  4043  0F22  0AFB               	incf	___fladd@grs,f
  4044  0F23                     l1832:
  4045  0F23  087B               	movf	___fladd@grs,w
  4046  0F24  1D03               	btfss	3,2
  4047  0F25  2F27               	goto	u2021
  4048  0F26  2F28               	goto	u2020
  4049  0F27                     u2021:
  4050  0F27  2F45               	goto	l556
  4051  0F28                     u2020:
  4052  0F28                     l1834:
  4053  0F28  3001               	movlw	1
  4054  0F29  07F0               	addwf	___fladd@b,f
  4055  0F2A  3000               	movlw	0
  4056  0F2B  1803               	skipnc
  4057  0F2C  3001               	movlw	1
  4058  0F2D  07F1               	addwf	___fladd@b+1,f
  4059  0F2E  3000               	movlw	0
  4060  0F2F  1803               	skipnc
  4061  0F30  3001               	movlw	1
  4062  0F31  07F2               	addwf	___fladd@b+2,f
  4063  0F32  3000               	movlw	0
  4064  0F33  1803               	skipnc
  4065  0F34  3001               	movlw	1
  4066  0F35  07F3               	addwf	___fladd@b+3,f
  4067  0F36  2F45               	goto	l556
  4068  0F37                     l1836:
  4069  0F37  0874               	movf	___fladd@a,w
  4070  0F38  02F0               	subwf	___fladd@b,f
  4071  0F39  0875               	movf	___fladd@a+1,w
  4072  0F3A  1C03               	skipc
  4073  0F3B  0F75               	incfsz	___fladd@a+1,w
  4074  0F3C  02F1               	subwf	___fladd@b+1,f
  4075  0F3D  0876               	movf	___fladd@a+2,w
  4076  0F3E  1C03               	skipc
  4077  0F3F  0F76               	incfsz	___fladd@a+2,w
  4078  0F40  02F2               	subwf	___fladd@b+2,f
  4079  0F41  0877               	movf	___fladd@a+3,w
  4080  0F42  1C03               	skipc
  4081  0F43  0F77               	incfsz	___fladd@a+3,w
  4082  0F44  02F3               	subwf	___fladd@b+3,f
  4083  0F45                     l556:
  4084  0F45  0873               	movf	___fladd@b+3,w
  4085  0F46  0472               	iorwf	___fladd@b+2,w
  4086  0F47  0471               	iorwf	___fladd@b+1,w
  4087  0F48  0470               	iorwf	___fladd@b,w
  4088  0F49  1D03               	skipz
  4089  0F4A  2F4C               	goto	u2031
  4090  0F4B  2F4D               	goto	u2030
  4091  0F4C                     u2031:
  4092  0F4C  2F7B               	goto	l1858
  4093  0F4D                     u2030:
  4094  0F4D                     l1838:
  4095  0F4D  087B               	movf	___fladd@grs,w
  4096  0F4E  1D03               	btfss	3,2
  4097  0F4F  2F51               	goto	u2041
  4098  0F50  2F52               	goto	u2040
  4099  0F51                     u2041:
  4100  0F51  2F7B               	goto	l1858
  4101  0F52                     u2040:
  4102  0F52                     l1840:
  4103  0F52  3000               	movlw	0
  4104  0F53  00F3               	movwf	?___fladd+3
  4105  0F54  3000               	movlw	0
  4106  0F55  00F2               	movwf	?___fladd+2
  4107  0F56  3000               	movlw	0
  4108  0F57  00F1               	movwf	?___fladd+1
  4109  0F58  3000               	movlw	0
  4110  0F59  00F0               	movwf	?___fladd
  4111  0F5A  2FFF               	goto	l548
  4112  0F5B                     l1844:
  4113  0F5B  3001               	movlw	1
  4114  0F5C  1283               	bcf	3,5	;RP0=0, select bank0
  4115  0F5D  1303               	bcf	3,6	;RP1=0, select bank0
  4116  0F5E  00A0               	movwf	??___fladd
  4117  0F5F                     u2055:
  4118  0F5F  1003               	clrc
  4119  0F60  0DF0               	rlf	___fladd@b,f
  4120  0F61  0DF1               	rlf	___fladd@b+1,f
  4121  0F62  0DF2               	rlf	___fladd@b+2,f
  4122  0F63  0DF3               	rlf	___fladd@b+3,f
  4123  0F64  0BA0               	decfsz	??___fladd,f
  4124  0F65  2F5F               	goto	u2055
  4125  0F66                     l1846:
  4126  0F66  1FFB               	btfss	___fladd@grs,7
  4127  0F67  2F69               	goto	u2061
  4128  0F68  2F6A               	goto	u2060
  4129  0F69                     u2061:
  4130  0F69  2F6B               	goto	l560
  4131  0F6A                     u2060:
  4132  0F6A                     l1848:
  4133  0F6A  1470               	bsf	___fladd@b,0
  4134  0F6B                     l560:
  4135  0F6B  1C7B               	btfss	___fladd@grs,0
  4136  0F6C  2F6E               	goto	u2071
  4137  0F6D  2F6F               	goto	u2070
  4138  0F6E                     u2071:
  4139  0F6E  2F72               	goto	l1852
  4140  0F6F                     u2070:
  4141  0F6F                     l1850:
  4142  0F6F  1403               	setc
  4143  0F70  0DFB               	rlf	___fladd@grs,f
  4144  0F71  2F74               	goto	l1854
  4145  0F72                     l1852:
  4146  0F72  1003               	clrc
  4147  0F73  0DFB               	rlf	___fladd@grs,f
  4148  0F74                     l1854:
  4149  0F74  087A               	movf	___fladd@bexp,w
  4150  0F75  1903               	btfsc	3,2
  4151  0F76  2F78               	goto	u2081
  4152  0F77  2F79               	goto	u2080
  4153  0F78                     u2081:
  4154  0F78  2F7B               	goto	l1858
  4155  0F79                     u2080:
  4156  0F79                     l1856:
  4157  0F79  3001               	movlw	1
  4158  0F7A  02FA               	subwf	___fladd@bexp,f
  4159  0F7B                     l1858:
  4160  0F7B  1FF2               	btfss	___fladd@b+2,7
  4161  0F7C  2F7E               	goto	u2091
  4162  0F7D  2F7F               	goto	u2090
  4163  0F7E                     u2091:
  4164  0F7E  2F5B               	goto	l1844
  4165  0F7F                     u2090:
  4166  0F7F                     l1860:
  4167  0F7F  01F9               	clrf	___fladd@aexp
  4168  0F80                     l1862:
  4169  0F80  1FFB               	btfss	___fladd@grs,7
  4170  0F81  2F83               	goto	u2101
  4171  0F82  2F84               	goto	u2100
  4172  0F83                     u2101:
  4173  0F83  2F92               	goto	l1870
  4174  0F84                     u2100:
  4175  0F84                     l1864:
  4176  0F84  087B               	movf	___fladd@grs,w
  4177  0F85  397F               	andlw	127
  4178  0F86  1903               	btfsc	3,2
  4179  0F87  2F89               	goto	u2111
  4180  0F88  2F8A               	goto	u2110
  4181  0F89                     u2111:
  4182  0F89  2F8D               	goto	l566
  4183  0F8A                     u2110:
  4184  0F8A                     l1866:
  4185  0F8A  01F9               	clrf	___fladd@aexp
  4186  0F8B  0AF9               	incf	___fladd@aexp,f
  4187  0F8C  2F92               	goto	l1870
  4188  0F8D                     l566:
  4189  0F8D  1C70               	btfss	___fladd@b,0
  4190  0F8E  2F90               	goto	u2121
  4191  0F8F  2F91               	goto	u2120
  4192  0F90                     u2121:
  4193  0F90  2F92               	goto	l1870
  4194  0F91                     u2120:
  4195  0F91  2F8A               	goto	l1866
  4196  0F92                     l1870:
  4197  0F92  0879               	movf	___fladd@aexp,w
  4198  0F93  1903               	btfsc	3,2
  4199  0F94  2F96               	goto	u2131
  4200  0F95  2F97               	goto	u2130
  4201  0F96                     u2131:
  4202  0F96  2FCD               	goto	l569
  4203  0F97                     u2130:
  4204  0F97                     l1872:
  4205  0F97  3001               	movlw	1
  4206  0F98  07F0               	addwf	___fladd@b,f
  4207  0F99  3000               	movlw	0
  4208  0F9A  1803               	skipnc
  4209  0F9B  3001               	movlw	1
  4210  0F9C  07F1               	addwf	___fladd@b+1,f
  4211  0F9D  3000               	movlw	0
  4212  0F9E  1803               	skipnc
  4213  0F9F  3001               	movlw	1
  4214  0FA0  07F2               	addwf	___fladd@b+2,f
  4215  0FA1  3000               	movlw	0
  4216  0FA2  1803               	skipnc
  4217  0FA3  3001               	movlw	1
  4218  0FA4  07F3               	addwf	___fladd@b+3,f
  4219  0FA5                     l1874:
  4220  0FA5  1C73               	btfss	___fladd@b+3,0
  4221  0FA6  2FA8               	goto	u2141
  4222  0FA7  2FA9               	goto	u2140
  4223  0FA8                     u2141:
  4224  0FA8  2FCD               	goto	l569
  4225  0FA9                     u2140:
  4226  0FA9                     l1876:
  4227  0FA9  0870               	movf	___fladd@b,w
  4228  0FAA  1283               	bcf	3,5	;RP0=0, select bank0
  4229  0FAB  1303               	bcf	3,6	;RP1=0, select bank0
  4230  0FAC  00A0               	movwf	??___fladd
  4231  0FAD  0871               	movf	___fladd@b+1,w
  4232  0FAE  00A1               	movwf	??___fladd+1
  4233  0FAF  0872               	movf	___fladd@b+2,w
  4234  0FB0  00A2               	movwf	??___fladd+2
  4235  0FB1  0873               	movf	___fladd@b+3,w
  4236  0FB2  00A3               	movwf	??___fladd+3
  4237  0FB3  3001               	movlw	1
  4238  0FB4  00A4               	movwf	??___fladd+4
  4239  0FB5                     u2155:
  4240  0FB5  0D23               	rlf	??___fladd+3,w
  4241  0FB6  0CA3               	rrf	??___fladd+3,f
  4242  0FB7  0CA2               	rrf	??___fladd+2,f
  4243  0FB8  0CA1               	rrf	??___fladd+1,f
  4244  0FB9  0CA0               	rrf	??___fladd,f
  4245  0FBA                     u2150:
  4246  0FBA  0BA4               	decfsz	??___fladd+4,f
  4247  0FBB  2FB5               	goto	u2155
  4248  0FBC  0823               	movf	??___fladd+3,w
  4249  0FBD  00F3               	movwf	___fladd@b+3
  4250  0FBE  0822               	movf	??___fladd+2,w
  4251  0FBF  00F2               	movwf	___fladd@b+2
  4252  0FC0  0821               	movf	??___fladd+1,w
  4253  0FC1  00F1               	movwf	___fladd@b+1
  4254  0FC2  0820               	movf	??___fladd,w
  4255  0FC3  00F0               	movwf	___fladd@b
  4256  0FC4  0A7A               	incf	___fladd@bexp,w
  4257  0FC5  1903               	btfsc	3,2
  4258  0FC6  2FC8               	goto	u2161
  4259  0FC7  2FC9               	goto	u2160
  4260  0FC8                     u2161:
  4261  0FC8  2FCD               	goto	l569
  4262  0FC9                     u2160:
  4263  0FC9                     l1878:
  4264  0FC9  3001               	movlw	1
  4265  0FCA  00A0               	movwf	??___fladd
  4266  0FCB  0820               	movf	??___fladd,w
  4267  0FCC  07FA               	addwf	___fladd@bexp,f
  4268  0FCD                     l569:
  4269  0FCD  0A7A               	incf	___fladd@bexp,w
  4270  0FCE  1903               	btfsc	3,2
  4271  0FCF  2FD1               	goto	u2171
  4272  0FD0  2FD2               	goto	u2170
  4273  0FD1                     u2171:
  4274  0FD1  2FD7               	goto	l1882
  4275  0FD2                     u2170:
  4276  0FD2                     l1880:
  4277  0FD2  087A               	movf	___fladd@bexp,w
  4278  0FD3  1D03               	btfss	3,2
  4279  0FD4  2FD6               	goto	u2181
  4280  0FD5  2FD7               	goto	u2180
  4281  0FD6                     u2181:
  4282  0FD6  2FE5               	goto	l1888
  4283  0FD7                     u2180:
  4284  0FD7                     l1882:
  4285  0FD7  3000               	movlw	0
  4286  0FD8  00F3               	movwf	___fladd@b+3
  4287  0FD9  3000               	movlw	0
  4288  0FDA  00F2               	movwf	___fladd@b+2
  4289  0FDB  3000               	movlw	0
  4290  0FDC  00F1               	movwf	___fladd@b+1
  4291  0FDD  3000               	movlw	0
  4292  0FDE  00F0               	movwf	___fladd@b
  4293  0FDF                     l1884:
  4294  0FDF  087A               	movf	___fladd@bexp,w
  4295  0FE0  1D03               	btfss	3,2
  4296  0FE1  2FE3               	goto	u2191
  4297  0FE2  2FE4               	goto	u2190
  4298  0FE3                     u2191:
  4299  0FE3  2FE5               	goto	l1888
  4300  0FE4                     u2190:
  4301  0FE4                     l1886:
  4302  0FE4  01F8               	clrf	___fladd@signs
  4303  0FE5                     l1888:
  4304  0FE5  1C7A               	btfss	___fladd@bexp,0
  4305  0FE6  2FE8               	goto	u2201
  4306  0FE7  2FE9               	goto	u2200
  4307  0FE8                     u2201:
  4308  0FE8  2FEB               	goto	l1892
  4309  0FE9                     u2200:
  4310  0FE9                     l1890:
  4311  0FE9  17F2               	bsf	___fladd@b+2,7
  4312  0FEA  2FF1               	goto	l577
  4313  0FEB                     l1892:
  4314  0FEB  307F               	movlw	127
  4315  0FEC  1283               	bcf	3,5	;RP0=0, select bank0
  4316  0FED  1303               	bcf	3,6	;RP1=0, select bank0
  4317  0FEE  00A0               	movwf	??___fladd
  4318  0FEF  0820               	movf	??___fladd,w
  4319  0FF0  05F2               	andwf	___fladd@b+2,f
  4320  0FF1                     l577:
  4321  0FF1  087A               	movf	___fladd@bexp,w
  4322  0FF2  1283               	bcf	3,5	;RP0=0, select bank0
  4323  0FF3  1303               	bcf	3,6	;RP1=0, select bank0
  4324  0FF4  00A0               	movwf	??___fladd
  4325  0FF5  1003               	clrc
  4326  0FF6  0C20               	rrf	??___fladd,w
  4327  0FF7  00A1               	movwf	??___fladd+1
  4328  0FF8  0821               	movf	??___fladd+1,w
  4329  0FF9  00F3               	movwf	___fladd@b+3
  4330  0FFA                     l1894:
  4331  0FFA  1FF8               	btfss	___fladd@signs,7
  4332  0FFB  2FFD               	goto	u2211
  4333  0FFC  2FFE               	goto	u2210
  4334  0FFD                     u2211:
  4335  0FFD  2FFF               	goto	l578
  4336  0FFE                     u2210:
  4337  0FFE                     l1896:
  4338  0FFE  17F3               	bsf	___fladd@b+3,7
  4339  0FFF                     l578:
  4340  0FFF                     l548:
  4341  0FFF  0008               	return
  4342  1000                     __end_of___fladd:
  4343                           
  4344                           	psect	text12
  4345  009A                     __ptext12:	
  4346 ;; *************** function ___flmul *****************
  4347 ;; Defined at:
  4348 ;;		line 8 in file "C:\Program Files\Microchip\xc8\v2.31\pic\sources\c90\common\sprcmul.c"
  4349 ;; Parameters:    Size  Location     Type
  4350 ;;  b               4   44[BANK0 ] unsigned char 
  4351 ;;  a               4   48[BANK0 ] unsigned char 
  4352 ;; Auto vars:     Size  Location     Type
  4353 ;;  prod            4   64[BANK0 ] struct .
  4354 ;;  grs             4   58[BANK0 ] unsigned long 
  4355 ;;  temp            2   68[BANK0 ] struct .
  4356 ;;  bexp            1   63[BANK0 ] unsigned char 
  4357 ;;  aexp            1   62[BANK0 ] unsigned char 
  4358 ;;  sign            1   57[BANK0 ] unsigned char 
  4359 ;; Return value:  Size  Location     Type
  4360 ;;                  4   44[BANK0 ] unsigned char 
  4361 ;; Registers used:
  4362 ;;		wreg, status,2, status,0, btemp+1, pclath, cstack
  4363 ;; Tracked objects:
  4364 ;;		On entry : 0/0
  4365 ;;		On exit  : 0/0
  4366 ;;		Unchanged: 0/0
  4367 ;; Data sizes:     COMMON   BANK0   BANK1   BANK3   BANK2
  4368 ;;      Params:         0       8       0       0       0
  4369 ;;      Locals:         0      13       0       0       0
  4370 ;;      Temps:          0       5       0       0       0
  4371 ;;      Totals:         0      26       0       0       0
  4372 ;;Total ram usage:       26 bytes
  4373 ;; Hardware stack levels used:    1
  4374 ;; Hardware stack levels required when called:    1
  4375 ;; This function calls:
  4376 ;;		__Umul8_16
  4377 ;; This function is called by:
  4378 ;;		_main
  4379 ;;		_convert
  4380 ;; This function uses a non-reentrant model
  4381 ;;
  4382                           
  4383                           
  4384                           ;psect for function ___flmul
  4385  009A                     ___flmul:
  4386  009A                     l2208:	
  4387                           ;incstack = 0
  4388                           ; Regs used in ___flmul: [wreg+status,2+status,0+btemp+1+pclath+cstack]
  4389                           
  4390  009A  1283               	bcf	3,5	;RP0=0, select bank0
  4391  009B  1303               	bcf	3,6	;RP1=0, select bank0
  4392  009C  084F               	movf	___flmul@b+3,w
  4393  009D  3980               	andlw	128
  4394  009E  00D4               	movwf	??___flmul
  4395  009F  0854               	movf	??___flmul,w
  4396  00A0  00D9               	movwf	___flmul@sign
  4397  00A1                     l2210:
  4398  00A1  084F               	movf	___flmul@b+3,w
  4399  00A2  00D4               	movwf	??___flmul
  4400  00A3  0754               	addwf	??___flmul,w
  4401  00A4  00D5               	movwf	??___flmul+1
  4402  00A5  0855               	movf	??___flmul+1,w
  4403  00A6  00DF               	movwf	___flmul@bexp
  4404  00A7                     l2212:
  4405  00A7  1FCE               	btfss	___flmul@b+2,7
  4406  00A8  28AA               	goto	u2891
  4407  00A9  28AB               	goto	u2890
  4408  00AA                     u2891:
  4409  00AA  28AC               	goto	l2216
  4410  00AB                     u2890:
  4411  00AB                     l2214:
  4412  00AB  145F               	bsf	___flmul@bexp,0
  4413  00AC                     l2216:
  4414  00AC  085F               	movf	___flmul@bexp,w
  4415  00AD  1903               	btfsc	3,2
  4416  00AE  28B0               	goto	u2901
  4417  00AF  28B1               	goto	u2900
  4418  00B0                     u2901:
  4419  00B0  28C0               	goto	l2224
  4420  00B1                     u2900:
  4421  00B1                     l2218:
  4422  00B1  0A5F               	incf	___flmul@bexp,w
  4423  00B2  1D03               	btfss	3,2
  4424  00B3  28B5               	goto	u2911
  4425  00B4  28B6               	goto	u2910
  4426  00B5                     u2911:
  4427  00B5  28BE               	goto	l2222
  4428  00B6                     u2910:
  4429  00B6                     l2220:
  4430  00B6  3000               	movlw	0
  4431  00B7  00CF               	movwf	___flmul@b+3
  4432  00B8  3000               	movlw	0
  4433  00B9  00CE               	movwf	___flmul@b+2
  4434  00BA  3000               	movlw	0
  4435  00BB  00CD               	movwf	___flmul@b+1
  4436  00BC  3000               	movlw	0
  4437  00BD  00CC               	movwf	___flmul@b
  4438  00BE                     l2222:
  4439  00BE  17CE               	bsf	___flmul@b+2,7
  4440  00BF  28C8               	goto	l2226
  4441  00C0                     l2224:
  4442  00C0  3000               	movlw	0
  4443  00C1  00CF               	movwf	___flmul@b+3
  4444  00C2  3000               	movlw	0
  4445  00C3  00CE               	movwf	___flmul@b+2
  4446  00C4  3000               	movlw	0
  4447  00C5  00CD               	movwf	___flmul@b+1
  4448  00C6  3000               	movlw	0
  4449  00C7  00CC               	movwf	___flmul@b
  4450  00C8                     l2226:
  4451  00C8  0853               	movf	___flmul@a+3,w
  4452  00C9  3980               	andlw	128
  4453  00CA  00D4               	movwf	??___flmul
  4454  00CB  0854               	movf	??___flmul,w
  4455  00CC  06D9               	xorwf	___flmul@sign,f
  4456  00CD                     l2228:
  4457  00CD  0853               	movf	___flmul@a+3,w
  4458  00CE  00D4               	movwf	??___flmul
  4459  00CF  0754               	addwf	??___flmul,w
  4460  00D0  00D5               	movwf	??___flmul+1
  4461  00D1  0855               	movf	??___flmul+1,w
  4462  00D2  00DE               	movwf	___flmul@aexp
  4463  00D3                     l2230:
  4464  00D3  1FD2               	btfss	___flmul@a+2,7
  4465  00D4  28D6               	goto	u2921
  4466  00D5  28D7               	goto	u2920
  4467  00D6                     u2921:
  4468  00D6  28D8               	goto	l2234
  4469  00D7                     u2920:
  4470  00D7                     l2232:
  4471  00D7  145E               	bsf	___flmul@aexp,0
  4472  00D8                     l2234:
  4473  00D8  085E               	movf	___flmul@aexp,w
  4474  00D9  1903               	btfsc	3,2
  4475  00DA  28DC               	goto	u2931
  4476  00DB  28DD               	goto	u2930
  4477  00DC                     u2931:
  4478  00DC  28EC               	goto	l2242
  4479  00DD                     u2930:
  4480  00DD                     l2236:
  4481  00DD  0A5E               	incf	___flmul@aexp,w
  4482  00DE  1D03               	btfss	3,2
  4483  00DF  28E1               	goto	u2941
  4484  00E0  28E2               	goto	u2940
  4485  00E1                     u2941:
  4486  00E1  28EA               	goto	l2240
  4487  00E2                     u2940:
  4488  00E2                     l2238:
  4489  00E2  3000               	movlw	0
  4490  00E3  00D3               	movwf	___flmul@a+3
  4491  00E4  3000               	movlw	0
  4492  00E5  00D2               	movwf	___flmul@a+2
  4493  00E6  3000               	movlw	0
  4494  00E7  00D1               	movwf	___flmul@a+1
  4495  00E8  3000               	movlw	0
  4496  00E9  00D0               	movwf	___flmul@a
  4497  00EA                     l2240:
  4498  00EA  17D2               	bsf	___flmul@a+2,7
  4499  00EB  28F4               	goto	l2244
  4500  00EC                     l2242:
  4501  00EC  3000               	movlw	0
  4502  00ED  00D3               	movwf	___flmul@a+3
  4503  00EE  3000               	movlw	0
  4504  00EF  00D2               	movwf	___flmul@a+2
  4505  00F0  3000               	movlw	0
  4506  00F1  00D1               	movwf	___flmul@a+1
  4507  00F2  3000               	movlw	0
  4508  00F3  00D0               	movwf	___flmul@a
  4509  00F4                     l2244:
  4510  00F4  085E               	movf	___flmul@aexp,w
  4511  00F5  1903               	btfsc	3,2
  4512  00F6  28F8               	goto	u2951
  4513  00F7  28F9               	goto	u2950
  4514  00F8                     u2951:
  4515  00F8  28FE               	goto	l2248
  4516  00F9                     u2950:
  4517  00F9                     l2246:
  4518  00F9  085F               	movf	___flmul@bexp,w
  4519  00FA  1D03               	btfss	3,2
  4520  00FB  28FD               	goto	u2961
  4521  00FC  28FE               	goto	u2960
  4522  00FD                     u2961:
  4523  00FD  2907               	goto	l2252
  4524  00FE                     u2960:
  4525  00FE                     l2248:
  4526  00FE  3000               	movlw	0
  4527  00FF  00CF               	movwf	?___flmul+3
  4528  0100  3000               	movlw	0
  4529  0101  00CE               	movwf	?___flmul+2
  4530  0102  3000               	movlw	0
  4531  0103  00CD               	movwf	?___flmul+1
  4532  0104  3000               	movlw	0
  4533  0105  00CC               	movwf	?___flmul
  4534  0106  2BFA               	goto	l631
  4535  0107                     l2252:
  4536  0107  084C               	movf	___flmul@b,w
  4537  0108  00D4               	movwf	??___flmul
  4538  0109  0854               	movf	??___flmul,w
  4539  010A  00F0               	movwf	__Umul8_16@multiplicand
  4540  010B  0852               	movf	___flmul@a+2,w
  4541  010C  160A  118A  26C9  120A  118A  	fcall	__Umul8_16
  4542  0111  0871               	movf	?__Umul8_16+1,w
  4543  0112  1283               	bcf	3,5	;RP0=0, select bank0
  4544  0113  1303               	bcf	3,6	;RP1=0, select bank0
  4545  0114  00E5               	movwf	___flmul@temp+1
  4546  0115  0870               	movf	?__Umul8_16,w
  4547  0116  00E4               	movwf	___flmul@temp
  4548  0117                     l2254:
  4549  0117  0864               	movf	___flmul@temp,w
  4550  0118  00D4               	movwf	??___flmul
  4551  0119  01D5               	clrf	??___flmul+1
  4552  011A  01D6               	clrf	??___flmul+2
  4553  011B  01D7               	clrf	??___flmul+3
  4554  011C  0857               	movf	??___flmul+3,w
  4555  011D  00DD               	movwf	___flmul@grs+3
  4556  011E  0856               	movf	??___flmul+2,w
  4557  011F  00DC               	movwf	___flmul@grs+2
  4558  0120  0855               	movf	??___flmul+1,w
  4559  0121  00DB               	movwf	___flmul@grs+1
  4560  0122  0854               	movf	??___flmul,w
  4561  0123  00DA               	movwf	___flmul@grs
  4562  0124                     l2256:
  4563  0124  0865               	movf	___flmul@temp+1,w
  4564  0125  00D4               	movwf	??___flmul
  4565  0126  01D5               	clrf	??___flmul+1
  4566  0127  01D6               	clrf	??___flmul+2
  4567  0128  01D7               	clrf	??___flmul+3
  4568  0129  0857               	movf	??___flmul+3,w
  4569  012A  00E3               	movwf	___flmul@prod+3
  4570  012B  0856               	movf	??___flmul+2,w
  4571  012C  00E2               	movwf	___flmul@prod+2
  4572  012D  0855               	movf	??___flmul+1,w
  4573  012E  00E1               	movwf	___flmul@prod+1
  4574  012F  0854               	movf	??___flmul,w
  4575  0130  00E0               	movwf	___flmul@prod
  4576  0131  084D               	movf	___flmul@b+1,w
  4577  0132  00D4               	movwf	??___flmul
  4578  0133  0854               	movf	??___flmul,w
  4579  0134  00F0               	movwf	__Umul8_16@multiplicand
  4580  0135  0851               	movf	___flmul@a+1,w
  4581  0136  160A  118A  26C9  120A  118A  	fcall	__Umul8_16
  4582  013B  0871               	movf	?__Umul8_16+1,w
  4583  013C  1283               	bcf	3,5	;RP0=0, select bank0
  4584  013D  1303               	bcf	3,6	;RP1=0, select bank0
  4585  013E  00E5               	movwf	___flmul@temp+1
  4586  013F  0870               	movf	?__Umul8_16,w
  4587  0140  00E4               	movwf	___flmul@temp
  4588  0141                     l2258:
  4589  0141  0864               	movf	___flmul@temp,w
  4590  0142  00D4               	movwf	??___flmul
  4591  0143  01D5               	clrf	??___flmul+1
  4592  0144  01D6               	clrf	??___flmul+2
  4593  0145  01D7               	clrf	??___flmul+3
  4594  0146  0854               	movf	??___flmul,w
  4595  0147  07DA               	addwf	___flmul@grs,f
  4596  0148  0855               	movf	??___flmul+1,w
  4597  0149  1103               	clrz
  4598  014A  1803               	skipnc
  4599  014B  3E01               	addlw	1
  4600  014C  1903               	skipnz
  4601  014D  294F               	goto	u2971
  4602  014E  07DB               	addwf	___flmul@grs+1,f
  4603  014F                     u2971:
  4604  014F  0856               	movf	??___flmul+2,w
  4605  0150  1103               	clrz
  4606  0151  1803               	skipnc
  4607  0152  3E01               	addlw	1
  4608  0153  1903               	skipnz
  4609  0154  2956               	goto	u2972
  4610  0155  07DC               	addwf	___flmul@grs+2,f
  4611  0156                     u2972:
  4612  0156  0857               	movf	??___flmul+3,w
  4613  0157  1103               	clrz
  4614  0158  1803               	skipnc
  4615  0159  3E01               	addlw	1
  4616  015A  1903               	skipnz
  4617  015B  295D               	goto	u2973
  4618  015C  07DD               	addwf	___flmul@grs+3,f
  4619  015D                     u2973:
  4620  015D                     l2260:
  4621  015D  0865               	movf	___flmul@temp+1,w
  4622  015E  00D4               	movwf	??___flmul
  4623  015F  01D5               	clrf	??___flmul+1
  4624  0160  01D6               	clrf	??___flmul+2
  4625  0161  01D7               	clrf	??___flmul+3
  4626  0162  0854               	movf	??___flmul,w
  4627  0163  07E0               	addwf	___flmul@prod,f
  4628  0164  0855               	movf	??___flmul+1,w
  4629  0165  1103               	clrz
  4630  0166  1803               	skipnc
  4631  0167  3E01               	addlw	1
  4632  0168  1903               	skipnz
  4633  0169  296B               	goto	u2981
  4634  016A  07E1               	addwf	___flmul@prod+1,f
  4635  016B                     u2981:
  4636  016B  0856               	movf	??___flmul+2,w
  4637  016C  1103               	clrz
  4638  016D  1803               	skipnc
  4639  016E  3E01               	addlw	1
  4640  016F  1903               	skipnz
  4641  0170  2972               	goto	u2982
  4642  0171  07E2               	addwf	___flmul@prod+2,f
  4643  0172                     u2982:
  4644  0172  0857               	movf	??___flmul+3,w
  4645  0173  1103               	clrz
  4646  0174  1803               	skipnc
  4647  0175  3E01               	addlw	1
  4648  0176  1903               	skipnz
  4649  0177  2979               	goto	u2983
  4650  0178  07E3               	addwf	___flmul@prod+3,f
  4651  0179                     u2983:
  4652  0179  084E               	movf	___flmul@b+2,w
  4653  017A  00D4               	movwf	??___flmul
  4654  017B  0854               	movf	??___flmul,w
  4655  017C  00F0               	movwf	__Umul8_16@multiplicand
  4656  017D  0850               	movf	___flmul@a,w
  4657  017E  160A  118A  26C9  120A  118A  	fcall	__Umul8_16
  4658  0183  0871               	movf	?__Umul8_16+1,w
  4659  0184  1283               	bcf	3,5	;RP0=0, select bank0
  4660  0185  1303               	bcf	3,6	;RP1=0, select bank0
  4661  0186  00E5               	movwf	___flmul@temp+1
  4662  0187  0870               	movf	?__Umul8_16,w
  4663  0188  00E4               	movwf	___flmul@temp
  4664  0189                     l2262:
  4665  0189  0864               	movf	___flmul@temp,w
  4666  018A  00D4               	movwf	??___flmul
  4667  018B  01D5               	clrf	??___flmul+1
  4668  018C  01D6               	clrf	??___flmul+2
  4669  018D  01D7               	clrf	??___flmul+3
  4670  018E  0854               	movf	??___flmul,w
  4671  018F  07DA               	addwf	___flmul@grs,f
  4672  0190  0855               	movf	??___flmul+1,w
  4673  0191  1103               	clrz
  4674  0192  1803               	skipnc
  4675  0193  3E01               	addlw	1
  4676  0194  1903               	skipnz
  4677  0195  2997               	goto	u2991
  4678  0196  07DB               	addwf	___flmul@grs+1,f
  4679  0197                     u2991:
  4680  0197  0856               	movf	??___flmul+2,w
  4681  0198  1103               	clrz
  4682  0199  1803               	skipnc
  4683  019A  3E01               	addlw	1
  4684  019B  1903               	skipnz
  4685  019C  299E               	goto	u2992
  4686  019D  07DC               	addwf	___flmul@grs+2,f
  4687  019E                     u2992:
  4688  019E  0857               	movf	??___flmul+3,w
  4689  019F  1103               	clrz
  4690  01A0  1803               	skipnc
  4691  01A1  3E01               	addlw	1
  4692  01A2  1903               	skipnz
  4693  01A3  29A5               	goto	u2993
  4694  01A4  07DD               	addwf	___flmul@grs+3,f
  4695  01A5                     u2993:
  4696  01A5                     l2264:
  4697  01A5  0865               	movf	___flmul@temp+1,w
  4698  01A6  00D4               	movwf	??___flmul
  4699  01A7  01D5               	clrf	??___flmul+1
  4700  01A8  01D6               	clrf	??___flmul+2
  4701  01A9  01D7               	clrf	??___flmul+3
  4702  01AA  0854               	movf	??___flmul,w
  4703  01AB  07E0               	addwf	___flmul@prod,f
  4704  01AC  0855               	movf	??___flmul+1,w
  4705  01AD  1103               	clrz
  4706  01AE  1803               	skipnc
  4707  01AF  3E01               	addlw	1
  4708  01B0  1903               	skipnz
  4709  01B1  29B3               	goto	u3001
  4710  01B2  07E1               	addwf	___flmul@prod+1,f
  4711  01B3                     u3001:
  4712  01B3  0856               	movf	??___flmul+2,w
  4713  01B4  1103               	clrz
  4714  01B5  1803               	skipnc
  4715  01B6  3E01               	addlw	1
  4716  01B7  1903               	skipnz
  4717  01B8  29BA               	goto	u3002
  4718  01B9  07E2               	addwf	___flmul@prod+2,f
  4719  01BA                     u3002:
  4720  01BA  0857               	movf	??___flmul+3,w
  4721  01BB  1103               	clrz
  4722  01BC  1803               	skipnc
  4723  01BD  3E01               	addlw	1
  4724  01BE  1903               	skipnz
  4725  01BF  29C1               	goto	u3003
  4726  01C0  07E3               	addwf	___flmul@prod+3,f
  4727  01C1                     u3003:
  4728  01C1                     l2266:
  4729  01C1  3008               	movlw	8
  4730  01C2  00D4               	movwf	??___flmul
  4731  01C3                     u3015:
  4732  01C3  1003               	clrc
  4733  01C4  0DDA               	rlf	___flmul@grs,f
  4734  01C5  0DDB               	rlf	___flmul@grs+1,f
  4735  01C6  0DDC               	rlf	___flmul@grs+2,f
  4736  01C7  0DDD               	rlf	___flmul@grs+3,f
  4737  01C8  0BD4               	decfsz	??___flmul,f
  4738  01C9  29C3               	goto	u3015
  4739  01CA                     l2268:
  4740  01CA  084D               	movf	___flmul@b+1,w
  4741  01CB  00D4               	movwf	??___flmul
  4742  01CC  0854               	movf	??___flmul,w
  4743  01CD  00F0               	movwf	__Umul8_16@multiplicand
  4744  01CE  0850               	movf	___flmul@a,w
  4745  01CF  160A  118A  26C9  120A  118A  	fcall	__Umul8_16
  4746  01D4  0871               	movf	?__Umul8_16+1,w
  4747  01D5  1283               	bcf	3,5	;RP0=0, select bank0
  4748  01D6  1303               	bcf	3,6	;RP1=0, select bank0
  4749  01D7  00E5               	movwf	___flmul@temp+1
  4750  01D8  0870               	movf	?__Umul8_16,w
  4751  01D9  00E4               	movwf	___flmul@temp
  4752  01DA                     l2270:
  4753  01DA  0864               	movf	___flmul@temp,w
  4754  01DB  00D4               	movwf	??___flmul
  4755  01DC  0865               	movf	___flmul@temp+1,w
  4756  01DD  00D5               	movwf	??___flmul+1
  4757  01DE  01D6               	clrf	??___flmul+2
  4758  01DF  01D7               	clrf	??___flmul+3
  4759  01E0  0854               	movf	??___flmul,w
  4760  01E1  07DA               	addwf	___flmul@grs,f
  4761  01E2  0855               	movf	??___flmul+1,w
  4762  01E3  1103               	clrz
  4763  01E4  1803               	skipnc
  4764  01E5  3E01               	addlw	1
  4765  01E6  1903               	skipnz
  4766  01E7  29E9               	goto	u3021
  4767  01E8  07DB               	addwf	___flmul@grs+1,f
  4768  01E9                     u3021:
  4769  01E9  0856               	movf	??___flmul+2,w
  4770  01EA  1103               	clrz
  4771  01EB  1803               	skipnc
  4772  01EC  3E01               	addlw	1
  4773  01ED  1903               	skipnz
  4774  01EE  29F0               	goto	u3022
  4775  01EF  07DC               	addwf	___flmul@grs+2,f
  4776  01F0                     u3022:
  4777  01F0  0857               	movf	??___flmul+3,w
  4778  01F1  1103               	clrz
  4779  01F2  1803               	skipnc
  4780  01F3  3E01               	addlw	1
  4781  01F4  1903               	skipnz
  4782  01F5  29F7               	goto	u3023
  4783  01F6  07DD               	addwf	___flmul@grs+3,f
  4784  01F7                     u3023:
  4785  01F7                     l2272:
  4786  01F7  084C               	movf	___flmul@b,w
  4787  01F8  00D4               	movwf	??___flmul
  4788  01F9  0854               	movf	??___flmul,w
  4789  01FA  00F0               	movwf	__Umul8_16@multiplicand
  4790  01FB  0851               	movf	___flmul@a+1,w
  4791  01FC  160A  118A  26C9  120A  118A  	fcall	__Umul8_16
  4792  0201  0871               	movf	?__Umul8_16+1,w
  4793  0202  1283               	bcf	3,5	;RP0=0, select bank0
  4794  0203  1303               	bcf	3,6	;RP1=0, select bank0
  4795  0204  00E5               	movwf	___flmul@temp+1
  4796  0205  0870               	movf	?__Umul8_16,w
  4797  0206  00E4               	movwf	___flmul@temp
  4798  0207                     l2274:
  4799  0207  0864               	movf	___flmul@temp,w
  4800  0208  00D4               	movwf	??___flmul
  4801  0209  0865               	movf	___flmul@temp+1,w
  4802  020A  00D5               	movwf	??___flmul+1
  4803  020B  01D6               	clrf	??___flmul+2
  4804  020C  01D7               	clrf	??___flmul+3
  4805  020D  0854               	movf	??___flmul,w
  4806  020E  07DA               	addwf	___flmul@grs,f
  4807  020F  0855               	movf	??___flmul+1,w
  4808  0210  1103               	clrz
  4809  0211  1803               	skipnc
  4810  0212  3E01               	addlw	1
  4811  0213  1903               	skipnz
  4812  0214  2A16               	goto	u3031
  4813  0215  07DB               	addwf	___flmul@grs+1,f
  4814  0216                     u3031:
  4815  0216  0856               	movf	??___flmul+2,w
  4816  0217  1103               	clrz
  4817  0218  1803               	skipnc
  4818  0219  3E01               	addlw	1
  4819  021A  1903               	skipnz
  4820  021B  2A1D               	goto	u3032
  4821  021C  07DC               	addwf	___flmul@grs+2,f
  4822  021D                     u3032:
  4823  021D  0857               	movf	??___flmul+3,w
  4824  021E  1103               	clrz
  4825  021F  1803               	skipnc
  4826  0220  3E01               	addlw	1
  4827  0221  1903               	skipnz
  4828  0222  2A24               	goto	u3033
  4829  0223  07DD               	addwf	___flmul@grs+3,f
  4830  0224                     u3033:
  4831  0224                     l2276:
  4832  0224  3008               	movlw	8
  4833  0225  00D4               	movwf	??___flmul
  4834  0226                     u3045:
  4835  0226  1003               	clrc
  4836  0227  0DDA               	rlf	___flmul@grs,f
  4837  0228  0DDB               	rlf	___flmul@grs+1,f
  4838  0229  0DDC               	rlf	___flmul@grs+2,f
  4839  022A  0DDD               	rlf	___flmul@grs+3,f
  4840  022B  0BD4               	decfsz	??___flmul,f
  4841  022C  2A26               	goto	u3045
  4842  022D  084C               	movf	___flmul@b,w
  4843  022E  00D4               	movwf	??___flmul
  4844  022F  0854               	movf	??___flmul,w
  4845  0230  00F0               	movwf	__Umul8_16@multiplicand
  4846  0231  0850               	movf	___flmul@a,w
  4847  0232  160A  118A  26C9  120A  118A  	fcall	__Umul8_16
  4848  0237  0871               	movf	?__Umul8_16+1,w
  4849  0238  1283               	bcf	3,5	;RP0=0, select bank0
  4850  0239  1303               	bcf	3,6	;RP1=0, select bank0
  4851  023A  00E5               	movwf	___flmul@temp+1
  4852  023B  0870               	movf	?__Umul8_16,w
  4853  023C  00E4               	movwf	___flmul@temp
  4854  023D                     l2278:
  4855  023D  0864               	movf	___flmul@temp,w
  4856  023E  00D4               	movwf	??___flmul
  4857  023F  0865               	movf	___flmul@temp+1,w
  4858  0240  00D5               	movwf	??___flmul+1
  4859  0241  01D6               	clrf	??___flmul+2
  4860  0242  01D7               	clrf	??___flmul+3
  4861  0243  0854               	movf	??___flmul,w
  4862  0244  07DA               	addwf	___flmul@grs,f
  4863  0245  0855               	movf	??___flmul+1,w
  4864  0246  1103               	clrz
  4865  0247  1803               	skipnc
  4866  0248  3E01               	addlw	1
  4867  0249  1903               	skipnz
  4868  024A  2A4C               	goto	u3051
  4869  024B  07DB               	addwf	___flmul@grs+1,f
  4870  024C                     u3051:
  4871  024C  0856               	movf	??___flmul+2,w
  4872  024D  1103               	clrz
  4873  024E  1803               	skipnc
  4874  024F  3E01               	addlw	1
  4875  0250  1903               	skipnz
  4876  0251  2A53               	goto	u3052
  4877  0252  07DC               	addwf	___flmul@grs+2,f
  4878  0253                     u3052:
  4879  0253  0857               	movf	??___flmul+3,w
  4880  0254  1103               	clrz
  4881  0255  1803               	skipnc
  4882  0256  3E01               	addlw	1
  4883  0257  1903               	skipnz
  4884  0258  2A5A               	goto	u3053
  4885  0259  07DD               	addwf	___flmul@grs+3,f
  4886  025A                     u3053:
  4887  025A                     l2280:
  4888  025A  084D               	movf	___flmul@b+1,w
  4889  025B  00D4               	movwf	??___flmul
  4890  025C  0854               	movf	??___flmul,w
  4891  025D  00F0               	movwf	__Umul8_16@multiplicand
  4892  025E  0852               	movf	___flmul@a+2,w
  4893  025F  160A  118A  26C9  120A  118A  	fcall	__Umul8_16
  4894  0264  0871               	movf	?__Umul8_16+1,w
  4895  0265  1283               	bcf	3,5	;RP0=0, select bank0
  4896  0266  1303               	bcf	3,6	;RP1=0, select bank0
  4897  0267  00E5               	movwf	___flmul@temp+1
  4898  0268  0870               	movf	?__Umul8_16,w
  4899  0269  00E4               	movwf	___flmul@temp
  4900  026A  0864               	movf	___flmul@temp,w
  4901  026B  00D4               	movwf	??___flmul
  4902  026C  0865               	movf	___flmul@temp+1,w
  4903  026D  00D5               	movwf	??___flmul+1
  4904  026E  01D6               	clrf	??___flmul+2
  4905  026F  01D7               	clrf	??___flmul+3
  4906  0270  0854               	movf	??___flmul,w
  4907  0271  07E0               	addwf	___flmul@prod,f
  4908  0272  0855               	movf	??___flmul+1,w
  4909  0273  1103               	clrz
  4910  0274  1803               	skipnc
  4911  0275  3E01               	addlw	1
  4912  0276  1903               	skipnz
  4913  0277  2A79               	goto	u3061
  4914  0278  07E1               	addwf	___flmul@prod+1,f
  4915  0279                     u3061:
  4916  0279  0856               	movf	??___flmul+2,w
  4917  027A  1103               	clrz
  4918  027B  1803               	skipnc
  4919  027C  3E01               	addlw	1
  4920  027D  1903               	skipnz
  4921  027E  2A80               	goto	u3062
  4922  027F  07E2               	addwf	___flmul@prod+2,f
  4923  0280                     u3062:
  4924  0280  0857               	movf	??___flmul+3,w
  4925  0281  1103               	clrz
  4926  0282  1803               	skipnc
  4927  0283  3E01               	addlw	1
  4928  0284  1903               	skipnz
  4929  0285  2A87               	goto	u3063
  4930  0286  07E3               	addwf	___flmul@prod+3,f
  4931  0287                     u3063:
  4932  0287                     l2282:
  4933  0287  084E               	movf	___flmul@b+2,w
  4934  0288  00D4               	movwf	??___flmul
  4935  0289  0854               	movf	??___flmul,w
  4936  028A  00F0               	movwf	__Umul8_16@multiplicand
  4937  028B  0851               	movf	___flmul@a+1,w
  4938  028C  160A  118A  26C9  120A  118A  	fcall	__Umul8_16
  4939  0291  0871               	movf	?__Umul8_16+1,w
  4940  0292  1283               	bcf	3,5	;RP0=0, select bank0
  4941  0293  1303               	bcf	3,6	;RP1=0, select bank0
  4942  0294  00E5               	movwf	___flmul@temp+1
  4943  0295  0870               	movf	?__Umul8_16,w
  4944  0296  00E4               	movwf	___flmul@temp
  4945  0297                     l2284:
  4946  0297  0864               	movf	___flmul@temp,w
  4947  0298  00D4               	movwf	??___flmul
  4948  0299  0865               	movf	___flmul@temp+1,w
  4949  029A  00D5               	movwf	??___flmul+1
  4950  029B  01D6               	clrf	??___flmul+2
  4951  029C  01D7               	clrf	??___flmul+3
  4952  029D  0854               	movf	??___flmul,w
  4953  029E  07E0               	addwf	___flmul@prod,f
  4954  029F  0855               	movf	??___flmul+1,w
  4955  02A0  1103               	clrz
  4956  02A1  1803               	skipnc
  4957  02A2  3E01               	addlw	1
  4958  02A3  1903               	skipnz
  4959  02A4  2AA6               	goto	u3071
  4960  02A5  07E1               	addwf	___flmul@prod+1,f
  4961  02A6                     u3071:
  4962  02A6  0856               	movf	??___flmul+2,w
  4963  02A7  1103               	clrz
  4964  02A8  1803               	skipnc
  4965  02A9  3E01               	addlw	1
  4966  02AA  1903               	skipnz
  4967  02AB  2AAD               	goto	u3072
  4968  02AC  07E2               	addwf	___flmul@prod+2,f
  4969  02AD                     u3072:
  4970  02AD  0857               	movf	??___flmul+3,w
  4971  02AE  1103               	clrz
  4972  02AF  1803               	skipnc
  4973  02B0  3E01               	addlw	1
  4974  02B1  1903               	skipnz
  4975  02B2  2AB4               	goto	u3073
  4976  02B3  07E3               	addwf	___flmul@prod+3,f
  4977  02B4                     u3073:
  4978  02B4  084E               	movf	___flmul@b+2,w
  4979  02B5  00D4               	movwf	??___flmul
  4980  02B6  0854               	movf	??___flmul,w
  4981  02B7  00F0               	movwf	__Umul8_16@multiplicand
  4982  02B8  0852               	movf	___flmul@a+2,w
  4983  02B9  160A  118A  26C9  120A  118A  	fcall	__Umul8_16
  4984  02BE  0871               	movf	?__Umul8_16+1,w
  4985  02BF  1283               	bcf	3,5	;RP0=0, select bank0
  4986  02C0  1303               	bcf	3,6	;RP1=0, select bank0
  4987  02C1  00E5               	movwf	___flmul@temp+1
  4988  02C2  0870               	movf	?__Umul8_16,w
  4989  02C3  00E4               	movwf	___flmul@temp
  4990  02C4                     l2286:
  4991  02C4  0864               	movf	___flmul@temp,w
  4992  02C5  00D4               	movwf	??___flmul
  4993  02C6  0865               	movf	___flmul@temp+1,w
  4994  02C7  00D5               	movwf	??___flmul+1
  4995  02C8  01D6               	clrf	??___flmul+2
  4996  02C9  01D7               	clrf	??___flmul+3
  4997  02CA  3008               	movlw	8
  4998  02CB                     u3085:
  4999  02CB  1003               	clrc
  5000  02CC  0DD4               	rlf	??___flmul,f
  5001  02CD  0DD5               	rlf	??___flmul+1,f
  5002  02CE  0DD6               	rlf	??___flmul+2,f
  5003  02CF  0DD7               	rlf	??___flmul+3,f
  5004  02D0                     u3080:
  5005  02D0  3EFF               	addlw	-1
  5006  02D1  1D03               	skipz
  5007  02D2  2ACB               	goto	u3085
  5008  02D3  0854               	movf	??___flmul,w
  5009  02D4  07E0               	addwf	___flmul@prod,f
  5010  02D5  0855               	movf	??___flmul+1,w
  5011  02D6  1103               	clrz
  5012  02D7  1803               	skipnc
  5013  02D8  3E01               	addlw	1
  5014  02D9  1903               	skipnz
  5015  02DA  2ADC               	goto	u3091
  5016  02DB  07E1               	addwf	___flmul@prod+1,f
  5017  02DC                     u3091:
  5018  02DC  0856               	movf	??___flmul+2,w
  5019  02DD  1103               	clrz
  5020  02DE  1803               	skipnc
  5021  02DF  3E01               	addlw	1
  5022  02E0  1903               	skipnz
  5023  02E1  2AE3               	goto	u3092
  5024  02E2  07E2               	addwf	___flmul@prod+2,f
  5025  02E3                     u3092:
  5026  02E3  0857               	movf	??___flmul+3,w
  5027  02E4  1103               	clrz
  5028  02E5  1803               	skipnc
  5029  02E6  3E01               	addlw	1
  5030  02E7  1903               	skipnz
  5031  02E8  2AEA               	goto	u3093
  5032  02E9  07E3               	addwf	___flmul@prod+3,f
  5033  02EA                     u3093:
  5034  02EA                     l2288:
  5035  02EA  085A               	movf	___flmul@grs,w
  5036  02EB  00D4               	movwf	??___flmul
  5037  02EC  085B               	movf	___flmul@grs+1,w
  5038  02ED  00D5               	movwf	??___flmul+1
  5039  02EE  085C               	movf	___flmul@grs+2,w
  5040  02EF  00D6               	movwf	??___flmul+2
  5041  02F0  085D               	movf	___flmul@grs+3,w
  5042  02F1  00D7               	movwf	??___flmul+3
  5043  02F2  3018               	movlw	24
  5044  02F3                     u3105:
  5045  02F3  1003               	clrc
  5046  02F4  0CD7               	rrf	??___flmul+3,f
  5047  02F5  0CD6               	rrf	??___flmul+2,f
  5048  02F6  0CD5               	rrf	??___flmul+1,f
  5049  02F7  0CD4               	rrf	??___flmul,f
  5050  02F8                     u3100:
  5051  02F8  3EFF               	addlw	-1
  5052  02F9  1D03               	skipz
  5053  02FA  2AF3               	goto	u3105
  5054  02FB  0854               	movf	??___flmul,w
  5055  02FC  07E0               	addwf	___flmul@prod,f
  5056  02FD  0855               	movf	??___flmul+1,w
  5057  02FE  1103               	clrz
  5058  02FF  1803               	skipnc
  5059  0300  3E01               	addlw	1
  5060  0301  1903               	skipnz
  5061  0302  2B04               	goto	u3111
  5062  0303  07E1               	addwf	___flmul@prod+1,f
  5063  0304                     u3111:
  5064  0304  0856               	movf	??___flmul+2,w
  5065  0305  1103               	clrz
  5066  0306  1803               	skipnc
  5067  0307  3E01               	addlw	1
  5068  0308  1903               	skipnz
  5069  0309  2B0B               	goto	u3112
  5070  030A  07E2               	addwf	___flmul@prod+2,f
  5071  030B                     u3112:
  5072  030B  0857               	movf	??___flmul+3,w
  5073  030C  1103               	clrz
  5074  030D  1803               	skipnc
  5075  030E  3E01               	addlw	1
  5076  030F  1903               	skipnz
  5077  0310  2B12               	goto	u3113
  5078  0311  07E3               	addwf	___flmul@prod+3,f
  5079  0312                     u3113:
  5080  0312                     l2290:
  5081  0312  3008               	movlw	8
  5082  0313  00D4               	movwf	??___flmul
  5083  0314                     u3125:
  5084  0314  1003               	clrc
  5085  0315  0DDA               	rlf	___flmul@grs,f
  5086  0316  0DDB               	rlf	___flmul@grs+1,f
  5087  0317  0DDC               	rlf	___flmul@grs+2,f
  5088  0318  0DDD               	rlf	___flmul@grs+3,f
  5089  0319  0BD4               	decfsz	??___flmul,f
  5090  031A  2B14               	goto	u3125
  5091  031B                     l2292:
  5092  031B  085F               	movf	___flmul@bexp,w
  5093  031C  075E               	addwf	___flmul@aexp,w
  5094  031D  00D4               	movwf	??___flmul
  5095  031E  01D5               	clrf	??___flmul+1
  5096  031F  0DD5               	rlf	??___flmul+1,f
  5097  0320  0854               	movf	??___flmul,w
  5098  0321  3E82               	addlw	130
  5099  0322  00E4               	movwf	___flmul@temp
  5100  0323  0855               	movf	??___flmul+1,w
  5101  0324  1803               	skipnc
  5102  0325  3E01               	addlw	1
  5103  0326  3EFF               	addlw	255
  5104  0327  00E5               	movwf	___flmul@temp+1
  5105  0328  2B46               	goto	l2304
  5106  0329                     l2294:
  5107  0329  3001               	movlw	1
  5108  032A  00D4               	movwf	??___flmul
  5109  032B                     u3135:
  5110  032B  1003               	clrc
  5111  032C  0DE0               	rlf	___flmul@prod,f
  5112  032D  0DE1               	rlf	___flmul@prod+1,f
  5113  032E  0DE2               	rlf	___flmul@prod+2,f
  5114  032F  0DE3               	rlf	___flmul@prod+3,f
  5115  0330  0BD4               	decfsz	??___flmul,f
  5116  0331  2B2B               	goto	u3135
  5117  0332                     l2296:
  5118  0332  1FDD               	btfss	___flmul@grs+3,7
  5119  0333  2B35               	goto	u3141
  5120  0334  2B36               	goto	u3140
  5121  0335                     u3141:
  5122  0335  2B37               	goto	l2300
  5123  0336                     u3140:
  5124  0336                     l2298:
  5125  0336  1460               	bsf	___flmul@prod,0
  5126  0337                     l2300:
  5127  0337  3001               	movlw	1
  5128  0338  00D4               	movwf	??___flmul
  5129  0339                     u3155:
  5130  0339  1003               	clrc
  5131  033A  0DDA               	rlf	___flmul@grs,f
  5132  033B  0DDB               	rlf	___flmul@grs+1,f
  5133  033C  0DDC               	rlf	___flmul@grs+2,f
  5134  033D  0DDD               	rlf	___flmul@grs+3,f
  5135  033E  0BD4               	decfsz	??___flmul,f
  5136  033F  2B39               	goto	u3155
  5137  0340                     l2302:
  5138  0340  30FF               	movlw	255
  5139  0341  07E4               	addwf	___flmul@temp,f
  5140  0342  1803               	skipnc
  5141  0343  0AE5               	incf	___flmul@temp+1,f
  5142  0344  30FF               	movlw	255
  5143  0345  07E5               	addwf	___flmul@temp+1,f
  5144  0346                     l2304:
  5145  0346  1FE2               	btfss	___flmul@prod+2,7
  5146  0347  2B49               	goto	u3161
  5147  0348  2B4A               	goto	u3160
  5148  0349                     u3161:
  5149  0349  2B29               	goto	l2294
  5150  034A                     u3160:
  5151  034A                     l2306:
  5152  034A  01DE               	clrf	___flmul@aexp
  5153  034B                     l2308:
  5154  034B  1FDD               	btfss	___flmul@grs+3,7
  5155  034C  2B4E               	goto	u3171
  5156  034D  2B4F               	goto	u3170
  5157  034E                     u3171:
  5158  034E  2B6B               	goto	l2316
  5159  034F                     u3170:
  5160  034F                     l2310:
  5161  034F  30FF               	movlw	255
  5162  0350  055A               	andwf	___flmul@grs,w
  5163  0351  00D4               	movwf	??___flmul
  5164  0352  30FF               	movlw	255
  5165  0353  055B               	andwf	___flmul@grs+1,w
  5166  0354  00D5               	movwf	??___flmul+1
  5167  0355  30FF               	movlw	255
  5168  0356  055C               	andwf	___flmul@grs+2,w
  5169  0357  00D6               	movwf	??___flmul+2
  5170  0358  307F               	movlw	127
  5171  0359  055D               	andwf	___flmul@grs+3,w
  5172  035A  00D7               	movwf	??___flmul+3
  5173  035B  0857               	movf	??___flmul+3,w
  5174  035C  0456               	iorwf	??___flmul+2,w
  5175  035D  0455               	iorwf	??___flmul+1,w
  5176  035E  0454               	iorwf	??___flmul,w
  5177  035F  1903               	skipnz
  5178  0360  2B62               	goto	u3181
  5179  0361  2B63               	goto	u3180
  5180  0362                     u3181:
  5181  0362  2B66               	goto	l637
  5182  0363                     u3180:
  5183  0363                     l2312:
  5184  0363  01DE               	clrf	___flmul@aexp
  5185  0364  0ADE               	incf	___flmul@aexp,f
  5186  0365  2B6B               	goto	l2316
  5187  0366                     l637:
  5188  0366  1C60               	btfss	___flmul@prod,0
  5189  0367  2B69               	goto	u3191
  5190  0368  2B6A               	goto	u3190
  5191  0369                     u3191:
  5192  0369  2B6B               	goto	l2316
  5193  036A                     u3190:
  5194  036A  2B63               	goto	l2312
  5195  036B                     l2316:
  5196  036B  085E               	movf	___flmul@aexp,w
  5197  036C  1903               	btfsc	3,2
  5198  036D  2B6F               	goto	u3201
  5199  036E  2B70               	goto	u3200
  5200  036F                     u3201:
  5201  036F  2BA1               	goto	l2326
  5202  0370                     u3200:
  5203  0370                     l2318:
  5204  0370  3001               	movlw	1
  5205  0371  07E0               	addwf	___flmul@prod,f
  5206  0372  3000               	movlw	0
  5207  0373  1803               	skipnc
  5208  0374  3001               	movlw	1
  5209  0375  07E1               	addwf	___flmul@prod+1,f
  5210  0376  3000               	movlw	0
  5211  0377  1803               	skipnc
  5212  0378  3001               	movlw	1
  5213  0379  07E2               	addwf	___flmul@prod+2,f
  5214  037A  3000               	movlw	0
  5215  037B  1803               	skipnc
  5216  037C  3001               	movlw	1
  5217  037D  07E3               	addwf	___flmul@prod+3,f
  5218  037E                     l2320:
  5219  037E  1C63               	btfss	___flmul@prod+3,0
  5220  037F  2B81               	goto	u3211
  5221  0380  2B82               	goto	u3210
  5222  0381                     u3211:
  5223  0381  2BA1               	goto	l2326
  5224  0382                     u3210:
  5225  0382                     l2322:
  5226  0382  0860               	movf	___flmul@prod,w
  5227  0383  00D4               	movwf	??___flmul
  5228  0384  0861               	movf	___flmul@prod+1,w
  5229  0385  00D5               	movwf	??___flmul+1
  5230  0386  0862               	movf	___flmul@prod+2,w
  5231  0387  00D6               	movwf	??___flmul+2
  5232  0388  0863               	movf	___flmul@prod+3,w
  5233  0389  00D7               	movwf	??___flmul+3
  5234  038A  3001               	movlw	1
  5235  038B  00D8               	movwf	??___flmul+4
  5236  038C                     u3225:
  5237  038C  0D57               	rlf	??___flmul+3,w
  5238  038D  0CD7               	rrf	??___flmul+3,f
  5239  038E  0CD6               	rrf	??___flmul+2,f
  5240  038F  0CD5               	rrf	??___flmul+1,f
  5241  0390  0CD4               	rrf	??___flmul,f
  5242  0391                     u3220:
  5243  0391  0BD8               	decfsz	??___flmul+4,f
  5244  0392  2B8C               	goto	u3225
  5245  0393  0857               	movf	??___flmul+3,w
  5246  0394  00E3               	movwf	___flmul@prod+3
  5247  0395  0856               	movf	??___flmul+2,w
  5248  0396  00E2               	movwf	___flmul@prod+2
  5249  0397  0855               	movf	??___flmul+1,w
  5250  0398  00E1               	movwf	___flmul@prod+1
  5251  0399  0854               	movf	??___flmul,w
  5252  039A  00E0               	movwf	___flmul@prod
  5253  039B                     l2324:
  5254  039B  3001               	movlw	1
  5255  039C  07E4               	addwf	___flmul@temp,f
  5256  039D  1803               	skipnc
  5257  039E  0AE5               	incf	___flmul@temp+1,f
  5258  039F  3000               	movlw	0
  5259  03A0  07E5               	addwf	___flmul@temp+1,f
  5260  03A1                     l2326:
  5261  03A1  0865               	movf	___flmul@temp+1,w
  5262  03A2  3A80               	xorlw	128
  5263  03A3  00FF               	movwf	btemp+1
  5264  03A4  3080               	movlw	128
  5265  03A5  027F               	subwf	btemp+1,w
  5266  03A6  1D03               	skipz
  5267  03A7  2BAA               	goto	u3235
  5268  03A8  30FF               	movlw	255
  5269  03A9  0264               	subwf	___flmul@temp,w
  5270  03AA                     u3235:
  5271  03AA  1C03               	skipc
  5272  03AB  2BAD               	goto	u3231
  5273  03AC  2BAE               	goto	u3230
  5274  03AD                     u3231:
  5275  03AD  2BB9               	goto	l2330
  5276  03AE                     u3230:
  5277  03AE                     l2328:
  5278  03AE  307F               	movlw	127
  5279  03AF  1283               	bcf	3,5	;RP0=0, select bank0
  5280  03B0  1303               	bcf	3,6	;RP1=0, select bank0
  5281  03B1  00E3               	movwf	___flmul@prod+3
  5282  03B2  3080               	movlw	128
  5283  03B3  00E2               	movwf	___flmul@prod+2
  5284  03B4  3000               	movlw	0
  5285  03B5  00E1               	movwf	___flmul@prod+1
  5286  03B6  3000               	movlw	0
  5287  03B7  00E0               	movwf	___flmul@prod
  5288  03B8  2BEE               	goto	l643
  5289  03B9                     l2330:
  5290  03B9  1283               	bcf	3,5	;RP0=0, select bank0
  5291  03BA  1303               	bcf	3,6	;RP1=0, select bank0
  5292  03BB  0865               	movf	___flmul@temp+1,w
  5293  03BC  3A80               	xorlw	128
  5294  03BD  00FF               	movwf	btemp+1
  5295  03BE  3080               	movlw	128
  5296  03BF  027F               	subwf	btemp+1,w
  5297  03C0  1D03               	skipz
  5298  03C1  2BC4               	goto	u3245
  5299  03C2  3001               	movlw	1
  5300  03C3  0264               	subwf	___flmul@temp,w
  5301  03C4                     u3245:
  5302  03C4  1803               	skipnc
  5303  03C5  2BC7               	goto	u3241
  5304  03C6  2BC8               	goto	u3240
  5305  03C7                     u3241:
  5306  03C7  2BD4               	goto	l2336
  5307  03C8                     u3240:
  5308  03C8                     l2332:
  5309  03C8  3000               	movlw	0
  5310  03C9  1283               	bcf	3,5	;RP0=0, select bank0
  5311  03CA  1303               	bcf	3,6	;RP1=0, select bank0
  5312  03CB  00E3               	movwf	___flmul@prod+3
  5313  03CC  3000               	movlw	0
  5314  03CD  00E2               	movwf	___flmul@prod+2
  5315  03CE  3000               	movlw	0
  5316  03CF  00E1               	movwf	___flmul@prod+1
  5317  03D0  3000               	movlw	0
  5318  03D1  00E0               	movwf	___flmul@prod
  5319  03D2                     l2334:
  5320  03D2  01D9               	clrf	___flmul@sign
  5321  03D3  2BEE               	goto	l643
  5322  03D4                     l2336:
  5323  03D4  1283               	bcf	3,5	;RP0=0, select bank0
  5324  03D5  1303               	bcf	3,6	;RP1=0, select bank0
  5325  03D6  0864               	movf	___flmul@temp,w
  5326  03D7  00D4               	movwf	??___flmul
  5327  03D8  0854               	movf	??___flmul,w
  5328  03D9  00DF               	movwf	___flmul@bexp
  5329  03DA  30FF               	movlw	255
  5330  03DB  05E0               	andwf	___flmul@prod,f
  5331  03DC  30FF               	movlw	255
  5332  03DD  05E1               	andwf	___flmul@prod+1,f
  5333  03DE  307F               	movlw	127
  5334  03DF  05E2               	andwf	___flmul@prod+2,f
  5335  03E0  3000               	movlw	0
  5336  03E1  05E3               	andwf	___flmul@prod+3,f
  5337  03E2                     l2338:
  5338  03E2  1C5F               	btfss	___flmul@bexp,0
  5339  03E3  2BE5               	goto	u3251
  5340  03E4  2BE6               	goto	u3250
  5341  03E5                     u3251:
  5342  03E5  2BE7               	goto	l2342
  5343  03E6                     u3250:
  5344  03E6                     l2340:
  5345  03E6  17E2               	bsf	___flmul@prod+2,7
  5346  03E7                     l2342:
  5347  03E7  085F               	movf	___flmul@bexp,w
  5348  03E8  00D4               	movwf	??___flmul
  5349  03E9  1003               	clrc
  5350  03EA  0C54               	rrf	??___flmul,w
  5351  03EB  00D5               	movwf	??___flmul+1
  5352  03EC  0855               	movf	??___flmul+1,w
  5353  03ED  00E3               	movwf	___flmul@prod+3
  5354  03EE                     l643:
  5355  03EE  0859               	movf	___flmul@sign,w
  5356  03EF  00D4               	movwf	??___flmul
  5357  03F0  0854               	movf	??___flmul,w
  5358  03F1  04E3               	iorwf	___flmul@prod+3,f
  5359  03F2                     l2344:
  5360  03F2  0863               	movf	___flmul@prod+3,w
  5361  03F3  00CF               	movwf	?___flmul+3
  5362  03F4  0862               	movf	___flmul@prod+2,w
  5363  03F5  00CE               	movwf	?___flmul+2
  5364  03F6  0861               	movf	___flmul@prod+1,w
  5365  03F7  00CD               	movwf	?___flmul+1
  5366  03F8  0860               	movf	___flmul@prod,w
  5367  03F9  00CC               	movwf	?___flmul
  5368  03FA                     l631:
  5369  03FA  0008               	return
  5370  03FB                     __end_of___flmul:
  5371                           
  5372                           	psect	text13
  5373  16C9                     __ptext13:	
  5374 ;; *************** function __Umul8_16 *****************
  5375 ;; Defined at:
  5376 ;;		line 4 in file "C:\Program Files\Microchip\xc8\v2.31\pic\sources\c90\common\Umul8_16.c"
  5377 ;; Parameters:    Size  Location     Type
  5378 ;;  multiplier      1    wreg     unsigned char 
  5379 ;;  multiplicand    1    0[COMMON] unsigned char 
  5380 ;; Auto vars:     Size  Location     Type
  5381 ;;  multiplier      1    8[COMMON] unsigned char 
  5382 ;;  word_mpld       2    6[COMMON] unsigned int 
  5383 ;;  product         2    4[COMMON] unsigned int 
  5384 ;; Return value:  Size  Location     Type
  5385 ;;                  2    0[COMMON] unsigned int 
  5386 ;; Registers used:
  5387 ;;		wreg, status,2, status,0
  5388 ;; Tracked objects:
  5389 ;;		On entry : 0/0
  5390 ;;		On exit  : 0/0
  5391 ;;		Unchanged: 0/0
  5392 ;; Data sizes:     COMMON   BANK0   BANK1   BANK3   BANK2
  5393 ;;      Params:         2       0       0       0       0
  5394 ;;      Locals:         5       0       0       0       0
  5395 ;;      Temps:          2       0       0       0       0
  5396 ;;      Totals:         9       0       0       0       0
  5397 ;;Total ram usage:        9 bytes
  5398 ;; Hardware stack levels used:    1
  5399 ;; This function calls:
  5400 ;;		Nothing
  5401 ;; This function is called by:
  5402 ;;		___flmul
  5403 ;; This function uses a non-reentrant model
  5404 ;;
  5405                           
  5406                           
  5407                           ;psect for function __Umul8_16
  5408  16C9                     __Umul8_16:
  5409                           
  5410                           ;incstack = 0
  5411                           ; Regs used in __Umul8_16: [wreg+status,2+status,0]
  5412                           ;__Umul8_16@multiplier stored from wreg
  5413  16C9  00F8               	movwf	__Umul8_16@multiplier
  5414  16CA                     l1898:
  5415  16CA  01F4               	clrf	__Umul8_16@product
  5416  16CB  01F5               	clrf	__Umul8_16@product+1
  5417  16CC                     l1900:
  5418  16CC  0870               	movf	__Umul8_16@multiplicand,w
  5419  16CD  00F2               	movwf	??__Umul8_16
  5420  16CE  01F3               	clrf	??__Umul8_16+1
  5421  16CF  0872               	movf	??__Umul8_16,w
  5422  16D0  00F6               	movwf	__Umul8_16@word_mpld
  5423  16D1  0873               	movf	??__Umul8_16+1,w
  5424  16D2  00F7               	movwf	__Umul8_16@word_mpld+1
  5425  16D3                     l1902:
  5426  16D3  1C78               	btfss	__Umul8_16@multiplier,0
  5427  16D4  2ED6               	goto	u2221
  5428  16D5  2ED7               	goto	u2220
  5429  16D6                     u2221:
  5430  16D6  2EDD               	goto	l650
  5431  16D7                     u2220:
  5432  16D7                     l1904:
  5433  16D7  0876               	movf	__Umul8_16@word_mpld,w
  5434  16D8  07F4               	addwf	__Umul8_16@product,f
  5435  16D9  1803               	skipnc
  5436  16DA  0AF5               	incf	__Umul8_16@product+1,f
  5437  16DB  0877               	movf	__Umul8_16@word_mpld+1,w
  5438  16DC  07F5               	addwf	__Umul8_16@product+1,f
  5439  16DD                     l650:
  5440  16DD  3001               	movlw	1
  5441  16DE                     u2235:
  5442  16DE  1003               	clrc
  5443  16DF  0DF6               	rlf	__Umul8_16@word_mpld,f
  5444  16E0  0DF7               	rlf	__Umul8_16@word_mpld+1,f
  5445  16E1  3EFF               	addlw	-1
  5446  16E2  1D03               	skipz
  5447  16E3  2EDE               	goto	u2235
  5448  16E4  1003               	clrc
  5449  16E5  0CF8               	rrf	__Umul8_16@multiplier,f
  5450  16E6                     l1906:
  5451  16E6  0878               	movf	__Umul8_16@multiplier,w
  5452  16E7  1D03               	btfss	3,2
  5453  16E8  2EEA               	goto	u2241
  5454  16E9  2EEB               	goto	u2240
  5455  16EA                     u2241:
  5456  16EA  2ED3               	goto	l1902
  5457  16EB                     u2240:
  5458  16EB                     l1908:
  5459  16EB  0875               	movf	__Umul8_16@product+1,w
  5460  16EC  00F1               	movwf	?__Umul8_16+1
  5461  16ED  0874               	movf	__Umul8_16@product,w
  5462  16EE  00F0               	movwf	?__Umul8_16
  5463  16EF                     l652:
  5464  16EF  0008               	return
  5465  16F0                     __end_of__Umul8_16:
  5466                           
  5467                           	psect	text14
  5468  089B                     __ptext14:	
  5469 ;; *************** function ___flge *****************
  5470 ;; Defined at:
  5471 ;;		line 4 in file "C:\Program Files\Microchip\xc8\v2.31\pic\sources\c90\common\flge.c"
  5472 ;; Parameters:    Size  Location     Type
  5473 ;;  ff1             4    0[COMMON] unsigned int 
  5474 ;;  ff2             4    4[COMMON] unsigned int 
  5475 ;; Auto vars:     Size  Location     Type
  5476 ;;		None
  5477 ;; Return value:  Size  Location     Type
  5478 ;;		None               void
  5479 ;; Registers used:
  5480 ;;		wreg, status,2, status,0
  5481 ;; Tracked objects:
  5482 ;;		On entry : 0/0
  5483 ;;		On exit  : 0/0
  5484 ;;		Unchanged: 0/0
  5485 ;; Data sizes:     COMMON   BANK0   BANK1   BANK3   BANK2
  5486 ;;      Params:         8       0       0       0       0
  5487 ;;      Locals:         0       0       0       0       0
  5488 ;;      Temps:          4       0       0       0       0
  5489 ;;      Totals:        12       0       0       0       0
  5490 ;;Total ram usage:       12 bytes
  5491 ;; Hardware stack levels used:    1
  5492 ;; This function calls:
  5493 ;;		Nothing
  5494 ;; This function is called by:
  5495 ;;		_convert
  5496 ;; This function uses a non-reentrant model
  5497 ;;
  5498                           
  5499                           
  5500                           ;psect for function ___flge
  5501  089B                     ___flge:
  5502  089B                     l2004:	
  5503                           ;incstack = 0
  5504                           ; Regs used in ___flge: [wreg+status,2+status,0]
  5505                           
  5506  089B  3000               	movlw	0
  5507  089C  0570               	andwf	___flge@ff1,w
  5508  089D  00F8               	movwf	??___flge
  5509  089E  3000               	movlw	0
  5510  089F  0571               	andwf	___flge@ff1+1,w
  5511  08A0  00F9               	movwf	??___flge+1
  5512  08A1  3080               	movlw	128
  5513  08A2  0572               	andwf	___flge@ff1+2,w
  5514  08A3  00FA               	movwf	??___flge+2
  5515  08A4  307F               	movlw	127
  5516  08A5  0573               	andwf	___flge@ff1+3,w
  5517  08A6  00FB               	movwf	??___flge+3
  5518  08A7  087B               	movf	??___flge+3,w
  5519  08A8  047A               	iorwf	??___flge+2,w
  5520  08A9  0479               	iorwf	??___flge+1,w
  5521  08AA  0478               	iorwf	??___flge,w
  5522  08AB  1D03               	skipz
  5523  08AC  28AE               	goto	u2431
  5524  08AD  28AF               	goto	u2430
  5525  08AE                     u2431:
  5526  08AE  28B7               	goto	l416
  5527  08AF                     u2430:
  5528  08AF                     l2006:
  5529  08AF  3000               	movlw	0
  5530  08B0  00F3               	movwf	___flge@ff1+3
  5531  08B1  3000               	movlw	0
  5532  08B2  00F2               	movwf	___flge@ff1+2
  5533  08B3  3000               	movlw	0
  5534  08B4  00F1               	movwf	___flge@ff1+1
  5535  08B5  3000               	movlw	0
  5536  08B6  00F0               	movwf	___flge@ff1
  5537  08B7                     l416:
  5538  08B7  3000               	movlw	0
  5539  08B8  0574               	andwf	___flge@ff2,w
  5540  08B9  00F8               	movwf	??___flge
  5541  08BA  3000               	movlw	0
  5542  08BB  0575               	andwf	___flge@ff2+1,w
  5543  08BC  00F9               	movwf	??___flge+1
  5544  08BD  3080               	movlw	128
  5545  08BE  0576               	andwf	___flge@ff2+2,w
  5546  08BF  00FA               	movwf	??___flge+2
  5547  08C0  307F               	movlw	127
  5548  08C1  0577               	andwf	___flge@ff2+3,w
  5549  08C2  00FB               	movwf	??___flge+3
  5550  08C3  087B               	movf	??___flge+3,w
  5551  08C4  047A               	iorwf	??___flge+2,w
  5552  08C5  0479               	iorwf	??___flge+1,w
  5553  08C6  0478               	iorwf	??___flge,w
  5554  08C7  1D03               	skipz
  5555  08C8  28CA               	goto	u2441
  5556  08C9  28CB               	goto	u2440
  5557  08CA                     u2441:
  5558  08CA  28D3               	goto	l2010
  5559  08CB                     u2440:
  5560  08CB                     l2008:
  5561  08CB  3000               	movlw	0
  5562  08CC  00F7               	movwf	___flge@ff2+3
  5563  08CD  3000               	movlw	0
  5564  08CE  00F6               	movwf	___flge@ff2+2
  5565  08CF  3000               	movlw	0
  5566  08D0  00F5               	movwf	___flge@ff2+1
  5567  08D1  3000               	movlw	0
  5568  08D2  00F4               	movwf	___flge@ff2
  5569  08D3                     l2010:
  5570  08D3  1FF3               	btfss	___flge@ff1+3,7
  5571  08D4  28D6               	goto	u2451
  5572  08D5  28D7               	goto	u2450
  5573  08D6                     u2451:
  5574  08D6  28FB               	goto	l2014
  5575  08D7                     u2450:
  5576  08D7                     l2012:
  5577  08D7  3000               	movlw	0
  5578  08D8  00F8               	movwf	??___flge
  5579  08D9  3000               	movlw	0
  5580  08DA  00F9               	movwf	??___flge+1
  5581  08DB  3000               	movlw	0
  5582  08DC  00FA               	movwf	??___flge+2
  5583  08DD  3080               	movlw	128
  5584  08DE  00FB               	movwf	??___flge+3
  5585  08DF  0870               	movf	___flge@ff1,w
  5586  08E0  02F8               	subwf	??___flge,f
  5587  08E1  0871               	movf	___flge@ff1+1,w
  5588  08E2  1C03               	skipc
  5589  08E3  0F71               	incfsz	___flge@ff1+1,w
  5590  08E4  28E6               	goto	u2461
  5591  08E5  28E7               	goto	u2462
  5592  08E6                     u2461:
  5593  08E6  02F9               	subwf	??___flge+1,f
  5594  08E7                     u2462:
  5595  08E7  0872               	movf	___flge@ff1+2,w
  5596  08E8  1C03               	skipc
  5597  08E9  0F72               	incfsz	___flge@ff1+2,w
  5598  08EA  28EC               	goto	u2463
  5599  08EB  28ED               	goto	u2464
  5600  08EC                     u2463:
  5601  08EC  02FA               	subwf	??___flge+2,f
  5602  08ED                     u2464:
  5603  08ED  0873               	movf	___flge@ff1+3,w
  5604  08EE  1C03               	skipc
  5605  08EF  0F73               	incfsz	___flge@ff1+3,w
  5606  08F0  28F2               	goto	u2465
  5607  08F1  28F3               	goto	u2466
  5608  08F2                     u2465:
  5609  08F2  02FB               	subwf	??___flge+3,f
  5610  08F3                     u2466:
  5611  08F3  087B               	movf	??___flge+3,w
  5612  08F4  00F3               	movwf	___flge@ff1+3
  5613  08F5  087A               	movf	??___flge+2,w
  5614  08F6  00F2               	movwf	___flge@ff1+2
  5615  08F7  0879               	movf	??___flge+1,w
  5616  08F8  00F1               	movwf	___flge@ff1+1
  5617  08F9  0878               	movf	??___flge,w
  5618  08FA  00F0               	movwf	___flge@ff1
  5619  08FB                     l2014:
  5620  08FB  1FF7               	btfss	___flge@ff2+3,7
  5621  08FC  28FE               	goto	u2471
  5622  08FD  28FF               	goto	u2470
  5623  08FE                     u2471:
  5624  08FE  2923               	goto	l419
  5625  08FF                     u2470:
  5626  08FF                     l2016:
  5627  08FF  3000               	movlw	0
  5628  0900  00F8               	movwf	??___flge
  5629  0901  3000               	movlw	0
  5630  0902  00F9               	movwf	??___flge+1
  5631  0903  3000               	movlw	0
  5632  0904  00FA               	movwf	??___flge+2
  5633  0905  3080               	movlw	128
  5634  0906  00FB               	movwf	??___flge+3
  5635  0907  0874               	movf	___flge@ff2,w
  5636  0908  02F8               	subwf	??___flge,f
  5637  0909  0875               	movf	___flge@ff2+1,w
  5638  090A  1C03               	skipc
  5639  090B  0F75               	incfsz	___flge@ff2+1,w
  5640  090C  290E               	goto	u2481
  5641  090D  290F               	goto	u2482
  5642  090E                     u2481:
  5643  090E  02F9               	subwf	??___flge+1,f
  5644  090F                     u2482:
  5645  090F  0876               	movf	___flge@ff2+2,w
  5646  0910  1C03               	skipc
  5647  0911  0F76               	incfsz	___flge@ff2+2,w
  5648  0912  2914               	goto	u2483
  5649  0913  2915               	goto	u2484
  5650  0914                     u2483:
  5651  0914  02FA               	subwf	??___flge+2,f
  5652  0915                     u2484:
  5653  0915  0877               	movf	___flge@ff2+3,w
  5654  0916  1C03               	skipc
  5655  0917  0F77               	incfsz	___flge@ff2+3,w
  5656  0918  291A               	goto	u2485
  5657  0919  291B               	goto	u2486
  5658  091A                     u2485:
  5659  091A  02FB               	subwf	??___flge+3,f
  5660  091B                     u2486:
  5661  091B  087B               	movf	??___flge+3,w
  5662  091C  00F7               	movwf	___flge@ff2+3
  5663  091D  087A               	movf	??___flge+2,w
  5664  091E  00F6               	movwf	___flge@ff2+2
  5665  091F  0879               	movf	??___flge+1,w
  5666  0920  00F5               	movwf	___flge@ff2+1
  5667  0921  0878               	movf	??___flge,w
  5668  0922  00F4               	movwf	___flge@ff2
  5669  0923                     l419:
  5670  0923  3080               	movlw	128
  5671  0924  06F3               	xorwf	___flge@ff1+3,f
  5672  0925  3080               	movlw	128
  5673  0926  06F7               	xorwf	___flge@ff2+3,f
  5674  0927  0877               	movf	___flge@ff2+3,w
  5675  0928  0273               	subwf	___flge@ff1+3,w
  5676  0929  1D03               	skipz
  5677  092A  2935               	goto	u2495
  5678  092B  0876               	movf	___flge@ff2+2,w
  5679  092C  0272               	subwf	___flge@ff1+2,w
  5680  092D  1D03               	skipz
  5681  092E  2935               	goto	u2495
  5682  092F  0875               	movf	___flge@ff2+1,w
  5683  0930  0271               	subwf	___flge@ff1+1,w
  5684  0931  1D03               	skipz
  5685  0932  2935               	goto	u2495
  5686  0933  0874               	movf	___flge@ff2,w
  5687  0934  0270               	subwf	___flge@ff1,w
  5688  0935                     u2495:
  5689  0935  1803               	skipnc
  5690  0936  2938               	goto	u2491
  5691  0937  2939               	goto	u2490
  5692  0938                     u2491:
  5693  0938  293B               	goto	l2020
  5694  0939                     u2490:
  5695  0939                     l2018:
  5696  0939  1003               	clrc
  5697  093A  293C               	goto	l420
  5698  093B                     l2020:
  5699  093B  1403               	setc
  5700  093C                     l420:
  5701  093C  0008               	return
  5702  093D                     __end_of___flge:
  5703                           
  5704                           	psect	text15
  5705  0B8B                     __ptext15:	
  5706 ;; *************** function ___fldiv *****************
  5707 ;; Defined at:
  5708 ;;		line 8 in file "C:\Program Files\Microchip\xc8\v2.31\pic\sources\c90\common\sprcdiv.c"
  5709 ;; Parameters:    Size  Location     Type
  5710 ;;  a               4   18[BANK0 ] unsigned int 
  5711 ;;  b               4   22[BANK0 ] unsigned int 
  5712 ;; Auto vars:     Size  Location     Type
  5713 ;;  grs             4   38[BANK0 ] unsigned long 
  5714 ;;  rem             4   31[BANK0 ] unsigned long 
  5715 ;;  new_exp         2   36[BANK0 ] int 
  5716 ;;  aexp            1   43[BANK0 ] unsigned char 
  5717 ;;  bexp            1   42[BANK0 ] unsigned char 
  5718 ;;  sign            1   35[BANK0 ] unsigned char 
  5719 ;; Return value:  Size  Location     Type
  5720 ;;                  4   18[BANK0 ] unsigned char 
  5721 ;; Registers used:
  5722 ;;		wreg, status,2, status,0, btemp+1
  5723 ;; Tracked objects:
  5724 ;;		On entry : 0/0
  5725 ;;		On exit  : 0/0
  5726 ;;		Unchanged: 0/0
  5727 ;; Data sizes:     COMMON   BANK0   BANK1   BANK3   BANK2
  5728 ;;      Params:         0       8       0       0       0
  5729 ;;      Locals:         0      13       0       0       0
  5730 ;;      Temps:          0       5       0       0       0
  5731 ;;      Totals:         0      26       0       0       0
  5732 ;;Total ram usage:       26 bytes
  5733 ;; Hardware stack levels used:    1
  5734 ;; This function calls:
  5735 ;;		Nothing
  5736 ;; This function is called by:
  5737 ;;		_main
  5738 ;;		_convert
  5739 ;; This function uses a non-reentrant model
  5740 ;;
  5741                           
  5742                           
  5743                           ;psect for function ___fldiv
  5744  0B8B                     ___fldiv:
  5745  0B8B                     l2066:	
  5746                           ;incstack = 0
  5747                           ; Regs used in ___fldiv: [wreg+status,2+status,0+btemp+1]
  5748                           
  5749  0B8B  1283               	bcf	3,5	;RP0=0, select bank0
  5750  0B8C  1303               	bcf	3,6	;RP1=0, select bank0
  5751  0B8D  0839               	movf	___fldiv@b+3,w
  5752  0B8E  3980               	andlw	128
  5753  0B8F  00BA               	movwf	??___fldiv
  5754  0B90  083A               	movf	??___fldiv,w
  5755  0B91  00C3               	movwf	___fldiv@sign
  5756  0B92                     l2068:
  5757  0B92  0839               	movf	___fldiv@b+3,w
  5758  0B93  00BA               	movwf	??___fldiv
  5759  0B94  073A               	addwf	??___fldiv,w
  5760  0B95  00BB               	movwf	??___fldiv+1
  5761  0B96  083B               	movf	??___fldiv+1,w
  5762  0B97  00CA               	movwf	___fldiv@bexp
  5763  0B98                     l2070:
  5764  0B98  1FB8               	btfss	___fldiv@b+2,7
  5765  0B99  2B9B               	goto	u2601
  5766  0B9A  2B9C               	goto	u2600
  5767  0B9B                     u2601:
  5768  0B9B  2B9D               	goto	l2074
  5769  0B9C                     u2600:
  5770  0B9C                     l2072:
  5771  0B9C  144A               	bsf	___fldiv@bexp,0
  5772  0B9D                     l2074:
  5773  0B9D  084A               	movf	___fldiv@bexp,w
  5774  0B9E  1903               	btfsc	3,2
  5775  0B9F  2BA1               	goto	u2611
  5776  0BA0  2BA2               	goto	u2610
  5777  0BA1                     u2611:
  5778  0BA1  2BB2               	goto	l2084
  5779  0BA2                     u2610:
  5780  0BA2                     l2076:
  5781  0BA2  0A4A               	incf	___fldiv@bexp,w
  5782  0BA3  1D03               	btfss	3,2
  5783  0BA4  2BA6               	goto	u2621
  5784  0BA5  2BA7               	goto	u2620
  5785  0BA6                     u2621:
  5786  0BA6  2BAF               	goto	l2080
  5787  0BA7                     u2620:
  5788  0BA7                     l2078:
  5789  0BA7  3000               	movlw	0
  5790  0BA8  00B9               	movwf	___fldiv@b+3
  5791  0BA9  3000               	movlw	0
  5792  0BAA  00B8               	movwf	___fldiv@b+2
  5793  0BAB  3000               	movlw	0
  5794  0BAC  00B7               	movwf	___fldiv@b+1
  5795  0BAD  3000               	movlw	0
  5796  0BAE  00B6               	movwf	___fldiv@b
  5797  0BAF                     l2080:
  5798  0BAF  17B8               	bsf	___fldiv@b+2,7
  5799  0BB0                     l2082:
  5800  0BB0  01B9               	clrf	___fldiv@b+3
  5801  0BB1  2BBA               	goto	l2086
  5802  0BB2                     l2084:
  5803  0BB2  3000               	movlw	0
  5804  0BB3  00B9               	movwf	___fldiv@b+3
  5805  0BB4  3000               	movlw	0
  5806  0BB5  00B8               	movwf	___fldiv@b+2
  5807  0BB6  3000               	movlw	0
  5808  0BB7  00B7               	movwf	___fldiv@b+1
  5809  0BB8  3000               	movlw	0
  5810  0BB9  00B6               	movwf	___fldiv@b
  5811  0BBA                     l2086:
  5812  0BBA  0835               	movf	___fldiv@a+3,w
  5813  0BBB  3980               	andlw	128
  5814  0BBC  00BA               	movwf	??___fldiv
  5815  0BBD  083A               	movf	??___fldiv,w
  5816  0BBE  06C3               	xorwf	___fldiv@sign,f
  5817  0BBF                     l2088:
  5818  0BBF  0835               	movf	___fldiv@a+3,w
  5819  0BC0  00BA               	movwf	??___fldiv
  5820  0BC1  073A               	addwf	??___fldiv,w
  5821  0BC2  00BB               	movwf	??___fldiv+1
  5822  0BC3  083B               	movf	??___fldiv+1,w
  5823  0BC4  00CB               	movwf	___fldiv@aexp
  5824  0BC5                     l2090:
  5825  0BC5  1FB4               	btfss	___fldiv@a+2,7
  5826  0BC6  2BC8               	goto	u2631
  5827  0BC7  2BC9               	goto	u2630
  5828  0BC8                     u2631:
  5829  0BC8  2BCA               	goto	l2094
  5830  0BC9                     u2630:
  5831  0BC9                     l2092:
  5832  0BC9  144B               	bsf	___fldiv@aexp,0
  5833  0BCA                     l2094:
  5834  0BCA  084B               	movf	___fldiv@aexp,w
  5835  0BCB  1903               	btfsc	3,2
  5836  0BCC  2BCE               	goto	u2641
  5837  0BCD  2BCF               	goto	u2640
  5838  0BCE                     u2641:
  5839  0BCE  2BDF               	goto	l2104
  5840  0BCF                     u2640:
  5841  0BCF                     l2096:
  5842  0BCF  0A4B               	incf	___fldiv@aexp,w
  5843  0BD0  1D03               	btfss	3,2
  5844  0BD1  2BD3               	goto	u2651
  5845  0BD2  2BD4               	goto	u2650
  5846  0BD3                     u2651:
  5847  0BD3  2BDC               	goto	l2100
  5848  0BD4                     u2650:
  5849  0BD4                     l2098:
  5850  0BD4  3000               	movlw	0
  5851  0BD5  00B5               	movwf	___fldiv@a+3
  5852  0BD6  3000               	movlw	0
  5853  0BD7  00B4               	movwf	___fldiv@a+2
  5854  0BD8  3000               	movlw	0
  5855  0BD9  00B3               	movwf	___fldiv@a+1
  5856  0BDA  3000               	movlw	0
  5857  0BDB  00B2               	movwf	___fldiv@a
  5858  0BDC                     l2100:
  5859  0BDC  17B4               	bsf	___fldiv@a+2,7
  5860  0BDD                     l2102:
  5861  0BDD  01B5               	clrf	___fldiv@a+3
  5862  0BDE  2BE7               	goto	l591
  5863  0BDF                     l2104:
  5864  0BDF  3000               	movlw	0
  5865  0BE0  00B5               	movwf	___fldiv@a+3
  5866  0BE1  3000               	movlw	0
  5867  0BE2  00B4               	movwf	___fldiv@a+2
  5868  0BE3  3000               	movlw	0
  5869  0BE4  00B3               	movwf	___fldiv@a+1
  5870  0BE5  3000               	movlw	0
  5871  0BE6  00B2               	movwf	___fldiv@a
  5872  0BE7                     l591:
  5873  0BE7  0835               	movf	___fldiv@a+3,w
  5874  0BE8  0434               	iorwf	___fldiv@a+2,w
  5875  0BE9  0433               	iorwf	___fldiv@a+1,w
  5876  0BEA  0432               	iorwf	___fldiv@a,w
  5877  0BEB  1D03               	skipz
  5878  0BEC  2BEE               	goto	u2661
  5879  0BED  2BEF               	goto	u2660
  5880  0BEE                     u2661:
  5881  0BEE  2C08               	goto	l2114
  5882  0BEF                     u2660:
  5883  0BEF                     l2106:
  5884  0BEF  3000               	movlw	0
  5885  0BF0  00B9               	movwf	___fldiv@b+3
  5886  0BF1  3000               	movlw	0
  5887  0BF2  00B8               	movwf	___fldiv@b+2
  5888  0BF3  3000               	movlw	0
  5889  0BF4  00B7               	movwf	___fldiv@b+1
  5890  0BF5  3000               	movlw	0
  5891  0BF6  00B6               	movwf	___fldiv@b
  5892  0BF7  3080               	movlw	128
  5893  0BF8  04B8               	iorwf	___fldiv@b+2,f
  5894  0BF9  307F               	movlw	127
  5895  0BFA  04B9               	iorwf	___fldiv@b+3,f
  5896  0BFB                     l2108:
  5897  0BFB  0843               	movf	___fldiv@sign,w
  5898  0BFC  00BA               	movwf	??___fldiv
  5899  0BFD  083A               	movf	??___fldiv,w
  5900  0BFE  04B9               	iorwf	___fldiv@b+3,f
  5901  0BFF                     l2110:
  5902  0BFF  0839               	movf	___fldiv@b+3,w
  5903  0C00  00B5               	movwf	?___fldiv+3
  5904  0C01  0838               	movf	___fldiv@b+2,w
  5905  0C02  00B4               	movwf	?___fldiv+2
  5906  0C03  0837               	movf	___fldiv@b+1,w
  5907  0C04  00B3               	movwf	?___fldiv+1
  5908  0C05  0836               	movf	___fldiv@b,w
  5909  0C06  00B2               	movwf	?___fldiv
  5910  0C07  2D67               	goto	l593
  5911  0C08                     l2114:
  5912  0C08  084A               	movf	___fldiv@bexp,w
  5913  0C09  1D03               	btfss	3,2
  5914  0C0A  2C0C               	goto	u2671
  5915  0C0B  2C0D               	goto	u2670
  5916  0C0C                     u2671:
  5917  0C0C  2C16               	goto	l2120
  5918  0C0D                     u2670:
  5919  0C0D                     l2116:
  5920  0C0D  3000               	movlw	0
  5921  0C0E  00B5               	movwf	?___fldiv+3
  5922  0C0F  3000               	movlw	0
  5923  0C10  00B4               	movwf	?___fldiv+2
  5924  0C11  3000               	movlw	0
  5925  0C12  00B3               	movwf	?___fldiv+1
  5926  0C13  3000               	movlw	0
  5927  0C14  00B2               	movwf	?___fldiv
  5928  0C15  2D67               	goto	l593
  5929  0C16                     l2120:
  5930  0C16  084A               	movf	___fldiv@bexp,w
  5931  0C17  00BA               	movwf	??___fldiv
  5932  0C18  01BB               	clrf	??___fldiv+1
  5933  0C19  083B               	movf	??___fldiv+1,w
  5934  0C1A  00BD               	movwf	??___fldiv+3
  5935  0C1B  084B               	movf	___fldiv@aexp,w
  5936  0C1C  023A               	subwf	??___fldiv,w
  5937  0C1D  00BC               	movwf	??___fldiv+2
  5938  0C1E  1C03               	skipc
  5939  0C1F  03BD               	decf	??___fldiv+3,f
  5940  0C20  083C               	movf	??___fldiv+2,w
  5941  0C21  3E7F               	addlw	127
  5942  0C22  00C4               	movwf	___fldiv@new_exp
  5943  0C23  083D               	movf	??___fldiv+3,w
  5944  0C24  1803               	skipnc
  5945  0C25  3E01               	addlw	1
  5946  0C26  3E00               	addlw	0
  5947  0C27  00C5               	movwf	___fldiv@new_exp+1
  5948  0C28                     l2122:
  5949  0C28  0839               	movf	___fldiv@b+3,w
  5950  0C29  00C2               	movwf	___fldiv@rem+3
  5951  0C2A  0838               	movf	___fldiv@b+2,w
  5952  0C2B  00C1               	movwf	___fldiv@rem+2
  5953  0C2C  0837               	movf	___fldiv@b+1,w
  5954  0C2D  00C0               	movwf	___fldiv@rem+1
  5955  0C2E  0836               	movf	___fldiv@b,w
  5956  0C2F  00BF               	movwf	___fldiv@rem
  5957  0C30                     l2124:
  5958  0C30  3000               	movlw	0
  5959  0C31  00B9               	movwf	___fldiv@b+3
  5960  0C32  3000               	movlw	0
  5961  0C33  00B8               	movwf	___fldiv@b+2
  5962  0C34  3000               	movlw	0
  5963  0C35  00B7               	movwf	___fldiv@b+1
  5964  0C36  3000               	movlw	0
  5965  0C37  00B6               	movwf	___fldiv@b
  5966  0C38                     l2126:
  5967  0C38  3000               	movlw	0
  5968  0C39  00C9               	movwf	___fldiv@grs+3
  5969  0C3A  3000               	movlw	0
  5970  0C3B  00C8               	movwf	___fldiv@grs+2
  5971  0C3C  3000               	movlw	0
  5972  0C3D  00C7               	movwf	___fldiv@grs+1
  5973  0C3E  3000               	movlw	0
  5974  0C3F  00C6               	movwf	___fldiv@grs
  5975  0C40                     l2128:
  5976  0C40  01CB               	clrf	___fldiv@aexp
  5977  0C41  2C8C               	goto	l2148
  5978  0C42                     l2130:
  5979  0C42  084B               	movf	___fldiv@aexp,w
  5980  0C43  1903               	btfsc	3,2
  5981  0C44  2C46               	goto	u2681
  5982  0C45  2C47               	goto	u2680
  5983  0C46                     u2681:
  5984  0C46  2C67               	goto	l2140
  5985  0C47                     u2680:
  5986  0C47                     l2132:
  5987  0C47  3001               	movlw	1
  5988  0C48  00BA               	movwf	??___fldiv
  5989  0C49                     u2695:
  5990  0C49  1003               	clrc
  5991  0C4A  0DBF               	rlf	___fldiv@rem,f
  5992  0C4B  0DC0               	rlf	___fldiv@rem+1,f
  5993  0C4C  0DC1               	rlf	___fldiv@rem+2,f
  5994  0C4D  0DC2               	rlf	___fldiv@rem+3,f
  5995  0C4E  0BBA               	decfsz	??___fldiv,f
  5996  0C4F  2C49               	goto	u2695
  5997  0C50  3001               	movlw	1
  5998  0C51  00BA               	movwf	??___fldiv
  5999  0C52                     u2705:
  6000  0C52  1003               	clrc
  6001  0C53  0DB6               	rlf	___fldiv@b,f
  6002  0C54  0DB7               	rlf	___fldiv@b+1,f
  6003  0C55  0DB8               	rlf	___fldiv@b+2,f
  6004  0C56  0DB9               	rlf	___fldiv@b+3,f
  6005  0C57  0BBA               	decfsz	??___fldiv,f
  6006  0C58  2C52               	goto	u2705
  6007  0C59                     l2134:
  6008  0C59  1FC9               	btfss	___fldiv@grs+3,7
  6009  0C5A  2C5C               	goto	u2711
  6010  0C5B  2C5D               	goto	u2710
  6011  0C5C                     u2711:
  6012  0C5C  2C5E               	goto	l2138
  6013  0C5D                     u2710:
  6014  0C5D                     l2136:
  6015  0C5D  1436               	bsf	___fldiv@b,0
  6016  0C5E                     l2138:
  6017  0C5E  3001               	movlw	1
  6018  0C5F  00BA               	movwf	??___fldiv
  6019  0C60                     u2725:
  6020  0C60  1003               	clrc
  6021  0C61  0DC6               	rlf	___fldiv@grs,f
  6022  0C62  0DC7               	rlf	___fldiv@grs+1,f
  6023  0C63  0DC8               	rlf	___fldiv@grs+2,f
  6024  0C64  0DC9               	rlf	___fldiv@grs+3,f
  6025  0C65  0BBA               	decfsz	??___fldiv,f
  6026  0C66  2C60               	goto	u2725
  6027  0C67                     l2140:
  6028  0C67  0835               	movf	___fldiv@a+3,w
  6029  0C68  0242               	subwf	___fldiv@rem+3,w
  6030  0C69  1D03               	skipz
  6031  0C6A  2C75               	goto	u2735
  6032  0C6B  0834               	movf	___fldiv@a+2,w
  6033  0C6C  0241               	subwf	___fldiv@rem+2,w
  6034  0C6D  1D03               	skipz
  6035  0C6E  2C75               	goto	u2735
  6036  0C6F  0833               	movf	___fldiv@a+1,w
  6037  0C70  0240               	subwf	___fldiv@rem+1,w
  6038  0C71  1D03               	skipz
  6039  0C72  2C75               	goto	u2735
  6040  0C73  0832               	movf	___fldiv@a,w
  6041  0C74  023F               	subwf	___fldiv@rem,w
  6042  0C75                     u2735:
  6043  0C75  1C03               	skipc
  6044  0C76  2C78               	goto	u2731
  6045  0C77  2C79               	goto	u2730
  6046  0C78                     u2731:
  6047  0C78  2C88               	goto	l2146
  6048  0C79                     u2730:
  6049  0C79                     l2142:
  6050  0C79  1749               	bsf	___fldiv@grs+3,6
  6051  0C7A                     l2144:
  6052  0C7A  0832               	movf	___fldiv@a,w
  6053  0C7B  02BF               	subwf	___fldiv@rem,f
  6054  0C7C  0833               	movf	___fldiv@a+1,w
  6055  0C7D  1C03               	skipc
  6056  0C7E  0F33               	incfsz	___fldiv@a+1,w
  6057  0C7F  02C0               	subwf	___fldiv@rem+1,f
  6058  0C80  0834               	movf	___fldiv@a+2,w
  6059  0C81  1C03               	skipc
  6060  0C82  0F34               	incfsz	___fldiv@a+2,w
  6061  0C83  02C1               	subwf	___fldiv@rem+2,f
  6062  0C84  0835               	movf	___fldiv@a+3,w
  6063  0C85  1C03               	skipc
  6064  0C86  0F35               	incfsz	___fldiv@a+3,w
  6065  0C87  02C2               	subwf	___fldiv@rem+3,f
  6066  0C88                     l2146:
  6067  0C88  3001               	movlw	1
  6068  0C89  00BA               	movwf	??___fldiv
  6069  0C8A  083A               	movf	??___fldiv,w
  6070  0C8B  07CB               	addwf	___fldiv@aexp,f
  6071  0C8C                     l2148:
  6072  0C8C  301A               	movlw	26
  6073  0C8D  024B               	subwf	___fldiv@aexp,w
  6074  0C8E  1C03               	skipc
  6075  0C8F  2C91               	goto	u2741
  6076  0C90  2C92               	goto	u2740
  6077  0C91                     u2741:
  6078  0C91  2C42               	goto	l2130
  6079  0C92                     u2740:
  6080  0C92                     l2150:
  6081  0C92  0842               	movf	___fldiv@rem+3,w
  6082  0C93  0441               	iorwf	___fldiv@rem+2,w
  6083  0C94  0440               	iorwf	___fldiv@rem+1,w
  6084  0C95  043F               	iorwf	___fldiv@rem,w
  6085  0C96  1903               	skipnz
  6086  0C97  2C99               	goto	u2751
  6087  0C98  2C9A               	goto	u2750
  6088  0C99                     u2751:
  6089  0C99  2CB9               	goto	l2164
  6090  0C9A                     u2750:
  6091  0C9A                     l2152:
  6092  0C9A  1446               	bsf	___fldiv@grs,0
  6093  0C9B  2CB9               	goto	l2164
  6094  0C9C                     l2154:
  6095  0C9C  3001               	movlw	1
  6096  0C9D  00BA               	movwf	??___fldiv
  6097  0C9E                     u2765:
  6098  0C9E  1003               	clrc
  6099  0C9F  0DB6               	rlf	___fldiv@b,f
  6100  0CA0  0DB7               	rlf	___fldiv@b+1,f
  6101  0CA1  0DB8               	rlf	___fldiv@b+2,f
  6102  0CA2  0DB9               	rlf	___fldiv@b+3,f
  6103  0CA3  0BBA               	decfsz	??___fldiv,f
  6104  0CA4  2C9E               	goto	u2765
  6105  0CA5                     l2156:
  6106  0CA5  1FC9               	btfss	___fldiv@grs+3,7
  6107  0CA6  2CA8               	goto	u2771
  6108  0CA7  2CA9               	goto	u2770
  6109  0CA8                     u2771:
  6110  0CA8  2CAA               	goto	l2160
  6111  0CA9                     u2770:
  6112  0CA9                     l2158:
  6113  0CA9  1436               	bsf	___fldiv@b,0
  6114  0CAA                     l2160:
  6115  0CAA  3001               	movlw	1
  6116  0CAB  00BA               	movwf	??___fldiv
  6117  0CAC                     u2785:
  6118  0CAC  1003               	clrc
  6119  0CAD  0DC6               	rlf	___fldiv@grs,f
  6120  0CAE  0DC7               	rlf	___fldiv@grs+1,f
  6121  0CAF  0DC8               	rlf	___fldiv@grs+2,f
  6122  0CB0  0DC9               	rlf	___fldiv@grs+3,f
  6123  0CB1  0BBA               	decfsz	??___fldiv,f
  6124  0CB2  2CAC               	goto	u2785
  6125  0CB3                     l2162:
  6126  0CB3  30FF               	movlw	255
  6127  0CB4  07C4               	addwf	___fldiv@new_exp,f
  6128  0CB5  1803               	skipnc
  6129  0CB6  0AC5               	incf	___fldiv@new_exp+1,f
  6130  0CB7  30FF               	movlw	255
  6131  0CB8  07C5               	addwf	___fldiv@new_exp+1,f
  6132  0CB9                     l2164:
  6133  0CB9  1FB8               	btfss	___fldiv@b+2,7
  6134  0CBA  2CBC               	goto	u2791
  6135  0CBB  2CBD               	goto	u2790
  6136  0CBC                     u2791:
  6137  0CBC  2C9C               	goto	l2154
  6138  0CBD                     u2790:
  6139  0CBD                     l2166:
  6140  0CBD  01CB               	clrf	___fldiv@aexp
  6141  0CBE                     l2168:
  6142  0CBE  1FC9               	btfss	___fldiv@grs+3,7
  6143  0CBF  2CC1               	goto	u2801
  6144  0CC0  2CC2               	goto	u2800
  6145  0CC1                     u2801:
  6146  0CC1  2CDE               	goto	l2176
  6147  0CC2                     u2800:
  6148  0CC2                     l2170:
  6149  0CC2  30FF               	movlw	255
  6150  0CC3  0546               	andwf	___fldiv@grs,w
  6151  0CC4  00BA               	movwf	??___fldiv
  6152  0CC5  30FF               	movlw	255
  6153  0CC6  0547               	andwf	___fldiv@grs+1,w
  6154  0CC7  00BB               	movwf	??___fldiv+1
  6155  0CC8  30FF               	movlw	255
  6156  0CC9  0548               	andwf	___fldiv@grs+2,w
  6157  0CCA  00BC               	movwf	??___fldiv+2
  6158  0CCB  307F               	movlw	127
  6159  0CCC  0549               	andwf	___fldiv@grs+3,w
  6160  0CCD  00BD               	movwf	??___fldiv+3
  6161  0CCE  083D               	movf	??___fldiv+3,w
  6162  0CCF  043C               	iorwf	??___fldiv+2,w
  6163  0CD0  043B               	iorwf	??___fldiv+1,w
  6164  0CD1  043A               	iorwf	??___fldiv,w
  6165  0CD2  1903               	skipnz
  6166  0CD3  2CD5               	goto	u2811
  6167  0CD4  2CD6               	goto	u2810
  6168  0CD5                     u2811:
  6169  0CD5  2CD9               	goto	l607
  6170  0CD6                     u2810:
  6171  0CD6                     l2172:
  6172  0CD6  01CB               	clrf	___fldiv@aexp
  6173  0CD7  0ACB               	incf	___fldiv@aexp,f
  6174  0CD8  2CDE               	goto	l2176
  6175  0CD9                     l607:
  6176  0CD9  1C36               	btfss	___fldiv@b,0
  6177  0CDA  2CDC               	goto	u2821
  6178  0CDB  2CDD               	goto	u2820
  6179  0CDC                     u2821:
  6180  0CDC  2CDE               	goto	l2176
  6181  0CDD                     u2820:
  6182  0CDD  2CD6               	goto	l2172
  6183  0CDE                     l2176:
  6184  0CDE  084B               	movf	___fldiv@aexp,w
  6185  0CDF  1903               	btfsc	3,2
  6186  0CE0  2CE2               	goto	u2831
  6187  0CE1  2CE3               	goto	u2830
  6188  0CE2                     u2831:
  6189  0CE2  2D14               	goto	l2186
  6190  0CE3                     u2830:
  6191  0CE3                     l2178:
  6192  0CE3  3001               	movlw	1
  6193  0CE4  07B6               	addwf	___fldiv@b,f
  6194  0CE5  3000               	movlw	0
  6195  0CE6  1803               	skipnc
  6196  0CE7  3001               	movlw	1
  6197  0CE8  07B7               	addwf	___fldiv@b+1,f
  6198  0CE9  3000               	movlw	0
  6199  0CEA  1803               	skipnc
  6200  0CEB  3001               	movlw	1
  6201  0CEC  07B8               	addwf	___fldiv@b+2,f
  6202  0CED  3000               	movlw	0
  6203  0CEE  1803               	skipnc
  6204  0CEF  3001               	movlw	1
  6205  0CF0  07B9               	addwf	___fldiv@b+3,f
  6206  0CF1                     l2180:
  6207  0CF1  1C39               	btfss	___fldiv@b+3,0
  6208  0CF2  2CF4               	goto	u2841
  6209  0CF3  2CF5               	goto	u2840
  6210  0CF4                     u2841:
  6211  0CF4  2D14               	goto	l2186
  6212  0CF5                     u2840:
  6213  0CF5                     l2182:
  6214  0CF5  0836               	movf	___fldiv@b,w
  6215  0CF6  00BA               	movwf	??___fldiv
  6216  0CF7  0837               	movf	___fldiv@b+1,w
  6217  0CF8  00BB               	movwf	??___fldiv+1
  6218  0CF9  0838               	movf	___fldiv@b+2,w
  6219  0CFA  00BC               	movwf	??___fldiv+2
  6220  0CFB  0839               	movf	___fldiv@b+3,w
  6221  0CFC  00BD               	movwf	??___fldiv+3
  6222  0CFD  3001               	movlw	1
  6223  0CFE  00BE               	movwf	??___fldiv+4
  6224  0CFF                     u2855:
  6225  0CFF  0D3D               	rlf	??___fldiv+3,w
  6226  0D00  0CBD               	rrf	??___fldiv+3,f
  6227  0D01  0CBC               	rrf	??___fldiv+2,f
  6228  0D02  0CBB               	rrf	??___fldiv+1,f
  6229  0D03  0CBA               	rrf	??___fldiv,f
  6230  0D04                     u2850:
  6231  0D04  0BBE               	decfsz	??___fldiv+4,f
  6232  0D05  2CFF               	goto	u2855
  6233  0D06  083D               	movf	??___fldiv+3,w
  6234  0D07  00B9               	movwf	___fldiv@b+3
  6235  0D08  083C               	movf	??___fldiv+2,w
  6236  0D09  00B8               	movwf	___fldiv@b+2
  6237  0D0A  083B               	movf	??___fldiv+1,w
  6238  0D0B  00B7               	movwf	___fldiv@b+1
  6239  0D0C  083A               	movf	??___fldiv,w
  6240  0D0D  00B6               	movwf	___fldiv@b
  6241  0D0E                     l2184:
  6242  0D0E  3001               	movlw	1
  6243  0D0F  07C4               	addwf	___fldiv@new_exp,f
  6244  0D10  1803               	skipnc
  6245  0D11  0AC5               	incf	___fldiv@new_exp+1,f
  6246  0D12  3000               	movlw	0
  6247  0D13  07C5               	addwf	___fldiv@new_exp+1,f
  6248  0D14                     l2186:
  6249  0D14  0845               	movf	___fldiv@new_exp+1,w
  6250  0D15  3A80               	xorlw	128
  6251  0D16  00FF               	movwf	btemp+1
  6252  0D17  3080               	movlw	128
  6253  0D18  027F               	subwf	btemp+1,w
  6254  0D19  1D03               	skipz
  6255  0D1A  2D1D               	goto	u2865
  6256  0D1B  30FF               	movlw	255
  6257  0D1C  0244               	subwf	___fldiv@new_exp,w
  6258  0D1D                     u2865:
  6259  0D1D  1C03               	skipc
  6260  0D1E  2D20               	goto	u2861
  6261  0D1F  2D21               	goto	u2860
  6262  0D20                     u2861:
  6263  0D20  2D2F               	goto	l2190
  6264  0D21                     u2860:
  6265  0D21                     l2188:
  6266  0D21  30FF               	movlw	255
  6267  0D22  1283               	bcf	3,5	;RP0=0, select bank0
  6268  0D23  1303               	bcf	3,6	;RP1=0, select bank0
  6269  0D24  00C4               	movwf	___fldiv@new_exp
  6270  0D25  3000               	movlw	0
  6271  0D26  00C5               	movwf	___fldiv@new_exp+1
  6272  0D27  3000               	movlw	0
  6273  0D28  00B9               	movwf	___fldiv@b+3
  6274  0D29  3000               	movlw	0
  6275  0D2A  00B8               	movwf	___fldiv@b+2
  6276  0D2B  3000               	movlw	0
  6277  0D2C  00B7               	movwf	___fldiv@b+1
  6278  0D2D  3000               	movlw	0
  6279  0D2E  00B6               	movwf	___fldiv@b
  6280  0D2F                     l2190:
  6281  0D2F  1283               	bcf	3,5	;RP0=0, select bank0
  6282  0D30  1303               	bcf	3,6	;RP1=0, select bank0
  6283  0D31  0845               	movf	___fldiv@new_exp+1,w
  6284  0D32  3A80               	xorlw	128
  6285  0D33  00FF               	movwf	btemp+1
  6286  0D34  3080               	movlw	128
  6287  0D35  027F               	subwf	btemp+1,w
  6288  0D36  1D03               	skipz
  6289  0D37  2D3A               	goto	u2875
  6290  0D38  3001               	movlw	1
  6291  0D39  0244               	subwf	___fldiv@new_exp,w
  6292  0D3A                     u2875:
  6293  0D3A  1803               	skipnc
  6294  0D3B  2D3D               	goto	u2871
  6295  0D3C  2D3E               	goto	u2870
  6296  0D3D                     u2871:
  6297  0D3D  2D4B               	goto	l613
  6298  0D3E                     u2870:
  6299  0D3E                     l2192:
  6300  0D3E  1283               	bcf	3,5	;RP0=0, select bank0
  6301  0D3F  1303               	bcf	3,6	;RP1=0, select bank0
  6302  0D40  01C4               	clrf	___fldiv@new_exp
  6303  0D41  01C5               	clrf	___fldiv@new_exp+1
  6304  0D42                     l2194:
  6305  0D42  3000               	movlw	0
  6306  0D43  00B9               	movwf	___fldiv@b+3
  6307  0D44  3000               	movlw	0
  6308  0D45  00B8               	movwf	___fldiv@b+2
  6309  0D46  3000               	movlw	0
  6310  0D47  00B7               	movwf	___fldiv@b+1
  6311  0D48  3000               	movlw	0
  6312  0D49  00B6               	movwf	___fldiv@b
  6313  0D4A                     l2196:
  6314  0D4A  01C3               	clrf	___fldiv@sign
  6315  0D4B                     l613:
  6316  0D4B  1283               	bcf	3,5	;RP0=0, select bank0
  6317  0D4C  1303               	bcf	3,6	;RP1=0, select bank0
  6318  0D4D  0844               	movf	___fldiv@new_exp,w
  6319  0D4E  00BA               	movwf	??___fldiv
  6320  0D4F  083A               	movf	??___fldiv,w
  6321  0D50  00CA               	movwf	___fldiv@bexp
  6322  0D51                     l2198:
  6323  0D51  1C4A               	btfss	___fldiv@bexp,0
  6324  0D52  2D54               	goto	u2881
  6325  0D53  2D55               	goto	u2880
  6326  0D54                     u2881:
  6327  0D54  2D57               	goto	l2202
  6328  0D55                     u2880:
  6329  0D55                     l2200:
  6330  0D55  17B8               	bsf	___fldiv@b+2,7
  6331  0D56  2D5B               	goto	l615
  6332  0D57                     l2202:
  6333  0D57  307F               	movlw	127
  6334  0D58  00BA               	movwf	??___fldiv
  6335  0D59  083A               	movf	??___fldiv,w
  6336  0D5A  05B8               	andwf	___fldiv@b+2,f
  6337  0D5B                     l615:
  6338  0D5B  084A               	movf	___fldiv@bexp,w
  6339  0D5C  00BA               	movwf	??___fldiv
  6340  0D5D  1003               	clrc
  6341  0D5E  0C3A               	rrf	??___fldiv,w
  6342  0D5F  00BB               	movwf	??___fldiv+1
  6343  0D60  083B               	movf	??___fldiv+1,w
  6344  0D61  00B9               	movwf	___fldiv@b+3
  6345  0D62  0843               	movf	___fldiv@sign,w
  6346  0D63  00BA               	movwf	??___fldiv
  6347  0D64  083A               	movf	??___fldiv,w
  6348  0D65  04B9               	iorwf	___fldiv@b+3,f
  6349  0D66  2BFF               	goto	l2110
  6350  0D67                     l593:
  6351  0D67  0008               	return
  6352  0D68                     __end_of___fldiv:
  6353                           
  6354                           	psect	text16
  6355  1799                     __ptext16:	
  6356 ;; *************** function ___awdiv *****************
  6357 ;; Defined at:
  6358 ;;		line 5 in file "C:\Program Files\Microchip\xc8\v2.31\pic\sources\c90\common\awdiv.c"
  6359 ;; Parameters:    Size  Location     Type
  6360 ;;  divisor         2    0[COMMON] int 
  6361 ;;  dividend        2    2[COMMON] int 
  6362 ;; Auto vars:     Size  Location     Type
  6363 ;;  quotient        2    7[COMMON] int 
  6364 ;;  sign            1    6[COMMON] unsigned char 
  6365 ;;  counter         1    5[COMMON] unsigned char 
  6366 ;; Return value:  Size  Location     Type
  6367 ;;                  2    0[COMMON] int 
  6368 ;; Registers used:
  6369 ;;		wreg, status,2, status,0
  6370 ;; Tracked objects:
  6371 ;;		On entry : 0/0
  6372 ;;		On exit  : 0/0
  6373 ;;		Unchanged: 0/0
  6374 ;; Data sizes:     COMMON   BANK0   BANK1   BANK3   BANK2
  6375 ;;      Params:         4       0       0       0       0
  6376 ;;      Locals:         4       0       0       0       0
  6377 ;;      Temps:          1       0       0       0       0
  6378 ;;      Totals:         9       0       0       0       0
  6379 ;;Total ram usage:        9 bytes
  6380 ;; Hardware stack levels used:    1
  6381 ;; This function calls:
  6382 ;;		Nothing
  6383 ;; This function is called by:
  6384 ;;		_convert
  6385 ;; This function uses a non-reentrant model
  6386 ;;
  6387                           
  6388                           
  6389                           ;psect for function ___awdiv
  6390  1799                     ___awdiv:
  6391  1799                     l1960:	
  6392                           ;incstack = 0
  6393                           ; Regs used in ___awdiv: [wreg+status,2+status,0]
  6394                           
  6395  1799  01F6               	clrf	___awdiv@sign
  6396  179A                     l1962:
  6397  179A  1FF1               	btfss	___awdiv@divisor+1,7
  6398  179B  2F9D               	goto	u2331
  6399  179C  2F9E               	goto	u2330
  6400  179D                     u2331:
  6401  179D  2FA5               	goto	l1968
  6402  179E                     u2330:
  6403  179E                     l1964:
  6404  179E  09F0               	comf	___awdiv@divisor,f
  6405  179F  09F1               	comf	___awdiv@divisor+1,f
  6406  17A0  0AF0               	incf	___awdiv@divisor,f
  6407  17A1  1903               	skipnz
  6408  17A2  0AF1               	incf	___awdiv@divisor+1,f
  6409  17A3                     l1966:
  6410  17A3  01F6               	clrf	___awdiv@sign
  6411  17A4  0AF6               	incf	___awdiv@sign,f
  6412  17A5                     l1968:
  6413  17A5  1FF3               	btfss	___awdiv@dividend+1,7
  6414  17A6  2FA8               	goto	u2341
  6415  17A7  2FA9               	goto	u2340
  6416  17A8                     u2341:
  6417  17A8  2FB2               	goto	l1974
  6418  17A9                     u2340:
  6419  17A9                     l1970:
  6420  17A9  09F2               	comf	___awdiv@dividend,f
  6421  17AA  09F3               	comf	___awdiv@dividend+1,f
  6422  17AB  0AF2               	incf	___awdiv@dividend,f
  6423  17AC  1903               	skipnz
  6424  17AD  0AF3               	incf	___awdiv@dividend+1,f
  6425  17AE                     l1972:
  6426  17AE  3001               	movlw	1
  6427  17AF  00F4               	movwf	??___awdiv
  6428  17B0  0874               	movf	??___awdiv,w
  6429  17B1  06F6               	xorwf	___awdiv@sign,f
  6430  17B2                     l1974:
  6431  17B2  01F7               	clrf	___awdiv@quotient
  6432  17B3  01F8               	clrf	___awdiv@quotient+1
  6433  17B4                     l1976:
  6434  17B4  0870               	movf	___awdiv@divisor,w
  6435  17B5  0471               	iorwf	___awdiv@divisor+1,w
  6436  17B6  1903               	btfsc	3,2
  6437  17B7  2FB9               	goto	u2351
  6438  17B8  2FBA               	goto	u2350
  6439  17B9                     u2351:
  6440  17B9  2FF1               	goto	l1996
  6441  17BA                     u2350:
  6442  17BA                     l1978:
  6443  17BA  01F5               	clrf	___awdiv@counter
  6444  17BB  0AF5               	incf	___awdiv@counter,f
  6445  17BC  2FC8               	goto	l1984
  6446  17BD                     l1980:
  6447  17BD  3001               	movlw	1
  6448  17BE                     u2365:
  6449  17BE  1003               	clrc
  6450  17BF  0DF0               	rlf	___awdiv@divisor,f
  6451  17C0  0DF1               	rlf	___awdiv@divisor+1,f
  6452  17C1  3EFF               	addlw	-1
  6453  17C2  1D03               	skipz
  6454  17C3  2FBE               	goto	u2365
  6455  17C4                     l1982:
  6456  17C4  3001               	movlw	1
  6457  17C5  00F4               	movwf	??___awdiv
  6458  17C6  0874               	movf	??___awdiv,w
  6459  17C7  07F5               	addwf	___awdiv@counter,f
  6460  17C8                     l1984:
  6461  17C8  1FF1               	btfss	___awdiv@divisor+1,7
  6462  17C9  2FCB               	goto	u2371
  6463  17CA  2FCC               	goto	u2370
  6464  17CB                     u2371:
  6465  17CB  2FBD               	goto	l1980
  6466  17CC                     u2370:
  6467  17CC                     l1986:
  6468  17CC  3001               	movlw	1
  6469  17CD                     u2385:
  6470  17CD  1003               	clrc
  6471  17CE  0DF7               	rlf	___awdiv@quotient,f
  6472  17CF  0DF8               	rlf	___awdiv@quotient+1,f
  6473  17D0  3EFF               	addlw	-1
  6474  17D1  1D03               	skipz
  6475  17D2  2FCD               	goto	u2385
  6476  17D3  0871               	movf	___awdiv@divisor+1,w
  6477  17D4  0273               	subwf	___awdiv@dividend+1,w
  6478  17D5  1D03               	skipz
  6479  17D6  2FD9               	goto	u2395
  6480  17D7  0870               	movf	___awdiv@divisor,w
  6481  17D8  0272               	subwf	___awdiv@dividend,w
  6482  17D9                     u2395:
  6483  17D9  1C03               	skipc
  6484  17DA  2FDC               	goto	u2391
  6485  17DB  2FDD               	goto	u2390
  6486  17DC                     u2391:
  6487  17DC  2FE4               	goto	l1992
  6488  17DD                     u2390:
  6489  17DD                     l1988:
  6490  17DD  0870               	movf	___awdiv@divisor,w
  6491  17DE  02F2               	subwf	___awdiv@dividend,f
  6492  17DF  0871               	movf	___awdiv@divisor+1,w
  6493  17E0  1C03               	skipc
  6494  17E1  03F3               	decf	___awdiv@dividend+1,f
  6495  17E2  02F3               	subwf	___awdiv@dividend+1,f
  6496  17E3                     l1990:
  6497  17E3  1477               	bsf	___awdiv@quotient,0
  6498  17E4                     l1992:
  6499  17E4  3001               	movlw	1
  6500  17E5                     u2405:
  6501  17E5  1003               	clrc
  6502  17E6  0CF1               	rrf	___awdiv@divisor+1,f
  6503  17E7  0CF0               	rrf	___awdiv@divisor,f
  6504  17E8  3EFF               	addlw	-1
  6505  17E9  1D03               	skipz
  6506  17EA  2FE5               	goto	u2405
  6507  17EB                     l1994:
  6508  17EB  3001               	movlw	1
  6509  17EC  02F5               	subwf	___awdiv@counter,f
  6510  17ED  1D03               	btfss	3,2
  6511  17EE  2FF0               	goto	u2411
  6512  17EF  2FF1               	goto	u2410
  6513  17F0                     u2411:
  6514  17F0  2FCC               	goto	l1986
  6515  17F1                     u2410:
  6516  17F1                     l1996:
  6517  17F1  0876               	movf	___awdiv@sign,w
  6518  17F2  1903               	btfsc	3,2
  6519  17F3  2FF5               	goto	u2421
  6520  17F4  2FF6               	goto	u2420
  6521  17F5                     u2421:
  6522  17F5  2FFB               	goto	l2000
  6523  17F6                     u2420:
  6524  17F6                     l1998:
  6525  17F6  09F7               	comf	___awdiv@quotient,f
  6526  17F7  09F8               	comf	___awdiv@quotient+1,f
  6527  17F8  0AF7               	incf	___awdiv@quotient,f
  6528  17F9  1903               	skipnz
  6529  17FA  0AF8               	incf	___awdiv@quotient+1,f
  6530  17FB                     l2000:
  6531  17FB  0878               	movf	___awdiv@quotient+1,w
  6532  17FC  00F1               	movwf	?___awdiv+1
  6533  17FD  0877               	movf	___awdiv@quotient,w
  6534  17FE  00F0               	movwf	?___awdiv
  6535  17FF                     l395:
  6536  17FF  0008               	return
  6537  1800                     __end_of___awdiv:
  6538                           
  6539                           	psect	text17
  6540  0015                     __ptext17:	
  6541 ;; *************** function _Eusart *****************
  6542 ;; Defined at:
  6543 ;;		line 159 in file "Lab03_Master.c"
  6544 ;; Parameters:    Size  Location     Type
  6545 ;;		None
  6546 ;; Auto vars:     Size  Location     Type
  6547 ;;		None
  6548 ;; Return value:  Size  Location     Type
  6549 ;;                  1    wreg      void 
  6550 ;; Registers used:
  6551 ;;		wreg, fsr0l, fsr0h, status,2, status,0, btemp+1, pclath, cstack
  6552 ;; Tracked objects:
  6553 ;;		On entry : 0/0
  6554 ;;		On exit  : 0/0
  6555 ;;		Unchanged: 0/0
  6556 ;; Data sizes:     COMMON   BANK0   BANK1   BANK3   BANK2
  6557 ;;      Params:         0       0       0       0       0
  6558 ;;      Locals:         0       0       0       0       0
  6559 ;;      Temps:          3       0       0       0       0
  6560 ;;      Totals:         3       0       0       0       0
  6561 ;;Total ram usage:        3 bytes
  6562 ;; Hardware stack levels used:    1
  6563 ;; Hardware stack levels required when called:    2
  6564 ;; This function calls:
  6565 ;;		_printf
  6566 ;; This function is called by:
  6567 ;;		_main
  6568 ;; This function uses a non-reentrant model
  6569 ;;
  6570                           
  6571                           
  6572                           ;psect for function _Eusart
  6573  0015                     _Eusart:
  6574  0015                     l2536:	
  6575                           ;incstack = 0
  6576                           ; Regs used in _Eusart: [wreg-fsr0h+status,2+status,0+btemp+1+pclath+cstack]
  6577                           
  6578                           
  6579                           ;Lab03_Master.c: 160:     _delay((unsigned long)((100)*(8000000/4000.0)));
  6580  0015  3002               	movlw	2
  6581  0016  00FC               	movwf	??_Eusart+2
  6582  0017  3004               	movlw	4
  6583  0018  00FB               	movwf	??_Eusart+1
  6584  0019  30BA               	movlw	186
  6585  001A  00FA               	movwf	??_Eusart
  6586  001B                     u3537:
  6587  001B  0BFA               	decfsz	??_Eusart,f
  6588  001C  281B               	goto	u3537
  6589  001D  0BFB               	decfsz	??_Eusart+1,f
  6590  001E  281B               	goto	u3537
  6591  001F  0BFC               	decfsz	??_Eusart+2,f
  6592  0020  281B               	goto	u3537
  6593  0021  0000               	nop
  6594  0022                     l2538:
  6595                           
  6596                           ;Lab03_Master.c: 161:    printf("\rSensor 1: \r");
  6597  0022  3013               	movlw	(low ((STR_1-__stringbase)| (0+32768)))& (0+255)
  6598  0023  00F1               	movwf	printf@f
  6599  0024  3080               	movlw	128
  6600  0025  00F2               	movwf	printf@f+1
  6601  0026  160A  118A  2747  120A  118A  	fcall	_printf
  6602  002B                     l2540:
  6603                           
  6604                           ;Lab03_Master.c: 162:    _delay((unsigned long)((100)*(8000000/4000.0)));
  6605  002B  3002               	movlw	2
  6606  002C  00FC               	movwf	??_Eusart+2
  6607  002D  3004               	movlw	4
  6608  002E  00FB               	movwf	??_Eusart+1
  6609  002F  30BA               	movlw	186
  6610  0030  00FA               	movwf	??_Eusart
  6611  0031                     u3547:
  6612  0031  0BFA               	decfsz	??_Eusart,f
  6613  0032  2831               	goto	u3547
  6614  0033  0BFB               	decfsz	??_Eusart+1,f
  6615  0034  2831               	goto	u3547
  6616  0035  0BFC               	decfsz	??_Eusart+2,f
  6617  0036  2831               	goto	u3547
  6618  0037  0000               	nop
  6619                           
  6620                           ;Lab03_Master.c: 163:    printf(sensor1);
  6621  0038  30B2               	movlw	(low (_sensor1| 0))& (0+255)
  6622  0039  00F1               	movwf	printf@f
  6623  003A  3000               	movlw	0
  6624  003B  00F2               	movwf	printf@f+1
  6625  003C  160A  118A  2747  120A  118A  	fcall	_printf
  6626  0041                     l2542:
  6627                           
  6628                           ;Lab03_Master.c: 164:    _delay((unsigned long)((100)*(8000000/4000.0)));
  6629  0041  3002               	movlw	2
  6630  0042  00FC               	movwf	??_Eusart+2
  6631  0043  3004               	movlw	4
  6632  0044  00FB               	movwf	??_Eusart+1
  6633  0045  30BA               	movlw	186
  6634  0046  00FA               	movwf	??_Eusart
  6635  0047                     u3557:
  6636  0047  0BFA               	decfsz	??_Eusart,f
  6637  0048  2847               	goto	u3557
  6638  0049  0BFB               	decfsz	??_Eusart+1,f
  6639  004A  2847               	goto	u3557
  6640  004B  0BFC               	decfsz	??_Eusart+2,f
  6641  004C  2847               	goto	u3557
  6642  004D  0000               	nop
  6643  004E                     l2544:
  6644                           
  6645                           ;Lab03_Master.c: 165:    printf("\r---------------\r");
  6646  004E  3001               	movlw	(low ((STR_2-__stringbase)| (0+32768)))& (0+255)
  6647  004F  00F1               	movwf	printf@f
  6648  0050  3080               	movlw	128
  6649  0051  00F2               	movwf	printf@f+1
  6650  0052  160A  118A  2747  120A  118A  	fcall	_printf
  6651                           
  6652                           ;Lab03_Master.c: 168:    _delay((unsigned long)((100)*(8000000/4000.0)));
  6653  0057  3002               	movlw	2
  6654  0058  00FC               	movwf	??_Eusart+2
  6655  0059  3004               	movlw	4
  6656  005A  00FB               	movwf	??_Eusart+1
  6657  005B  30BA               	movlw	186
  6658  005C  00FA               	movwf	??_Eusart
  6659  005D                     u3567:
  6660  005D  0BFA               	decfsz	??_Eusart,f
  6661  005E  285D               	goto	u3567
  6662  005F  0BFB               	decfsz	??_Eusart+1,f
  6663  0060  285D               	goto	u3567
  6664  0061  0BFC               	decfsz	??_Eusart+2,f
  6665  0062  285D               	goto	u3567
  6666  0063  0000               	nop
  6667  0064                     l2546:
  6668                           
  6669                           ;Lab03_Master.c: 169:    printf("\rSensor 2: \r");
  6670  0064  3020               	movlw	(low ((STR_3-__stringbase)| (0+32768)))& (0+255)
  6671  0065  00F1               	movwf	printf@f
  6672  0066  3080               	movlw	128
  6673  0067  00F2               	movwf	printf@f+1
  6674  0068  160A  118A  2747  120A  118A  	fcall	_printf
  6675  006D                     l2548:
  6676                           
  6677                           ;Lab03_Master.c: 170:    _delay((unsigned long)((100)*(8000000/4000.0)));
  6678  006D  3002               	movlw	2
  6679  006E  00FC               	movwf	??_Eusart+2
  6680  006F  3004               	movlw	4
  6681  0070  00FB               	movwf	??_Eusart+1
  6682  0071  30BA               	movlw	186
  6683  0072  00FA               	movwf	??_Eusart
  6684  0073                     u3577:
  6685  0073  0BFA               	decfsz	??_Eusart,f
  6686  0074  2873               	goto	u3577
  6687  0075  0BFB               	decfsz	??_Eusart+1,f
  6688  0076  2873               	goto	u3577
  6689  0077  0BFC               	decfsz	??_Eusart+2,f
  6690  0078  2873               	goto	u3577
  6691  0079  0000               	nop
  6692                           
  6693                           ;Lab03_Master.c: 171:    printf(sensor2);
  6694  007A  30A8               	movlw	(low (_sensor2| 0))& (0+255)
  6695  007B  00F1               	movwf	printf@f
  6696  007C  3000               	movlw	0
  6697  007D  00F2               	movwf	printf@f+1
  6698  007E  160A  118A  2747  120A  118A  	fcall	_printf
  6699  0083                     l2550:
  6700                           
  6701                           ;Lab03_Master.c: 172:    _delay((unsigned long)((100)*(8000000/4000.0)));
  6702  0083  3002               	movlw	2
  6703  0084  00FC               	movwf	??_Eusart+2
  6704  0085  3004               	movlw	4
  6705  0086  00FB               	movwf	??_Eusart+1
  6706  0087  30BA               	movlw	186
  6707  0088  00FA               	movwf	??_Eusart
  6708  0089                     u3587:
  6709  0089  0BFA               	decfsz	??_Eusart,f
  6710  008A  2889               	goto	u3587
  6711  008B  0BFB               	decfsz	??_Eusart+1,f
  6712  008C  2889               	goto	u3587
  6713  008D  0BFC               	decfsz	??_Eusart+2,f
  6714  008E  2889               	goto	u3587
  6715  008F  0000               	nop
  6716  0090                     l2552:
  6717                           
  6718                           ;Lab03_Master.c: 173:    printf("\r---------------\r");
  6719  0090  3001               	movlw	(low ((STR_2-__stringbase)| (0+32768)))& (0+255)
  6720  0091  00F1               	movwf	printf@f
  6721  0092  3080               	movlw	128
  6722  0093  00F2               	movwf	printf@f+1
  6723  0094  160A  118A  2747  120A  118A  	fcall	_printf
  6724  0099                     l80:
  6725  0099  0008               	return
  6726  009A                     __end_of_Eusart:
  6727                           
  6728                           	psect	text18
  6729  1747                     __ptext18:	
  6730 ;; *************** function _printf *****************
  6731 ;; Defined at:
  6732 ;;		line 477 in file "C:\Program Files\Microchip\xc8\v2.31\pic\sources\c90\common\doprnt.c"
  6733 ;; Parameters:    Size  Location     Type
  6734 ;;  f               2    1[COMMON] PTR const unsigned char 
  6735 ;;		 -> STR_4(18), STR_3(13), STR_2(18), STR_1(13), 
  6736 ;;		 -> sensor2(10), sensor1(10), 
  6737 ;; Auto vars:     Size  Location     Type
  6738 ;;  tmpval          4    0        struct .
  6739 ;;  cp              2    0        PTR const unsigned char 
  6740 ;;  len             2    0        unsigned int 
  6741 ;;  val             2    0        unsigned int 
  6742 ;;  c               1    9[COMMON] unsigned char 
  6743 ;;  flag            1    0        unsigned char 
  6744 ;;  ap              1    7[COMMON] PTR void [1]
  6745 ;;		 -> ?_printf(2), 
  6746 ;;  prec            1    0        char 
  6747 ;; Return value:  Size  Location     Type
  6748 ;;                  2    1[COMMON] int 
  6749 ;; Registers used:
  6750 ;;		wreg, fsr0l, fsr0h, status,2, status,0, btemp+1, pclath, cstack
  6751 ;; Tracked objects:
  6752 ;;		On entry : 0/0
  6753 ;;		On exit  : 0/0
  6754 ;;		Unchanged: 0/0
  6755 ;; Data sizes:     COMMON   BANK0   BANK1   BANK3   BANK2
  6756 ;;      Params:         2       0       0       0       0
  6757 ;;      Locals:         3       0       0       0       0
  6758 ;;      Temps:          4       0       0       0       0
  6759 ;;      Totals:         9       0       0       0       0
  6760 ;;Total ram usage:        9 bytes
  6761 ;; Hardware stack levels used:    1
  6762 ;; Hardware stack levels required when called:    1
  6763 ;; This function calls:
  6764 ;;		_putch
  6765 ;; This function is called by:
  6766 ;;		_Eusart
  6767 ;; This function uses a non-reentrant model
  6768 ;;
  6769                           
  6770                           
  6771                           ;psect for function _printf
  6772  1747                     _printf:
  6773  1747                     l1922:	
  6774                           ;incstack = 0
  6775                           ; Regs used in _printf: [wreg-fsr0h+status,2+status,0+btemp+1+pclath+cstack]
  6776                           
  6777                           
  6778                           ;C:\Program Files\Microchip\xc8\v2.31\pic\sources\c90\common\doprnt.c: 477: printf(const
      +                           char * f, ...);C:\Program Files\Microchip\xc8\v2.31\pic\sources\c90\common\doprnt.c: 47
      +                          8: {;C:\Program Files\Microchip\xc8\v2.31\pic\sources\c90\common\doprnt.c: 479:  va_list
      +                           ap;;C:\Program Files\Microchip\xc8\v2.31\pic\sources\c90\common\doprnt.c: 512:  char c;
      +                          ;C:\Program Files\Microchip\xc8\v2.31\pic\sources\c90\common\doprnt.c: 521:  signed char
      +                           prec;;C:\Program Files\Microchip\xc8\v2.31\pic\sources\c90\common\doprnt.c: 525:  unsig
      +                          ned char flag;
  6779  1747  3073               	movlw	(low ((?_printf| 0+2)))& (0+255)
  6780  1748  00F3               	movwf	??_printf
  6781  1749  0873               	movf	??_printf,w
  6782  174A  00F7               	movwf	printf@ap
  6783                           
  6784                           ;C:\Program Files\Microchip\xc8\v2.31\pic\sources\c90\common\doprnt.c: 553:  while((c = 
      +                          *f++)) {
  6785  174B  2F7E               	goto	l1936
  6786  174C                     l1924:
  6787                           
  6788                           ;C:\Program Files\Microchip\xc8\v2.31\pic\sources\c90\common\doprnt.c: 555:   if(c != '%
      +                          ')
  6789  174C  3025               	movlw	37
  6790  174D  0679               	xorwf	printf@c,w
  6791  174E  1903               	btfsc	3,2
  6792  174F  2F51               	goto	u2261
  6793  1750  2F52               	goto	u2260
  6794  1751                     u2261:
  6795  1751  2F59               	goto	l1928
  6796  1752                     u2260:
  6797  1752                     l1926:
  6798                           
  6799                           ;C:\Program Files\Microchip\xc8\v2.31\pic\sources\c90\common\doprnt.c: 557:   {;C:\Progr
      +                          am Files\Microchip\xc8\v2.31\pic\sources\c90\common\doprnt.c: 558:    (putch(c) );
  6800  1752  0879               	movf	printf@c,w
  6801  1753  120A  118A  200B  160A  118A  	fcall	_putch
  6802                           
  6803                           ;C:\Program Files\Microchip\xc8\v2.31\pic\sources\c90\common\doprnt.c: 559:    continue;
  6804  1758  2F7E               	goto	l1936
  6805  1759                     l1928:
  6806                           
  6807                           ;C:\Program Files\Microchip\xc8\v2.31\pic\sources\c90\common\doprnt.c: 661:   switch(c =
      +                           *f++) {
  6808  1759  2F61               	goto	l1934
  6809  175A                     l1930:
  6810                           
  6811                           ;C:\Program Files\Microchip\xc8\v2.31\pic\sources\c90\common\doprnt.c: 835:    (putch(c)
      +                           );
  6812  175A  0879               	movf	printf@c,w
  6813  175B  120A  118A  200B  160A  118A  	fcall	_putch
  6814                           
  6815                           ;C:\Program Files\Microchip\xc8\v2.31\pic\sources\c90\common\doprnt.c: 836:    continue;
  6816  1760  2F7E               	goto	l1936
  6817  1761                     l1934:
  6818  1761  0872               	movf	printf@f+1,w
  6819  1762  00F4               	movwf	??_printf+1
  6820  1763  0871               	movf	printf@f,w
  6821  1764  00F3               	movwf	??_printf
  6822  1765  0AF1               	incf	printf@f,f
  6823  1766  1903               	skipnz
  6824  1767  0AF2               	incf	printf@f+1,f
  6825  1768  0874               	movf	??_printf+1,w
  6826  1769  00FF               	movwf	btemp+1
  6827  176A  0873               	movf	??_printf,w
  6828  176B  0084               	movwf	4
  6829  176C  160A  118A  2000  160A  118A  	fcall	stringtab
  6830  1771  00F9               	movwf	printf@c
  6831  1772  00F5               	movwf	??_printf+2
  6832  1773  01F6               	clrf	??_printf+3
  6833                           
  6834                           ; Switch on 2 bytes has been partitioned into a top level switch of size 1, and 1 sub-sw
      +                          itches
  6835                           ; Switch size 1, requested type "simple"
  6836                           ; Number of cases is 1, Range of values is 0 to 0
  6837                           ; switch strategies available:
  6838                           ; Name         Instructions Cycles
  6839                           ; simple_byte            4     3 (average)
  6840                           ; direct_byte           11     8 (fixed)
  6841                           ; jumptable            260     6 (fixed)
  6842                           ;	Chosen strategy is simple_byte
  6843  1774  0876               	movf	??_printf+3,w
  6844  1775  3A00               	xorlw	0	; case 0
  6845  1776  1903               	skipnz
  6846  1777  2F79               	goto	l2626
  6847  1778  2F5A               	goto	l1930
  6848  1779                     l2626:
  6849                           
  6850                           ; Switch size 1, requested type "simple"
  6851                           ; Number of cases is 1, Range of values is 0 to 0
  6852                           ; switch strategies available:
  6853                           ; Name         Instructions Cycles
  6854                           ; simple_byte            4     3 (average)
  6855                           ; direct_byte           11     8 (fixed)
  6856                           ; jumptable            260     6 (fixed)
  6857                           ;	Chosen strategy is simple_byte
  6858  1779  0875               	movf	??_printf+2,w
  6859  177A  3A00               	xorlw	0	; case 0
  6860  177B  1903               	skipnz
  6861  177C  2F98               	goto	l238
  6862  177D  2F5A               	goto	l1930
  6863  177E                     l1936:
  6864                           
  6865                           ;C:\Program Files\Microchip\xc8\v2.31\pic\sources\c90\common\doprnt.c: 553:  while((c = 
      +                          *f++)) {
  6866  177E  0872               	movf	printf@f+1,w
  6867  177F  00F4               	movwf	??_printf+1
  6868  1780  0871               	movf	printf@f,w
  6869  1781  00F3               	movwf	??_printf
  6870  1782  0AF1               	incf	printf@f,f
  6871  1783  1903               	skipnz
  6872  1784  0AF2               	incf	printf@f+1,f
  6873  1785  0874               	movf	??_printf+1,w
  6874  1786  1283               	bcf	3,5	;RP0=0, select bank0
  6875  1787  1303               	bcf	3,6	;RP1=0, select bank0
  6876  1788  00FF               	movwf	btemp+1
  6877  1789  0873               	movf	??_printf,w
  6878  178A  0084               	movwf	4
  6879  178B  160A  118A  2000  160A  118A  	fcall	stringtab
  6880  1790  00F5               	movwf	??_printf+2
  6881  1791  0875               	movf	??_printf+2,w
  6882  1792  00F9               	movwf	printf@c
  6883  1793  0879               	movf	printf@c,w
  6884  1794  1D03               	btfss	3,2
  6885  1795  2F97               	goto	u2271
  6886  1796  2F98               	goto	u2270
  6887  1797                     u2271:
  6888  1797  2F4C               	goto	l1924
  6889  1798                     u2270:
  6890  1798                     l238:
  6891  1798  0008               	return
  6892  1799                     __end_of_printf:
  6893                           
  6894                           	psect	text19
  6895  000B                     __ptext19:	
  6896 ;; *************** function _putch *****************
  6897 ;; Defined at:
  6898 ;;		line 153 in file "Lab03_Master.c"
  6899 ;; Parameters:    Size  Location     Type
  6900 ;;  data            1    wreg     unsigned char 
  6901 ;; Auto vars:     Size  Location     Type
  6902 ;;  data            1    0[COMMON] unsigned char 
  6903 ;; Return value:  Size  Location     Type
  6904 ;;                  1    wreg      void 
  6905 ;; Registers used:
  6906 ;;		wreg
  6907 ;; Tracked objects:
  6908 ;;		On entry : 0/0
  6909 ;;		On exit  : 0/0
  6910 ;;		Unchanged: 0/0
  6911 ;; Data sizes:     COMMON   BANK0   BANK1   BANK3   BANK2
  6912 ;;      Params:         0       0       0       0       0
  6913 ;;      Locals:         1       0       0       0       0
  6914 ;;      Temps:          0       0       0       0       0
  6915 ;;      Totals:         1       0       0       0       0
  6916 ;;Total ram usage:        1 bytes
  6917 ;; Hardware stack levels used:    1
  6918 ;; This function calls:
  6919 ;;		Nothing
  6920 ;; This function is called by:
  6921 ;;		_printf
  6922 ;; This function uses a non-reentrant model
  6923 ;;
  6924                           
  6925                           
  6926                           ;psect for function _putch
  6927  000B                     _putch:
  6928                           
  6929                           ;incstack = 0
  6930                           ; Regs used in _putch: [wreg]
  6931                           ;putch@data stored from wreg
  6932  000B  00F0               	movwf	putch@data
  6933  000C                     l1698:
  6934  000C                     l74:	
  6935                           ;Lab03_Master.c: 154:     while (TXIF == 0);
  6936                           
  6937  000C  1283               	bcf	3,5	;RP0=0, select bank0
  6938  000D  1303               	bcf	3,6	;RP1=0, select bank0
  6939  000E  1E0C               	btfss	12,4	;volatile
  6940  000F  2811               	goto	u1751
  6941  0010  2812               	goto	u1750
  6942  0011                     u1751:
  6943  0011  280C               	goto	l74
  6944  0012                     u1750:
  6945  0012                     l1700:
  6946                           
  6947                           ;Lab03_Master.c: 155:     TXREG = data;
  6948  0012  0870               	movf	putch@data,w
  6949  0013  0099               	movwf	25	;volatile
  6950  0014                     l77:
  6951  0014  0008               	return
  6952  0015                     __end_of_putch:
  6953  007E                     btemp	set	126	;btemp
  6954  007E                     wtemp0	set	126
  6955                           
  6956                           	psect	config
  6957                           
  6958                           ;Config register CONFIG1 @ 0x2007
  6959                           ;	Oscillator Selection bits
  6960                           ;	FOSC = INTRC_NOCLKOUT, INTOSCIO oscillator: I/O function on RA6/OSC2/CLKOUT pin, I/O f
      +                          unction on RA7/OSC1/CLKIN
  6961                           ;	Watchdog Timer Enable bit
  6962                           ;	WDTE = OFF, WDT disabled and can be enabled by SWDTEN bit of the WDTCON register
  6963                           ;	Power-up Timer Enable bit
  6964                           ;	PWRTE = OFF, PWRT disabled
  6965                           ;	RE3/MCLR pin function select bit
  6966                           ;	MCLRE = OFF, RE3/MCLR pin function is digital input, MCLR internally tied to VDD
  6967                           ;	Code Protection bit
  6968                           ;	CP = OFF, Program memory code protection is disabled
  6969                           ;	Data Code Protection bit
  6970                           ;	CPD = OFF, Data memory code protection is disabled
  6971                           ;	Brown Out Reset Selection bits
  6972                           ;	BOREN = OFF, BOR disabled
  6973                           ;	Internal External Switchover bit
  6974                           ;	IESO = OFF, Internal/External Switchover mode is disabled
  6975                           ;	Fail-Safe Clock Monitor Enabled bit
  6976                           ;	FCMEN = OFF, Fail-Safe Clock Monitor is disabled
  6977                           ;	Low Voltage Programming Enable bit
  6978                           ;	LVP = OFF, RB3 pin has digital I/O, HV on MCLR must be used for programming
  6979                           ;	In-Circuit Debugger Mode bit
  6980                           ;	DEBUG = 0x1, unprogrammed default
  6981  2007                     	org	8199
  6982  2007  20D4               	dw	8404
  6983                           
  6984                           ;Config register CONFIG2 @ 0x2008
  6985                           ;	Brown-out Reset Selection bit
  6986                           ;	BOR4V = BOR40V, Brown-out Reset set to 4.0V
  6987                           ;	Flash Program Memory Self Write Enable bits
  6988                           ;	WRT = OFF, Write protection off
  6989  2008                     	org	8200
  6990  2008  3FFF               	dw	16383

Data Sizes:
    Strings     44
    Constant    0
    Data        0
    BSS         30
    Persistent  0
    Stack       0

Auto Spaces:
    Space          Size  Autos    Used
    COMMON           14     13      14
    BANK0            80     78      79
    BANK1            80     19      47
    BANK3            96      0       0
    BANK2            96      0       0

Pointer List with Targets:

    printf@f	PTR const unsigned char  size(2) Largest target is 18
		 -> STR_4(CODE[18]), STR_3(CODE[13]), STR_2(CODE[18]), STR_1(CODE[13]), 
		 -> sensor2(BANK1[10]), sensor1(BANK1[10]), 

    printf@ap	PTR void [1] size(1) Largest target is 2
		 -> ?_printf(COMMON[2]), 

    convert@data	PTR unsigned char  size(1) Largest target is 10
		 -> sensor2(BANK1[10]), sensor1(BANK1[10]), 


Critical Paths under _main in COMMON

    _main->_Eusart
    _setup->_spiInit
    _convert->___wmul
    ___xxtofl->___wmul
    ___wmul->___fltol
    ___flsub->___wmul
    _Eusart->_printf
    _printf->_putch

Critical Paths under _main in BANK0

    _main->_convert
    _convert->___flmul
    ___xxtofl->___wmul
    ___flsub->___xxtofl
    ___flmul->___fldiv
    ___fldiv->___xxtofl

Critical Paths under _main in BANK1

    _main->_convert

Critical Paths under _main in BANK3

    None.

Critical Paths under _main in BANK2

    None.

Call Graph Tables:

 ---------------------------------------------------------------------------------
 (Depth) Function   	        Calls       Base Space   Used Autos Params    Refs
 ---------------------------------------------------------------------------------
 (0) _main                                                 4     4      0   18495
                                             15 BANK1      4     4      0
                             _Eusart
                            ___fldiv
                            ___flmul
                           ___xxtofl
                            _convert
                              _setup
                            _spiRead
                           _spiWrite
 ---------------------------------------------------------------------------------
 (1) _spiWrite                                             1     1      0      22
                                              0 COMMON     1     1      0
 ---------------------------------------------------------------------------------
 (1) _spiRead                                              0     0      0       0
                     _spiReceiveWait
 ---------------------------------------------------------------------------------
 (2) _spiReceiveWait                                       0     0      0       0
 ---------------------------------------------------------------------------------
 (1) _setup                                                0     0      0     360
                            _spiInit
 ---------------------------------------------------------------------------------
 (2) _spiInit                                              4     1      3     360
                                              0 COMMON     4     1      3
 ---------------------------------------------------------------------------------
 (1) _convert                                             23    17      6   11989
                                             70 BANK0      8     2      6
                                              0 BANK1     15    15      0
                            ___awdiv
                            ___fldiv
                             ___flge
                            ___flmul
                            ___flsub
                            ___fltol
                             ___wmul
                           ___xxtofl
 ---------------------------------------------------------------------------------
 (2) ___xxtofl                                            14    10      4     930
                                              4 BANK0     14    10      4
                            ___fltol (ARG)
                             ___wmul (ARG)
 ---------------------------------------------------------------------------------
 (2) ___wmul                                               6     2      4     852
                                             11 COMMON     2     2      0
                                              0 BANK0      4     0      4
                            ___fltol (ARG)
 ---------------------------------------------------------------------------------
 (2) ___fltol                                             11     7      4     761
                                              0 COMMON    11     7      4
 ---------------------------------------------------------------------------------
 (2) ___flsub                                              8     0      8    2637
                                             18 BANK0      8     0      8
                            ___fladd
                            ___fltol (ARG)
                             ___wmul (ARG)
                           ___xxtofl (ARG)
 ---------------------------------------------------------------------------------
 (3) ___fladd                                             20    12      8    2136
                                              0 COMMON    12     4      8
                                              0 BANK0      8     8      0
 ---------------------------------------------------------------------------------
 (2) ___flmul                                             26    18      8    2873
                                             44 BANK0     26    18      8
                          __Umul8_16
                            ___fldiv (ARG)
                            ___flsub (ARG)
                            ___fltol (ARG)
                           ___xxtofl (ARG)
 ---------------------------------------------------------------------------------
 (3) __Umul8_16                                            9     7      2     799
                                              0 COMMON     9     7      2
 ---------------------------------------------------------------------------------
 (2) ___flge                                              12     4      8     334
                                              0 COMMON    12     4      8
 ---------------------------------------------------------------------------------
 (2) ___fldiv                                             26    18      8    1729
                                             18 BANK0     26    18      8
                           ___xxtofl (ARG)
 ---------------------------------------------------------------------------------
 (2) ___awdiv                                              9     5      4     452
                                              0 COMMON     9     5      4
 ---------------------------------------------------------------------------------
 (1) _Eusart                                               3     3      0     592
                                             10 COMMON     3     3      0
                             _printf
 ---------------------------------------------------------------------------------
 (2) _printf                                              20    18      2     592
                                              1 COMMON     9     7      2
                              _putch
 ---------------------------------------------------------------------------------
 (3) _putch                                                1     1      0      22
                                              0 COMMON     1     1      0
 ---------------------------------------------------------------------------------
 Estimated maximum stack depth 3
 ---------------------------------------------------------------------------------

 Call Graph Graphs:

 _main (ROOT)
   _Eusart
     _printf
       _putch
   ___fldiv
     ___xxtofl (ARG)
       ___fltol (ARG)
       ___wmul (ARG)
         ___fltol (ARG)
   ___flmul
     __Umul8_16
     ___fldiv (ARG)
       ___xxtofl (ARG)
         ___fltol (ARG)
         ___wmul (ARG)
           ___fltol (ARG)
     ___flsub (ARG)
       ___fladd
       ___fltol (ARG)
       ___wmul (ARG)
         ___fltol (ARG)
       ___xxtofl (ARG)
         ___fltol (ARG)
         ___wmul (ARG)
           ___fltol (ARG)
     ___fltol (ARG)
     ___xxtofl (ARG)
       ___fltol (ARG)
       ___wmul (ARG)
         ___fltol (ARG)
   ___xxtofl
     ___fltol (ARG)
     ___wmul (ARG)
       ___fltol (ARG)
   _convert
     ___awdiv
     ___fldiv
       ___xxtofl (ARG)
         ___fltol (ARG)
         ___wmul (ARG)
           ___fltol (ARG)
     ___flge
     ___flmul
       __Umul8_16
       ___fldiv (ARG)
         ___xxtofl (ARG)
           ___fltol (ARG)
           ___wmul (ARG)
             ___fltol (ARG)
       ___flsub (ARG)
         ___fladd
         ___fltol (ARG)
         ___wmul (ARG)
           ___fltol (ARG)
         ___xxtofl (ARG)
           ___fltol (ARG)
           ___wmul (ARG)
             ___fltol (ARG)
       ___fltol (ARG)
       ___xxtofl (ARG)
         ___fltol (ARG)
         ___wmul (ARG)
           ___fltol (ARG)
     ___flsub
       ___fladd
       ___fltol (ARG)
       ___wmul (ARG)
         ___fltol (ARG)
       ___xxtofl (ARG)
         ___fltol (ARG)
         ___wmul (ARG)
           ___fltol (ARG)
     ___fltol
     ___wmul
       ___fltol (ARG)
     ___xxtofl
       ___fltol (ARG)
       ___wmul (ARG)
         ___fltol (ARG)
   _setup
     _spiInit
   _spiRead
     _spiReceiveWait
   _spiWrite

 Address spaces:
Name               Size   Autos  Total    Cost      Usage
BITCOMMON            E      0       0       0        0.0%
EEDATA             100      0       0       0        0.0%
NULL                 0      0       0       0        0.0%
CODE                 0      0       0       0        0.0%
COMMON               E      D       E       1      100.0%
BITSFR0              0      0       0       1        0.0%
SFR0                 0      0       0       1        0.0%
BITSFR1              0      0       0       2        0.0%
SFR1                 0      0       0       2        0.0%
STACK                0      0       0       2        0.0%
ABS                  0      0      8C       3        0.0%
BITBANK0            50      0       0       4        0.0%
BITSFR3              0      0       0       4        0.0%
SFR3                 0      0       0       4        0.0%
BANK0               50     4E      4F       5       98.8%
BITSFR2              0      0       0       5        0.0%
SFR2                 0      0       0       5        0.0%
BITBANK1            50      0       0       6        0.0%
BANK1               50     13      2F       7       58.8%
BITBANK3            60      0       0       8        0.0%
BANK3               60      0       0       9        0.0%
BITBANK2            60      0       0      10        0.0%
BANK2               60      0       0      11        0.0%
DATA                 0      0      8C      12        0.0%


Microchip Technology PIC Macro Assembler V2.31 build 20201012212115 
Symbol Table                                                                                   Mon Aug 02 21:02:38 2021

           ___fldiv@aexp 004B             ___fldiv@bexp 004A                        pc 0002  
           ___fldiv@sign 0043              _SSPSTATbits 0094                       l71 1746  
                     l80 0099                       l74 000C                       l77 0014  
                     l96 081B                       l97 0820             ___awdiv@sign 0076  
                     fsr 0004      ___wmul@multiplicand 0022      __Umul8_16@word_mpld 0076  
                    l100 169E                      l103 16A4                      l114 080A  
                    l106 169D                      l140 07EE                      l242 16FE  
                    l420 093C                      l244 1716                      l238 1798  
                    l416 08B7                      l419 0923                      l435 0885  
                    l428 089A                      l613 0D4B                      l541 0E49  
                    l438 089A                      l615 0D5B                      l607 0CD9  
                    l631 03FA                      l535 0DCB                      l560 0F6B  
                    l650 16DD                      l395 17FF                      l643 03EE  
                    l539 0E74                      l652 16EF                      l556 0F45  
                    l548 0FFF                      l637 0366                      l581 16C8  
                    l566 0F8D                      l591 0BE7                      l593 0D67  
                    l577 0FF1                      l569 0FCD                      l681 09A6  
                    l578 0FFF                      l675 0961                      l677 09F8  
                    l688 09C2                      l689 09CE                      fsr0 0004  
                    indf 0000             ___flmul@aexp 005E             ___flmul@bexp 005F  
           ___flmul@sign 0059             ___flmul@temp 0064             ___flmul@prod 0060  
           ___fltol@exp1 007A                     l2000 17FB                     l2010 08D3  
                   l2100 0BDC                     l2020 093B                     l2012 08D7  
                   l2004 089B                     l2110 0BFF                     l2102 0BDD  
                   l2014 08FB                     l2006 08AF                     l2030 0835  
                   l2200 0D55                     l2120 0C16                     l2104 0BDF  
                   l2016 08FF                     l2008 08CB                     l2040 0859  
                   l2032 084A                     l2024 0821                     l2202 0D57  
                   l2130 0C42                     l2122 0C28                     l2106 0BEF  
                   l2114 0C08                     l2018 0939                     l2210 00A1  
                   l2034 084B                     l2026 082C                     l2132 0C47  
                   l2140 0C67                     l2124 0C30                     l2116 0C0D  
                   l2108 0BFB                     l2300 0337                     l2220 00B6  
                   l2212 00A7                     l2060 16A5                     l2036 0853  
                   l2150 0C92                     l2142 0C79                     l2134 0C59  
                   l2126 0C38                     l2070 0B98                     l2310 034F  
                   l2302 0340                     l2230 00D3                     l2222 00BE  
                   l2214 00AB                     l2062 16A9                     l2054 087A  
                   l2046 0861                     l2038 0855                     l2160 0CAA  
                   l2152 0C9A                     l2144 0C7A                     l2136 0C5D  
                   l2128 0C40                     l2080 0BAF                     l2072 0B9C  
                   l2320 037E                     l2312 0363                     l2304 0346  
                   l2240 00EA                     l2232 00D7                     l2224 00C0  
                   l2216 00AC                     l2208 009A                     l2056 088A  
                   l2048 0873                     l2400 172E                     l2170 0CC2  
                   l2162 0CB3                     l2154 0C9C                     l2146 0C88  
                   l2138 0C5E                     l2090 0BC5                     l2082 0BB0  
                   l2074 0B9D                     l2066 0B8B                     l2330 03B9  
                   l2322 0382                     l2306 034A                     l2242 00EC  
                   l2234 00D8                     l2226 00C8                     l2218 00B1  
                   l2058 088F                     l2410 1735                     l2402 1731  
                   l1700 0012                     l2180 0CF1                     l2172 0CD6  
                   l2156 0CA5                     l2164 0CB9                     l2148 0C8C  
                   l2092 0BC9                     l2076 0BA2                     l2084 0BB2  
                   l2068 0B92                     l2340 03E6                     l2332 03C8  
                   l2324 039B                     l2316 036B                     l2308 034B  
                   l2260 015D                     l2252 0107                     l2244 00F4  
                   l2236 00DD                     l2228 00CD                     l2500 0687  
                   l2420 1741                     l2412 1736                     l2404 1732  
                   l2190 0D2F                     l2182 0CF5                     l2166 0CBD  
                   l2158 0CA9                     l2094 0BCA                     l2086 0BBA  
                   l2078 0BA7                     l2342 03E7                     l2334 03D2  
                   l2318 0370                     l2326 03A1                     l2270 01DA  
                   l2262 0189                     l2254 0117                     l2246 00F9  
                   l2238 00E2                     l1710 0D79                     l2350 0945  
                   l2510 06BD                     l2502 069D                     l2422 1742  
                   l2414 1739                     l2406 1733                     l2430 0807  
                   l2192 0D3E                     l2184 0D0E                     l2176 0CDE  
                   l2168 0CBE                     l2096 0BCF                     l2088 0BBF  
                   l2344 03F2                     l2336 03D4                     l2328 03AE  
                   l2280 025A                     l2272 01F7                     l2264 01A5  
                   l2256 0124                     l2248 00FE                     l1800 0E6E  
                   l1720 0D8D                     l1712 0D7A                     l1704 0D68  
                   l2360 0972                     l2352 0949                     l2520 06F4  
                   l2512 06C3                     l2504 06AA                     l2440 0415  
                   l2424 1743                     l2416 173D                     l2408 1734  
                   l2194 0D42                     l2178 0CE3                     l2186 0D14  
                   l2098 0BD4                     l2338 03E2                     l2290 0312  
                   l2282 0287                     l2274 0207                     l2266 01C1  
                   l2258 0141                     l1810 0E9D                     l1802 0E78  
                   l1730 0DA3                     l1714 0D7F                     l1722 0D8F  
                   l1706 0D6F                     l2370 099D                     l2362 0977  
                   l2354 0959                     l2530 07D4                     l2522 070A  
                   l2514 06C8                     l2506 06AA                     l2450 0457  
                   l2442 0417                     l2434 03FE                     l2418 173E  
                   l2426 1699                     l2540 002B                     l2196 0D4A  
                   l2188 0D21                     l1900 16CC                     l2292 031B  
                   l2284 0297                     l2276 0224                     l2268 01CA  
                   l1820 0EB6                     l1812 0EA1                     l1804 0E7D  
                   l1740 0DB8                     l1732 0DA9                     l1724 0D97  
                   l1716 0D84                     l1708 0D75                     l2380 09D0  
                   l2372 09AD                     l2364 0984                     l2356 0969  
                   l2348 0940                     l2524 07A6                     l2516 06CD  
                   l2532 07D8                     l2508 06B0                     l2460 048D  
                   l2452 0462                     l2444 041B                     l2436 0413  
                   l2428 0802                     l2550 0083                     l2542 0041  
                   l2198 0D51                     l1902 16D3                     l2294 0329  
                   l2286 02C4                     l2278 023D                     l1830 0F1D  
                   l1822 0EB7                     l1814 0EA5                     l1750 0DD5  
                   l1742 0DC0                     l1734 0DAD                     l1726 0D9C  
                   l1718 0D8C                     l2382 09E6                     l2374 09B8  
                   l2366 098B                     l2534 07DE                     l2526 07C6  
                   l2518 06EE                     l2470 04C4                     l2462 0493  
                   l2454 046B                     l2446 041B                     l2438 0413  
                   l2552 0090                     l2544 004E                     l2536 0015  
                   l1904 16D7                     l2296 0332                     l2288 02EA  
                   l1840 0F52                     l1832 0F23                     l1824 0EC2  
                   l1816 0EB0                     l1808 0E86                     l1760 0DE9  
                   l1752 0DD9                     l1744 0DC1                     l1736 0DAE  
                   l1728 0DA2                     l2384 09EB                     l2376 09BC  
                   l2368 098F                     l2528 07CE                     l2480 05A4  
                   l2472 04DA                     l2464 0498                     l2456 047E  
                   l2448 0436                     l1920 081A                     l1912 080C  
                   l2392 1717                     l2560 0A01                     l2626 1779  
                   l1930 175A                     l1922 1747                     l2546 0064  
                   l2538 0022                     l1906 16E6                     l2298 0336  
                   l1850 0F6F                     l1834 0F28                     l1818 0EB2  
                   l1826 0EC7                     l1770 0DFD                     l1762 0DED  
                   l1754 0DDD                     l1738 0DB3                     l1746 0DC3  
                   l2386 09EF                     l2378 09C6                     l2490 05C6  
                   l2474 0576                     l2466 049D                     l2482 05A8  
                   l2458 0484                     l1914 0813                     l2394 171B  
                   l2570 0A29                     l2562 0A0B                     l1924 174C  
                   l2548 006D                     l1908 16EB                     l1852 0F72  
                   l1844 0F5B                     l1828 0EDD                     l1836 0F37  
                   l1860 0F7F                     l1780 0E11                     l1772 0E01  
                   l1764 0DF1                     l1756 0DE1                     l1748 0DD1  
                   l2388 09F0                     l2492 05CB                     l2484 05AE  
                   l2476 0596                     l2468 04BE                     l1916 0815  
                   l2396 1724                     l2580 0A57                     l2572 0A2C  
                   l2564 0A11                     l2556 09F9                     l1934 1761  
                   l1926 1752                     l1870 0F92                     l1862 0F80  
                   l1854 0F74                     l1846 0F66                     l1838 0F4D  
                   l1790 0E58                     l1774 0E05                     l1766 0DF5  
                   l1758 0DE5                     l1782 0E15                     l1950 16F8  
                   l2494 05EC                     l2486 05BE                     l2478 059E  
                   l1918 0817                     l2398 1725                     l2590 0AF7  
                   l2582 0A5A                     l2574 0A2D                     l2566 0A19  
                   l2558 09FE                     l1928 1759                     l1936 177E  
                   l1960 1799                     l1880 0FD2                     l1872 0F97  
                   l1864 0F84                     l1856 0F79                     l1848 0F6A  
                   l1792 0E5A                     l1784 0E16                     l1776 0E09  
                   l1768 0DF9                     l1952 1705                     l2496 05F2  
                   l2488 05C6                     l1944 169E                     l2592 0B62  
                   l2584 0A64                     l2576 0A45                     l2568 0A1F  
                   l1698 000C                     l1970 17A9                     l1962 179A  
                   l1890 0FE9                     l1882 0FD7                     l1874 0FA5  
                   l1866 0F8A                     l1858 0F7B                     l1794 0E5E  
                   l1786 0E2D                     l1778 0E0D                     l1954 170C  
                   l1946 16F0                     l2498 060A                     l2594 0B82  
                   l2586 0A6C                     l2578 0A4D                     l1980 17BD  
                   l1972 17AE                     l1964 179E                     l1892 0FEB  
                   l1884 0FDF                     l1876 0FA9                     l1796 0E5F  
                   l1788 0E4D                     l1956 1712                     l1948 16F2  
                   l2588 0AD7                     l1990 17E3                     l1982 17C4  
                   l1974 17B2                     l1966 17A3                     l1894 0FFA  
                   l1886 0FE4                     l1878 0FC9                     l1798 0E6A  
                   l1992 17E4                     l1984 17C8                     l1976 17B4  
                   l1968 17A5                     l1896 0FFE                     l1888 0FE5  
                   l1994 17EB                     l1986 17CC                     l1978 17BA  
                   l1898 16CA                     l1988 17DD                     l1996 17F1  
                   l1998 17F6                     STR_1 1022                     STR_2 1010  
                   STR_3 102F                     STR_4 1010                     u2001 0EF6  
                   u2010 0F0A                     u2002 0EF7                     u2011 0F0B  
                   u2003 0EFC                     u2100 0F84                     u2020 0F28  
                   u2012 0F10                     u2004 0EFD                     u2101 0F83  
                   u2021 0F27                     u2013 0F11                     u2005 0F02  
                   u2110 0F8A                     u2030 0F4D                     u2006 0F03  
                   u2111 0F89                     u2031 0F4C                     u2200 0FE9  
                   u2120 0F91                     u2040 0F52                     u3001 01B3  
                   u2201 0FE8                     u2121 0F90                     u2041 0F51  
                   u3002 01BA                     u2210 0FFE                     u2130 0F97  
                   u3003 01C1                     u2211 0FFD                     u2131 0F96  
                   u2220 16D7                     u3100 02F8                     u2140 0FA9  
                   u2060 0F6A                     u2221 16D6                     u3021 01E9  
                   u2141 0FA8                     u2061 0F69                     u3022 01F0  
                   u2150 0FBA                     u2070 0F6F                     u3111 0304  
                   u3031 0216                     u3023 01F7                     u3015 01C3  
                   u2071 0F6E                     u2055 0F5F                     u2240 16EB  
                   u3200 0370                     u3112 030B                     u3032 021D  
                   u2160 0FC9                     u2080 0F79                     u2320 1712  
                   u2241 16EA                     u3201 036F                     u3113 0312  
                   u3105 02F3                     u3033 0224                     u2161 0FC8  
                   u2081 0F78                     u2321 1711                     u2305 16FF  
                   u2410 17F1                     u2330 179E                     u3210 0382  
                   u2170 0FD2                     u2090 0F7F                     u2250 0813  
                   u2411 17F0                     u2331 179D                     u2235 16DE  
                   u3211 0381                     u3051 024C                     u2171 0FD1  
                   u2155 0FB5                     u2091 0F7E                     u2315 1706  
                   u2251 0812                     u2260 1752                     u2420 17F6  
                   u2340 17A9                     u3220 0391                     u3140 0336  
                   u3052 0253                     u2180 0FD7                     u2500 082C  
                   u3300 098A                     u2261 1751                     u2421 17F5  
                   u2405 17E5                     u2341 17A8                     u3141 0335  
                   u3125 0314                     u3061 0279                     u3053 025A  
                   u3045 0226                     u2181 0FD6                     u2501 082B  
                   u3301 0989                     u2270 1798                     u2350 17BA  
                   u2430 08AF                     u3230 03AE                     u3062 0280  
                   u2190 0FE4                     u2510 0843                     u2271 1797  
                   u2351 17B9                     u2431 08AE                     u3231 03AD  
                   u3135 032B                     u3071 02A6                     u3063 0287  
                   u2191 0FE3                     u2600 0B9C                     u2440 08CB  
                   u3240 03C8                     u3160 034A                     u3080 02D0  
                   u3072 02AD                     u1800 0DAD                     u2520 0859  
                   u3320 09AC                     u3400 0436                     u2280 16A4  
                   u2601 0B9B                     u2441 08CA                     u3241 03C7  
                   u3225 038C                     u3161 0349                     u3073 02B4  
                   u1801 0DAC                     u2521 0858                     u3321 09AB  
                   u3401 0435                     u2281 16A3                     u2370 17CC  
                   u2610 0BA2                     u2450 08D7                     u3250 03E6  
                   u3170 034F                     u1810 0DB3                     u2530 0860  
                   u2290 16F8                     u3410 048C                     u2371 17CB  
                   u2611 0BA1                     u2451 08D6                     u3251 03E5  
                   u3235 03AA                     u3171 034E                     u3155 0339  
                   u3091 02DC                     u1811 0DB2                     u2531 085F  
                   u2515 083E                     u2291 16F7                     u3315 099E  
                   u3411 048B                     u2620 0BA7                     u3180 0363  
                   u3092 02E3                     u1820 0DB8                     u3340 09BC  
                   u3260 0945                     u3420 0493                     u2365 17BE  
                   u2621 0BA6                     u2461 08E6                     u3245 03C4  
                   u3181 0362                     u3093 02EA                     u3085 02CB  
                   u1821 0DB7                     u3341 09BB                     u3261 0944  
                   u3421 0492                     u1750 0012                     u2390 17DD  
                   u2710 0C5D                     u2630 0BC9                     u2470 08FF  
                   u2462 08E7                     u3190 036A                     u1910 0E74  
                   u1830 0DD1                     u2550 0872                     u3350 09C2  
                   u3270 0949                     u3430 04DA                     u1751 0011  
                   u2391 17DC                     u2711 0C5C                     u2631 0BC8  
                   u2471 08FE                     u2463 08EC                     u3191 0369  
                   u1911 0E73                     u1831 0DD0                     u2551 0871  
                   u3351 09C1                     u3335 09B1                     u3271 0948  
                   u3431 04D9                     u2800 0CC2                     u2640 0BCF  
                   u2464 08ED                     u1920 0E78                     u1840 0DD5  
                   u1760 0D79                     u2560 0879                     u3360 09C6  
                   u3280 0969                     u3440 05AE                     u2385 17CD  
                   u2801 0CC1                     u2705 0C52                     u2641 0BCE  
                   u2481 090E                     u2465 08F2                     u1921 0E77  
                   u1905 0E63                     u1841 0DD4                     u1761 0D78  
                   u2561 0878                     u2545 0862                     u3361 09C5  
                   u3281 0968                     u3441 05AD                     u2810 0CD6  
                   u2730 0C79                     u2650 0BD4                     u2490 0939  
                   u2482 090F                     u2466 08F3                     u1930 0E7D  
                   u1850 0E2D                     u1770 0D7F                     u3370 09DB  
                   u3450 060A                     u2395 17D9                     u2811 0CD5  
                   u2731 0C78                     u2651 0BD3                     u2491 0938  
                   u2483 0914                     u1931 0E7C                     u1851 0E2C  
                   u1771 0D7E                     u3451 0609                     u3435 04D6  
                   u3507 0A25                     u2820 0CDD                     u2740 0C92  
                   u2660 0BEF                     u2484 0915                     u2900 00B1  
                   u1860 0E36                     u1780 0D84                     u2580 088A  
                   u3380 09EB                     u3460 06C3                     u2821 0CDC  
                   u2741 0C91                     u2725 0C60                     u2661 0BEE  
                   u2485 091A                     u2901 00B0                     u1941 0E8F  
                   u1861 0E34                     u1781 0D83                     u2581 0889  
                   u3381 09EA                     u3461 06C2                     u3517 0A33  
                   u2830 0CE3                     u2750 0C9A                     u2670 0C0D  
                   u2486 091B                     u2910 00B6                     u1950 0EA1  
                   u1942 0E96                     u1870 0E37                     u1790 0DA2  
                   u2590 088F                     u3390 09EF                     u3470 070A  
                   u2831 0CE2                     u2751 0C99                     u2735 0C75  
                   u2671 0C0C                     u2495 0935                     u2911 00B5  
                   u1951 0EA0                     u1943 0E9D                     u1855 0E29  
                   u1791 0DA1                     u2591 088E                     u2575 087C  
                   u3391 09EE                     u3375 09D6                     u3295 097C  
                   u3471 0709                     u3455 0606                     u3527 0A53  
                   u2840 0CF5                     u2680 0C47                     u2920 00D7  
                   u1960 0EA5                     u1880 0E4D                     u3480 07DE  
                   u3537 001B                     u2841 0CF4                     u2681 0C46  
                   u2921 00D6                     u1961 0EA4                     u1881 0E4C  
                   u3481 07DD                     u2850 0D04                     u2770 0CA9  
                   u2930 00DD                     u1970 0EB6                     u1890 0E5E  
                   u3547 0031                     u2771 0CA8                     u2931 00DC  
                   u1971 0EB5                     u1891 0E5D                     u3475 0706  
                   u2860 0D21                     u2940 00E2                     u3557 0047  
                   u2861 0D20                     u2765 0C9E                     u2941 00E1  
                   u2870 0D3E                     u2790 0CBD                     u2950 00F9  
                   u1990 0EDD                     u3567 005D                     u2871 0D3D  
                   u2855 0CFF                     u2791 0CBC                     u2695 0C49  
                   u2951 00F8                     u1991 0EDC                     u2880 0D55  
                   u2960 00FE                     u3577 0073                     u2881 0D54  
                   u2865 0D1D                     u2785 0CAC                     u2961 00FD  
                   u1993 0ED9                     u1985 0EBB                     u3497 0A07  
                   u2890 00AB                     u3587 0089                     u2875 0D3A  
                   u2971 014F                     u2891 00AA                     u2972 0156  
                   u2981 016B                     u2973 015D                     u2982 0172  
                   u2991 0197                     u2983 0179                     u2992 019E  
                   u2993 01A5                     _TXIF 0064                     _adc1 007D  
                   _adc2 006E                     _main 09F9                     btemp 007E  
                   start 0000          ___fldiv@new_exp 0044            ___fltol@sign1 0079  
        __end_of___fladd 1000                    ?_main 0070          __end_of___fldiv 0D68  
        __end_of___awdiv 1800          __end_of___flmul 03FB          __end_of___flsub 16C9  
        __end_of___fltol 089B                    _ANSEL 0188          ___awdiv@divisor 0070  
        ___awdiv@counter 0075                    _SPBRG 0099                    _PORTB 0006  
                  _PORTD 0008                    _TRISB 0086                    _TRISD 0088  
                  _TXREG 0019              convert@data 00C0              convert@temp 00BC  
        __end_of_convert 07EF                    _conv1 00A4                    _conv2 00A0  
                  _setup 1717                    _putch 000B                    pclath 000A  
        __end_of_spiInit 0821          __end_of_spiRead 080B                    status 0003  
                  wtemp0 007E          __initialization 07EF             __end_of_main 0B8B  
                 ??_main 00CB         ___awdiv@dividend 0072                   ?_setup 0070  
                 ?_putch 0070                   _ANSELH 0189                   _SPBRGH 009A  
                 _TRISC3 043B                   _TRISC5 043D                   _SSPCON 0014  
                 _SSPBUF 0013         __end_of___xxtofl 09F9                   _Eusart 0015  
                 ___flge 089B             convert@place 006A                ??___fladd 0020  
                 ___wmul 16F0                ??___fldiv 003A                ??___awdiv 0074  
              ??___flmul 0054                ??___flsub 007D                ??___fltol 0074  
       ___awdiv@quotient 0077                   _printf 1747                ??_convert 006C  
     __size_of__Umul8_16 0027         __end_of_spiWrite 169E                ??_spiInit 0073  
              ??_spiRead 0070               ___flge@ff1 0070               ___flge@ff2 0074  
           ___xxtofl@arg 002E             ___xxtofl@exp 002D             ___xxtofl@val 0024  
__end_of__initialization 07FC               ___fltol@f1 0070           __pcstackCOMMON 0070  
          __end_of_setup 1747            __end_of_putch 0015                  ??_setup 0074  
                ??_putch 0070               __pbssBANK0 006E               __pbssBANK1 00A0  
      __end_of__Umul8_16 16F0                  ?_Eusart 0070               __pmaintext 09F9  
                ?___flge 0070                  ?___wmul 0020  __size_of_spiReceiveWait 0007  
                ?_printf 0071                ?___xxtofl 0024                  _SSPSTAT 0094  
             __stringtab 1000          __size_of_Eusart 0085            convert@digits 00C7  
              ?_spiWrite 0070          __size_of___flge 00A2                  ___fladd 0D68  
                ___fldiv 0B8B                  ___awdiv 1799                  ___flmul 009A  
                ___flsub 16A5                  ___fltol 0821          __size_of___wmul 0027  
                __ptext1 1698                  __ptext2 0802                  __ptext3 169E  
                __ptext4 1717                  __ptext5 080B                  __ptext6 03FB  
                __ptext7 093D                  __ptext8 16F0                  __ptext9 0821  
        __size_of_printf 0052                  _convert 03FB               ??___xxtofl 0028  
                _spiInit 080B                  _spiRead 0802                  _sensor1 00B2  
                _sensor2 00A8                  clrloop0 0004     end_of_initialization 07FC  
              _RCSTAbits 0018                  printf@c 0079                  printf@f 0071  
             ??_spiWrite 0070                _PORTCbits 0007              ___fladd@grs 007B  
          ___xxtofl@sign 002C                _TRISCbits 0087              ___fldiv@grs 0046  
            ___fldiv@rem 003F              spiWrite@dat 0070              ___flmul@grs 005A  
              _TXSTAbits 0098           __end_of_Eusart 009A           _spiReceiveWait 169E  
         __end_of___flge 093D           __end_of___wmul 1717              _BAUDCTLbits 0187  
         __end_of_printf 1799      start_initialization 07EF                 ??_Eusart 007A  
 __end_of_spiReceiveWait 16A5                 ??___flge 0078                 ??___wmul 007B  
              __Umul8_16 16C9                 ??_printf 0073                ___fladd@a 0074  
              ___fladd@b 0070                ___fldiv@a 0032                ___fldiv@b 0036  
              ___flmul@a 0050                ___flmul@b 004C              __pbssCOMMON 007D  
              ___flsub@a 0032                ___flsub@b 0036                ___latbits 0002  
          __pcstackBANK0 0020            __pcstackBANK1 00BC        __size_of___xxtofl 00BC  
        ?_spiReceiveWait 0070                 ?___fladd 0070                 ?___fldiv 0032  
               ?___awdiv 0070                 ?___flmul 004C                 ?___flsub 0032  
               ?___fltol 0070               ?__Umul8_16 0070        __size_of_spiWrite 0006  
              __pstrings 1000                 ?_convert 0066                 ?_spiInit 0070  
               ?_spiRead 0070           __size_of_setup 0030           __size_of_putch 000A  
   spiInit@sTransmitEdge 0072           ___wmul@product 007B                clear_ram0 0003  
     spiInit@sDataSample 0070              __stringbase 100F        ___wmul@multiplier 0020  
              convert@mu 00C9              ??__Umul8_16 0072         __size_of___fladd 0298  
       __size_of___fldiv 01DD         __size_of___awdiv 0067         __size_of___flmul 0361  
       __size_of___flsub 0024         __size_of___fltol 007A       __end_of__stringtab 1010  
       __size_of_convert 03F4                 ___xxtofl 093D                 __ptext10 16A5  
               __ptext11 0D68                 __ptext12 009A                 __ptext13 16C9  
               __ptext14 089B                 __ptext15 0B8B                 __ptext16 1799  
               __ptext17 0015                 __ptext18 1747                 __ptext19 000B  
       __size_of_spiInit 0016         __size_of_spiRead 0009            __size_of_main 0192  
               _spiWrite 1698             spiInit@sType 0073        spiInit@sClockIdle 0071  
               convert@a 0066                 convert@i 00C5                 convert@j 00BE  
               convert@x 00C1                putch@data 0070         ??_spiReceiveWait 0070  
              stringcode 100A               _OSCCONbits 008F                 printf@ap 0077  
 __Umul8_16@multiplicand 0070                 stringdir 100A                 stringtab 1000  
          ___fladd@signs 0078             ___fladd@aexp 0079             ___fladd@bexp 007A  
   __Umul8_16@multiplier 0078        __Umul8_16@product 0074  
