

Microchip MPLAB XC8 Assembler V2.31 build 20201012212115 
                                                                                               Mon Aug 09 23:26:30 2021

Microchip MPLAB XC8 C Compiler v2.31 (Free license) build 20201012212115 Og1 
     1                           	processor	16F887
     2                           	pagewidth 120
     3                           	opt	flic
     4                           	psect	strings,global,class=STRING,delta=2,noexec
     5                           	psect	cinit,global,class=CODE,merge=1,delta=2
     6                           	psect	bssBANK0,global,class=BANK0,space=1,delta=1,noexec
     7                           	psect	bssBANK1,global,class=BANK1,space=1,delta=1,noexec
     8                           	psect	clrtext,global,class=CODE,delta=2
     9                           	psect	cstackBANK1,global,class=BANK1,space=1,delta=1,noexec
    10                           	psect	cstackCOMMON,global,class=COMMON,space=1,delta=1,noexec
    11                           	psect	cstackBANK0,global,class=BANK0,space=1,delta=1,noexec
    12                           	psect	maintext,global,class=CODE,split=1,delta=2
    13                           	psect	text1,local,class=CODE,merge=1,delta=2
    14                           	psect	text2,local,class=CODE,merge=1,delta=2
    15                           	psect	text3,local,class=CODE,merge=1,delta=2,group=1
    16                           	psect	text4,local,class=CODE,merge=1,delta=2
    17                           	psect	text5,local,class=CODE,merge=1,delta=2,group=1
    18                           	psect	text6,local,class=CODE,merge=1,delta=2,group=1
    19                           	psect	text7,local,class=CODE,merge=1,delta=2,group=1
    20                           	psect	text8,local,class=CODE,merge=1,delta=2,group=1
    21                           	psect	text9,local,class=CODE,merge=1,delta=2,group=1
    22                           	psect	text10,local,class=CODE,merge=1,delta=2,group=1
    23                           	psect	text11,local,class=CODE,merge=1,delta=2,group=1
    24                           	psect	text12,local,class=CODE,merge=1,delta=2,group=1
    25                           	psect	text13,local,class=CODE,merge=1,delta=2,group=1
    26                           	psect	text14,local,class=CODE,merge=1,delta=2,group=1
    27                           	psect	text15,local,class=CODE,merge=1,delta=2
    28                           	psect	text16,local,class=CODE,merge=1,delta=2
    29                           	psect	text17,local,class=CODE,merge=1,delta=2
    30                           	psect	text18,local,class=CODE,merge=1,delta=2
    31                           	psect	text19,local,class=CODE,merge=1,delta=2
    32                           	psect	text20,local,class=CODE,merge=1,delta=2
    33                           	psect	text21,local,class=CODE,merge=1,delta=2
    34                           	psect	text22,local,class=CODE,merge=1,delta=2
    35                           	psect	text23,local,class=CODE,merge=1,delta=2
    36                           	psect	text24,local,class=CODE,merge=1,delta=2
    37                           	psect	text25,local,class=CODE,merge=1,delta=2
    38                           	psect	text26,local,class=CODE,merge=1,delta=2
    39                           	psect	config,global,abs,ovrld,class=CONFIG,space=4,delta=2,noexec
    40                           	dabs	1,0x7E,2
    41  0000                     
    42                           ; Version 2.20
    43                           ; Generated 12/02/2020 GMT
    44                           ; 
    45                           ; Copyright © 2020, Microchip Technology Inc. and its subsidiaries ("Microchip")
    46                           ; All rights reserved.
    47                           ; 
    48                           ; This software is developed by Microchip Technology Inc. and its subsidiaries ("Microch
      +                          ip").
    49                           ; 
    50                           ; Redistribution and use in source and binary forms, with or without modification, are
    51                           ; permitted provided that the following conditions are met:
    52                           ; 
    53                           ;     1. Redistributions of source code must retain the above copyright notice, this lis
      +                          t of
    54                           ;        conditions and the following disclaimer.
    55                           ; 
    56                           ;     2. Redistributions in binary form must reproduce the above copyright notice, this 
      +                          list
    57                           ;        of conditions and the following disclaimer in the documentation and/or other
    58                           ;        materials provided with the distribution.
    59                           ; 
    60                           ;     3. Microchip's name may not be used to endorse or promote products derived from th
      +                          is
    61                           ;        software without specific prior written permission.
    62                           ; 
    63                           ; THIS SOFTWARE IS PROVIDED BY MICROCHIP "AS IS" AND ANY EXPRESS OR IMPLIED WARRANTIES,
    64                           ; INCLUDING, BUT NOT LIMITED TO, THE IMPLIED WARRANTIES OF MERCHANTABILITY AND FITNESS F
      +                          OR
    65                           ; PURPOSE ARE DISCLAIMED.  IN NO EVENT SHALL MICROCHIP BE LIABLE FOR ANY DIRECT, INDIREC
      +                          T,
    66                           ; INCIDENTAL, SPECIAL, EXEMPLARY, OR CONSEQUENTIAL DAMAGES (INCLUDING BUT NOT LIMITED TO
    67                           ; PROCUREMENT OF SUBSTITUTE GOODS OR SERVICES; LOSS OF USE, DATA OR PROFITS; OR BUSINESS
    68                           ; INTERRUPTION) HOWSOEVER CAUSED AND ON ANY THEORY OF LIABILITY, WHETHER IN CONTRACT, ST
      +                          RICT
    69                           ; LIABILITY, OR TORT (INCLUDING NEGLIGENCE OR OTHERWISE) ARISING IN ANY WAY OUT OF THE U
      +                          SE OF
    70                           ; THIS SOFTWARE, EVEN IF ADVISED OF THE POSSIBILITY OF SUCH DAMAGE.
    71                           ; 
    72                           ; 
    73                           ; Code-generator required, PIC16F887 Definitions
    74                           ; 
    75                           ; SFR Addresses
    76  0000                     	;# 
    77  0001                     	;# 
    78  0002                     	;# 
    79  0003                     	;# 
    80  0004                     	;# 
    81  0005                     	;# 
    82  0006                     	;# 
    83  0007                     	;# 
    84  0008                     	;# 
    85  0009                     	;# 
    86  000A                     	;# 
    87  000B                     	;# 
    88  000C                     	;# 
    89  000D                     	;# 
    90  000E                     	;# 
    91  000E                     	;# 
    92  000F                     	;# 
    93  0010                     	;# 
    94  0011                     	;# 
    95  0012                     	;# 
    96  0013                     	;# 
    97  0014                     	;# 
    98  0015                     	;# 
    99  0015                     	;# 
   100  0016                     	;# 
   101  0017                     	;# 
   102  0018                     	;# 
   103  0019                     	;# 
   104  001A                     	;# 
   105  001B                     	;# 
   106  001B                     	;# 
   107  001C                     	;# 
   108  001D                     	;# 
   109  001E                     	;# 
   110  001F                     	;# 
   111  0081                     	;# 
   112  0085                     	;# 
   113  0086                     	;# 
   114  0087                     	;# 
   115  0088                     	;# 
   116  0089                     	;# 
   117  008C                     	;# 
   118  008D                     	;# 
   119  008E                     	;# 
   120  008F                     	;# 
   121  0090                     	;# 
   122  0091                     	;# 
   123  0092                     	;# 
   124  0093                     	;# 
   125  0093                     	;# 
   126  0093                     	;# 
   127  0094                     	;# 
   128  0095                     	;# 
   129  0096                     	;# 
   130  0097                     	;# 
   131  0098                     	;# 
   132  0099                     	;# 
   133  009A                     	;# 
   134  009B                     	;# 
   135  009C                     	;# 
   136  009D                     	;# 
   137  009E                     	;# 
   138  009F                     	;# 
   139  0105                     	;# 
   140  0107                     	;# 
   141  0108                     	;# 
   142  0109                     	;# 
   143  010C                     	;# 
   144  010C                     	;# 
   145  010D                     	;# 
   146  010E                     	;# 
   147  010F                     	;# 
   148  0185                     	;# 
   149  0187                     	;# 
   150  0188                     	;# 
   151  0189                     	;# 
   152  018C                     	;# 
   153  018D                     	;# 
   154  0000                     	;# 
   155  0001                     	;# 
   156  0002                     	;# 
   157  0003                     	;# 
   158  0004                     	;# 
   159  0005                     	;# 
   160  0006                     	;# 
   161  0007                     	;# 
   162  0008                     	;# 
   163  0009                     	;# 
   164  000A                     	;# 
   165  000B                     	;# 
   166  000C                     	;# 
   167  000D                     	;# 
   168  000E                     	;# 
   169  000E                     	;# 
   170  000F                     	;# 
   171  0010                     	;# 
   172  0011                     	;# 
   173  0012                     	;# 
   174  0013                     	;# 
   175  0014                     	;# 
   176  0015                     	;# 
   177  0015                     	;# 
   178  0016                     	;# 
   179  0017                     	;# 
   180  0018                     	;# 
   181  0019                     	;# 
   182  001A                     	;# 
   183  001B                     	;# 
   184  001B                     	;# 
   185  001C                     	;# 
   186  001D                     	;# 
   187  001E                     	;# 
   188  001F                     	;# 
   189  0081                     	;# 
   190  0085                     	;# 
   191  0086                     	;# 
   192  0087                     	;# 
   193  0088                     	;# 
   194  0089                     	;# 
   195  008C                     	;# 
   196  008D                     	;# 
   197  008E                     	;# 
   198  008F                     	;# 
   199  0090                     	;# 
   200  0091                     	;# 
   201  0092                     	;# 
   202  0093                     	;# 
   203  0093                     	;# 
   204  0093                     	;# 
   205  0094                     	;# 
   206  0095                     	;# 
   207  0096                     	;# 
   208  0097                     	;# 
   209  0098                     	;# 
   210  0099                     	;# 
   211  009A                     	;# 
   212  009B                     	;# 
   213  009C                     	;# 
   214  009D                     	;# 
   215  009E                     	;# 
   216  009F                     	;# 
   217  0105                     	;# 
   218  0107                     	;# 
   219  0108                     	;# 
   220  0109                     	;# 
   221  010C                     	;# 
   222  010C                     	;# 
   223  010D                     	;# 
   224  010E                     	;# 
   225  010F                     	;# 
   226  0185                     	;# 
   227  0187                     	;# 
   228  0188                     	;# 
   229  0189                     	;# 
   230  018C                     	;# 
   231  018D                     	;# 
   232  0000                     	;# 
   233  0001                     	;# 
   234  0002                     	;# 
   235  0003                     	;# 
   236  0004                     	;# 
   237  0005                     	;# 
   238  0006                     	;# 
   239  0007                     	;# 
   240  0008                     	;# 
   241  0009                     	;# 
   242  000A                     	;# 
   243  000B                     	;# 
   244  000C                     	;# 
   245  000D                     	;# 
   246  000E                     	;# 
   247  000E                     	;# 
   248  000F                     	;# 
   249  0010                     	;# 
   250  0011                     	;# 
   251  0012                     	;# 
   252  0013                     	;# 
   253  0014                     	;# 
   254  0015                     	;# 
   255  0015                     	;# 
   256  0016                     	;# 
   257  0017                     	;# 
   258  0018                     	;# 
   259  0019                     	;# 
   260  001A                     	;# 
   261  001B                     	;# 
   262  001B                     	;# 
   263  001C                     	;# 
   264  001D                     	;# 
   265  001E                     	;# 
   266  001F                     	;# 
   267  0081                     	;# 
   268  0085                     	;# 
   269  0086                     	;# 
   270  0087                     	;# 
   271  0088                     	;# 
   272  0089                     	;# 
   273  008C                     	;# 
   274  008D                     	;# 
   275  008E                     	;# 
   276  008F                     	;# 
   277  0090                     	;# 
   278  0091                     	;# 
   279  0092                     	;# 
   280  0093                     	;# 
   281  0093                     	;# 
   282  0093                     	;# 
   283  0094                     	;# 
   284  0095                     	;# 
   285  0096                     	;# 
   286  0097                     	;# 
   287  0098                     	;# 
   288  0099                     	;# 
   289  009A                     	;# 
   290  009B                     	;# 
   291  009C                     	;# 
   292  009D                     	;# 
   293  009E                     	;# 
   294  009F                     	;# 
   295  0105                     	;# 
   296  0107                     	;# 
   297  0108                     	;# 
   298  0109                     	;# 
   299  010C                     	;# 
   300  010C                     	;# 
   301  010D                     	;# 
   302  010E                     	;# 
   303  010F                     	;# 
   304  0185                     	;# 
   305  0187                     	;# 
   306  0188                     	;# 
   307  0189                     	;# 
   308  018C                     	;# 
   309  018D                     	;# 
   310  0007                     _PORTCbits	set	7
   311  0013                     _SSPBUF	set	19
   312  0014                     _SSPCON	set	20
   313  0019                     _TXREG	set	25
   314  0008                     _PORTD	set	8
   315  0006                     _PORTB	set	6
   316  0063                     _SSPIF	set	99
   317  005E                     _PEIE	set	94
   318  005F                     _GIE	set	95
   319  0064                     _TXIF	set	100
   320  0091                     _SSPCON2bits	set	145
   321  0094                     _SSPSTAT	set	148
   322  0093                     _SSPADD	set	147
   323  0091                     _SSPCON2	set	145
   324  008F                     _OSCCONbits	set	143
   325  0088                     _TRISD	set	136
   326  0086                     _TRISB	set	134
   327  0087                     _TRISCbits	set	135
   328  0463                     _SSPIE	set	1123
   329  043C                     _TRISC4	set	1084
   330  043B                     _TRISC3	set	1083
   331  0189                     _ANSELH	set	393
   332  0188                     _ANSEL	set	392
   333                           
   334                           	psect	strings
   335  1000                     __pstrings:
   336  1000                     stringtab:
   337  1000                     __stringtab:
   338                           
   339                           ;	String table - string pointers are 1 byte each
   340  1000  1BFF               	btfsc	btemp+1,7
   341  1001  280A               	ljmp	stringcode
   342  1002  1383               	bcf	3,7
   343  1003  187F               	btfsc	btemp+1,0
   344  1004  1783               	bsf	3,7
   345  1005  0800               	movf	0,w
   346  1006  0A84               	incf	4,f
   347  1007  1903               	skipnz
   348  1008  0AFF               	incf	btemp+1,f
   349  1009  0008               	return
   350  100A                     stringcode:
   351  100A                     stringdir:
   352  100A  3010               	movlw	high stringdir
   353  100B  008A               	movwf	10
   354  100C  0804               	movf	4,w
   355  100D  0A84               	incf	4,f
   356  100E  0782               	addwf	2,f
   357  100F                     __stringbase:
   358  100F  3400               	retlw	0
   359  1010                     __end_of__stringtab:
   360  1010                     STR_1:
   361  1010  3441               	retlw	65	;'A'
   362  1011  3444               	retlw	68	;'D'
   363  1012  3443               	retlw	67	;'C'
   364  1013  3400               	retlw	0
   365  1014                     STR_2:
   366  1014  3453               	retlw	83	;'S'
   367  1015  3445               	retlw	69	;'E'
   368  1016  344E               	retlw	78	;'N'
   369  1017  3400               	retlw	0
   370  1018                     STR_3:
   371  1018  3443               	retlw	67	;'C'
   372  1019  344F               	retlw	79	;'O'
   373  101A  344E               	retlw	78	;'N'
   374  101B  3400               	retlw	0
   375  101C                     STR_6:
   376  101C  3425               	retlw	37	;'%'
   377  101D  3464               	retlw	100	;'d'
   378  101E  3400               	retlw	0
   379  101F                     STR_4:
   380  101F  3456               	retlw	86	;'V'
   381  1020  3400               	retlw	0
   382  1012                     
   383                           	psect	cinit
   384  07EF                     start_initialization:	
   385                           ; #config settings
   386                           
   387  07EF                     __initialization:
   388                           
   389                           ; Clear objects allocated to BANK0
   390  07EF  1283               	bcf	3,5	;RP0=0, select bank0
   391  07F0  1303               	bcf	3,6	;RP1=0, select bank0
   392  07F1  01EE               	clrf	__pbssBANK0& (0+127)
   393  07F2  01EF               	clrf	(__pbssBANK0+1)& (0+127)
   394                           
   395                           ; Clear objects allocated to BANK1
   396  07F3  1383               	bcf	3,7	;select IRP bank0
   397  07F4  30A0               	movlw	low __pbssBANK1
   398  07F5  0084               	movwf	4
   399  07F6  30D0               	movlw	low (__pbssBANK1+48)
   400  07F7  160A  118A  248C  120A  118A  	fcall	clear_ram0
   401  07FC                     end_of_initialization:	
   402                           ;End of C runtime variable initialization code
   403                           
   404  07FC                     __end_of__initialization:
   405  07FC  0183               	clrf	3
   406  07FD  120A  158A  2D25   	ljmp	_main	;jump to C main() function
   407                           
   408                           	psect	bssBANK0
   409  006E                     __pbssBANK0:
   410  006E                     _dato:
   411  006E                     	ds	2
   412                           
   413                           	psect	bssBANK1
   414  00A0                     __pbssBANK1:
   415  00A0                     _conv3:
   416  00A0                     	ds	4
   417  00A4                     _conv2:
   418  00A4                     	ds	4
   419  00A8                     _conv1:
   420  00A8                     	ds	4
   421  00AC                     _datos_sensor:
   422  00AC                     	ds	3
   423  00AF                     _contador:
   424  00AF                     	ds	1
   425  00B0                     _sensor:
   426  00B0                     	ds	1
   427  00B1                     _adc:
   428  00B1                     	ds	1
   429  00B2                     _lcd3:
   430  00B2                     	ds	10
   431  00BC                     _lcd2:
   432  00BC                     	ds	10
   433  00C6                     _lcd1:
   434  00C6                     	ds	10
   435                           
   436                           	psect	clrtext
   437  148C                     clear_ram0:	
   438                           ;	Called with FSR containing the base address, and
   439                           ;	W with the last address+1
   440                           
   441  148C  0064               	clrwdt	;clear the watchdog before getting into this loop
   442  148D                     clrloop0:
   443  148D  0180               	clrf	0	;clear RAM location pointed to by FSR
   444  148E  0A84               	incf	4,f	;increment pointer
   445  148F  0604               	xorwf	4,w	;XOR with final address
   446  1490  1903               	btfsc	3,2	;have we reached the end yet?
   447  1491  3400               	retlw	0	;all done for this memory range, return
   448  1492  0604               	xorwf	4,w	;XOR again to restore value
   449  1493  2C8D               	goto	clrloop0	;do the next byte
   450                           
   451                           	psect	cstackBANK1
   452  00D0                     __pcstackBANK1:
   453  00D0                     convert@temp:
   454                           
   455                           ; 2 bytes @ 0x0
   456  00D0                     	ds	2
   457  00D2                     convert@j:
   458                           
   459                           ; 2 bytes @ 0x2
   460  00D2                     	ds	2
   461  00D4                     convert@x:
   462                           
   463                           ; 4 bytes @ 0x4
   464  00D4                     	ds	4
   465  00D8                     convert@i:
   466                           
   467                           ; 2 bytes @ 0x8
   468  00D8                     	ds	2
   469  00DA                     convert@data:
   470                           
   471                           ; 1 bytes @ 0xA
   472  00DA                     	ds	1
   473  00DB                     convert@digits:
   474                           
   475                           ; 2 bytes @ 0xB
   476  00DB                     	ds	2
   477  00DD                     convert@mu:
   478                           
   479                           ; 2 bytes @ 0xD
   480  00DD                     	ds	2
   481  00DF                     ??_main:
   482                           
   483                           ; 1 bytes @ 0xF
   484  00DF                     	ds	4
   485  00E3                     _main$1004:
   486                           
   487                           ; 4 bytes @ 0x13
   488  00E3                     	ds	4
   489                           
   490                           	psect	cstackCOMMON
   491  0070                     __pcstackCOMMON:
   492  0070                     ?___flge:
   493  0070                     ?_setup:	
   494                           ; 1 bit 
   495                           
   496  0070                     ?_Lcd_Init:	
   497                           ; 1 bytes @ 0x0
   498                           
   499  0070                     ?_Lcd_Clear:	
   500                           ; 1 bytes @ 0x0
   501                           
   502  0070                     ?_I2C_Master_Start:	
   503                           ; 1 bytes @ 0x0
   504                           
   505  0070                     ??_I2C_Master_Start:	
   506                           ; 1 bytes @ 0x0
   507                           
   508  0070                     ?_I2C_Master_Write:	
   509                           ; 1 bytes @ 0x0
   510                           
   511  0070                     ?_I2C_Master_Stop:	
   512                           ; 1 bytes @ 0x0
   513                           
   514  0070                     ??_I2C_Master_Stop:	
   515                           ; 1 bytes @ 0x0
   516                           
   517  0070                     ?_main:	
   518                           ; 1 bytes @ 0x0
   519                           
   520  0070                     ?_I2C_Master_Wait:	
   521                           ; 1 bytes @ 0x0
   522                           
   523  0070                     ??_I2C_Master_Wait:	
   524                           ; 1 bytes @ 0x0
   525                           
   526  0070                     ?_Lcd_Port:	
   527                           ; 1 bytes @ 0x0
   528                           
   529  0070                     ??_Lcd_Port:	
   530                           ; 1 bytes @ 0x0
   531                           
   532  0070                     ?_Lcd_Cmd:	
   533                           ; 1 bytes @ 0x0
   534                           
   535  0070                     ?_Lcd_Write_Char:	
   536                           ; 1 bytes @ 0x0
   537                           
   538  0070                     ?_I2C_Master_Read:	
   539                           ; 1 bytes @ 0x0
   540                           
   541  0070                     ?__Umul8_16:	
   542                           ; 2 bytes @ 0x0
   543                           
   544  0070                     ?___awdiv:	
   545                           ; 2 bytes @ 0x0
   546                           
   547  0070                     ?___lldiv:	
   548                           ; 2 bytes @ 0x0
   549                           
   550  0070                     ?___fltol:	
   551                           ; 4 bytes @ 0x0
   552                           
   553  0070                     ?___fladd:	
   554                           ; 4 bytes @ 0x0
   555                           
   556  0070                     Lcd_Port@a:	
   557                           ; 4 bytes @ 0x0
   558                           
   559  0070                     __Umul8_16@multiplicand:	
   560                           ; 1 bytes @ 0x0
   561                           
   562  0070                     I2C_Master_Write@d:	
   563                           ; 1 bytes @ 0x0
   564                           
   565  0070                     I2C_Master_Read@a:	
   566                           ; 2 bytes @ 0x0
   567                           
   568  0070                     ___awdiv@divisor:	
   569                           ; 2 bytes @ 0x0
   570                           
   571  0070                     ___lldiv@divisor:	
   572                           ; 2 bytes @ 0x0
   573                           
   574  0070                     ___flge@ff1:	
   575                           ; 4 bytes @ 0x0
   576                           
   577  0070                     ___fltol@f1:	
   578                           ; 4 bytes @ 0x0
   579                           
   580  0070                     ___fladd@b:	
   581                           ; 4 bytes @ 0x0
   582                           
   583                           
   584                           ; 4 bytes @ 0x0
   585  0070                     	ds	1
   586  0071                     ??_Lcd_Cmd:
   587  0071                     ??_Lcd_Write_Char:	
   588                           ; 1 bytes @ 0x1
   589                           
   590                           
   591                           ; 1 bytes @ 0x1
   592  0071                     	ds	1
   593  0072                     ??_I2C_Master_Write:
   594  0072                     ??_I2C_Master_Read:	
   595                           ; 1 bytes @ 0x2
   596                           
   597  0072                     ??__Umul8_16:	
   598                           ; 1 bytes @ 0x2
   599                           
   600  0072                     Lcd_Write_Char@a:	
   601                           ; 1 bytes @ 0x2
   602                           
   603  0072                     ___awdiv@dividend:	
   604                           ; 1 bytes @ 0x2
   605                           
   606                           
   607                           ; 2 bytes @ 0x2
   608  0072                     	ds	1
   609  0073                     ?_Lcd_Write_String:
   610  0073                     Lcd_Cmd@a:	
   611                           ; 1 bytes @ 0x3
   612                           
   613  0073                     Lcd_Write_String@a:	
   614                           ; 1 bytes @ 0x3
   615                           
   616                           
   617                           ; 2 bytes @ 0x3
   618  0073                     	ds	1
   619  0074                     ??_Lcd_Init:
   620  0074                     ??_Lcd_Clear:	
   621                           ; 1 bytes @ 0x4
   622                           
   623  0074                     ?_Lcd_Set_Cursor:	
   624                           ; 1 bytes @ 0x4
   625                           
   626  0074                     ??___awdiv:	
   627                           ; 1 bytes @ 0x4
   628                           
   629  0074                     ??___fltol:	
   630                           ; 1 bytes @ 0x4
   631                           
   632  0074                     Lcd_Set_Cursor@b:	
   633                           ; 1 bytes @ 0x4
   634                           
   635  0074                     I2C_Master_Read@temp:	
   636                           ; 1 bytes @ 0x4
   637                           
   638  0074                     __Umul8_16@product:	
   639                           ; 2 bytes @ 0x4
   640                           
   641  0074                     ___lldiv@dividend:	
   642                           ; 2 bytes @ 0x4
   643                           
   644  0074                     ___flge@ff2:	
   645                           ; 4 bytes @ 0x4
   646                           
   647  0074                     ___fladd@a:	
   648                           ; 4 bytes @ 0x4
   649                           
   650                           
   651                           ; 4 bytes @ 0x4
   652  0074                     	ds	1
   653  0075                     ??_Lcd_Set_Cursor:
   654  0075                     ??_Lcd_Write_String:	
   655                           ; 1 bytes @ 0x5
   656                           
   657  0075                     ___awdiv@counter:	
   658                           ; 1 bytes @ 0x5
   659                           
   660                           
   661                           ; 1 bytes @ 0x5
   662  0075                     	ds	1
   663  0076                     Lcd_Set_Cursor@a:
   664  0076                     ___awdiv@sign:	
   665                           ; 1 bytes @ 0x6
   666                           
   667  0076                     __Umul8_16@word_mpld:	
   668                           ; 1 bytes @ 0x6
   669                           
   670                           
   671                           ; 2 bytes @ 0x6
   672  0076                     	ds	1
   673  0077                     Lcd_Set_Cursor@temp:
   674  0077                     ___awdiv@quotient:	
   675                           ; 1 bytes @ 0x7
   676                           
   677                           
   678                           ; 2 bytes @ 0x7
   679  0077                     	ds	1
   680  0078                     ??___lldiv:
   681  0078                     ??___flge:	
   682                           ; 1 bytes @ 0x8
   683                           
   684  0078                     ___fladd@signs:	
   685                           ; 1 bytes @ 0x8
   686                           
   687  0078                     __Umul8_16@multiplier:	
   688                           ; 1 bytes @ 0x8
   689                           
   690  0078                     Lcd_Write_String@i:	
   691                           ; 1 bytes @ 0x8
   692                           
   693                           
   694                           ; 2 bytes @ 0x8
   695  0078                     	ds	1
   696  0079                     ___fltol@sign1:
   697  0079                     ___fladd@aexp:	
   698                           ; 1 bytes @ 0x9
   699                           
   700  0079                     ___lldiv@quotient:	
   701                           ; 1 bytes @ 0x9
   702                           
   703                           
   704                           ; 4 bytes @ 0x9
   705  0079                     	ds	1
   706  007A                     ___fltol@exp1:
   707  007A                     ___fladd@bexp:	
   708                           ; 1 bytes @ 0xA
   709                           
   710                           
   711                           ; 1 bytes @ 0xA
   712  007A                     	ds	1
   713  007B                     ??___wmul:
   714  007B                     ___fladd@grs:	
   715                           ; 1 bytes @ 0xB
   716                           
   717  007B                     ___wmul@product:	
   718                           ; 1 bytes @ 0xB
   719                           
   720                           
   721                           ; 2 bytes @ 0xB
   722  007B                     	ds	2
   723  007D                     ??___flsub:
   724  007D                     ___lldiv@counter:	
   725                           ; 1 bytes @ 0xD
   726                           
   727                           
   728                           ; 1 bytes @ 0xD
   729  007D                     	ds	1
   730  007E                     ??_setup:
   731                           
   732                           	psect	cstackBANK0
   733  0020                     __pcstackBANK0:	
   734                           ; 1 bytes @ 0xE
   735                           
   736  0020                     ?_I2C_Master_Init:
   737  0020                     ??___fladd:	
   738                           ; 1 bytes @ 0x0
   739                           
   740  0020                     ?___wmul:	
   741                           ; 1 bytes @ 0x0
   742                           
   743  0020                     ___wmul@multiplier:	
   744                           ; 2 bytes @ 0x0
   745                           
   746  0020                     I2C_Master_Init@c:	
   747                           ; 2 bytes @ 0x0
   748                           
   749                           
   750                           ; 4 bytes @ 0x0
   751  0020                     	ds	2
   752  0022                     ___wmul@multiplicand:
   753                           
   754                           ; 2 bytes @ 0x2
   755  0022                     	ds	2
   756  0024                     ??_I2C_Master_Init:
   757  0024                     ?___xxtofl:	
   758                           ; 1 bytes @ 0x4
   759                           
   760  0024                     ___xxtofl@val:	
   761                           ; 4 bytes @ 0x4
   762                           
   763                           
   764                           ; 4 bytes @ 0x4
   765  0024                     	ds	4
   766  0028                     ??___xxtofl:
   767                           
   768                           ; 1 bytes @ 0x8
   769  0028                     	ds	4
   770  002C                     ___xxtofl@sign:
   771                           
   772                           ; 1 bytes @ 0xC
   773  002C                     	ds	1
   774  002D                     ___xxtofl@exp:
   775                           
   776                           ; 1 bytes @ 0xD
   777  002D                     	ds	1
   778  002E                     ___xxtofl@arg:
   779                           
   780                           ; 4 bytes @ 0xE
   781  002E                     	ds	4
   782  0032                     ?___flsub:
   783  0032                     ?___fldiv:	
   784                           ; 4 bytes @ 0x12
   785                           
   786  0032                     ___flsub@a:	
   787                           ; 4 bytes @ 0x12
   788                           
   789  0032                     ___fldiv@a:	
   790                           ; 4 bytes @ 0x12
   791                           
   792                           
   793                           ; 4 bytes @ 0x12
   794  0032                     	ds	4
   795  0036                     ___flsub@b:
   796  0036                     ___fldiv@b:	
   797                           ; 4 bytes @ 0x16
   798                           
   799                           
   800                           ; 4 bytes @ 0x16
   801  0036                     	ds	4
   802  003A                     ??___fldiv:
   803                           
   804                           ; 1 bytes @ 0x1A
   805  003A                     	ds	5
   806  003F                     ___fldiv@rem:
   807                           
   808                           ; 4 bytes @ 0x1F
   809  003F                     	ds	4
   810  0043                     ___fldiv@sign:
   811                           
   812                           ; 1 bytes @ 0x23
   813  0043                     	ds	1
   814  0044                     ___fldiv@new_exp:
   815                           
   816                           ; 2 bytes @ 0x24
   817  0044                     	ds	2
   818  0046                     ___fldiv@grs:
   819                           
   820                           ; 4 bytes @ 0x26
   821  0046                     	ds	4
   822  004A                     ___fldiv@bexp:
   823                           
   824                           ; 1 bytes @ 0x2A
   825  004A                     	ds	1
   826  004B                     ___fldiv@aexp:
   827                           
   828                           ; 1 bytes @ 0x2B
   829  004B                     	ds	1
   830  004C                     ?___flmul:
   831  004C                     ___flmul@b:	
   832                           ; 4 bytes @ 0x2C
   833                           
   834                           
   835                           ; 4 bytes @ 0x2C
   836  004C                     	ds	4
   837  0050                     ___flmul@a:
   838                           
   839                           ; 4 bytes @ 0x30
   840  0050                     	ds	4
   841  0054                     ??___flmul:
   842                           
   843                           ; 1 bytes @ 0x34
   844  0054                     	ds	5
   845  0059                     ___flmul@sign:
   846                           
   847                           ; 1 bytes @ 0x39
   848  0059                     	ds	1
   849  005A                     ___flmul@grs:
   850                           
   851                           ; 4 bytes @ 0x3A
   852  005A                     	ds	4
   853  005E                     ___flmul@aexp:
   854                           
   855                           ; 1 bytes @ 0x3E
   856  005E                     	ds	1
   857  005F                     ___flmul@bexp:
   858                           
   859                           ; 1 bytes @ 0x3F
   860  005F                     	ds	1
   861  0060                     ___flmul@prod:
   862                           
   863                           ; 4 bytes @ 0x40
   864  0060                     	ds	4
   865  0064                     ___flmul@temp:
   866                           
   867                           ; 2 bytes @ 0x44
   868  0064                     	ds	2
   869  0066                     ?_convert:
   870  0066                     convert@a:	
   871                           ; 1 bytes @ 0x46
   872                           
   873                           
   874                           ; 4 bytes @ 0x46
   875  0066                     	ds	4
   876  006A                     convert@place:
   877                           
   878                           ; 2 bytes @ 0x4A
   879  006A                     	ds	2
   880  006C                     ??_convert:
   881                           
   882                           ; 1 bytes @ 0x4C
   883  006C                     	ds	2
   884                           
   885                           	psect	maintext
   886  0D25                     __pmaintext:	
   887 ;;
   888 ;;Main: autosize = 0, tempsize = 4, incstack = 0, save=0
   889 ;;
   890 ;; *************** function _main *****************
   891 ;; Defined at:
   892 ;;		line 77 in file "Master_I2C.c"
   893 ;; Parameters:    Size  Location     Type
   894 ;;		None
   895 ;; Auto vars:     Size  Location     Type
   896 ;;		None
   897 ;; Return value:  Size  Location     Type
   898 ;;                  1    wreg      void 
   899 ;; Registers used:
   900 ;;		wreg, fsr0l, fsr0h, status,2, status,0, btemp+1, pclath, cstack
   901 ;; Tracked objects:
   902 ;;		On entry : B00/0
   903 ;;		On exit  : 0/0
   904 ;;		Unchanged: 0/0
   905 ;; Data sizes:     COMMON   BANK0   BANK1   BANK3   BANK2
   906 ;;      Params:         0       0       0       0       0
   907 ;;      Locals:         0       0       4       0       0
   908 ;;      Temps:          0       0       4       0       0
   909 ;;      Totals:         0       0       8       0       0
   910 ;;Total ram usage:        8 bytes
   911 ;; Hardware stack levels required when called:    3
   912 ;; This function calls:
   913 ;;		_I2C_Master_Read
   914 ;;		_I2C_Master_Start
   915 ;;		_I2C_Master_Stop
   916 ;;		_I2C_Master_Write
   917 ;;		_Lcd_Clear
   918 ;;		_Lcd_Init
   919 ;;		_Lcd_Set_Cursor
   920 ;;		_Lcd_Write_String
   921 ;;		___fldiv
   922 ;;		___flmul
   923 ;;		___xxtofl
   924 ;;		_convert
   925 ;;		_setup
   926 ;; This function is called by:
   927 ;;		Startup code after reset
   928 ;; This function uses a non-reentrant model
   929 ;;
   930                           
   931                           
   932                           ;psect for function _main
   933  0D25                     _main:
   934  0D25                     l2744:	
   935                           ;incstack = 0
   936                           ; Regs used in _main: [wreg-fsr0h+status,2+status,0+btemp+1+pclath+cstack]
   937                           
   938                           
   939                           ;Master_I2C.c: 78:     setup();
   940  0D25  160A  118A  24D2  120A  158A  	fcall	_setup
   941                           
   942                           ;Master_I2C.c: 79:     Lcd_Init();
   943  0D2A  160A  118A  2632  120A  158A  	fcall	_Lcd_Init
   944                           
   945                           ;Master_I2C.c: 80:     Lcd_Clear();
   946  0D2F  120A  158A  2001  120A  158A  	fcall	_Lcd_Clear
   947  0D34                     l77:	
   948                           ;Master_I2C.c: 81:     while(1){
   949                           
   950                           
   951                           ;Master_I2C.c: 83:         Lcd_Set_Cursor(1, 1);
   952  0D34  01F4               	clrf	Lcd_Set_Cursor@b
   953  0D35  0AF4               	incf	Lcd_Set_Cursor@b,f
   954  0D36  3001               	movlw	1
   955  0D37  160A  118A  24F4  120A  158A  	fcall	_Lcd_Set_Cursor
   956  0D3C                     l2746:
   957                           
   958                           ;Master_I2C.c: 84:         Lcd_Write_String("ADC");
   959  0D3C  3001               	movlw	(low ((STR_1-__stringbase)| (0+32768)))& (0+255)
   960  0D3D  00F3               	movwf	Lcd_Write_String@a
   961  0D3E  3080               	movlw	128
   962  0D3F  00F4               	movwf	Lcd_Write_String@a+1
   963  0D40  160A  118A  25F0  120A  158A  	fcall	_Lcd_Write_String
   964  0D45                     l2748:
   965                           
   966                           ;Master_I2C.c: 85:         Lcd_Set_Cursor(1, 8);
   967  0D45  3008               	movlw	8
   968  0D46  1683               	bsf	3,5	;RP0=1, select bank1
   969  0D47  1303               	bcf	3,6	;RP1=0, select bank1
   970  0D48  00DF               	movwf	??_main^(0+128)
   971  0D49  085F               	movf	??_main^(0+128),w
   972  0D4A  00F4               	movwf	Lcd_Set_Cursor@b
   973  0D4B  3001               	movlw	1
   974  0D4C  160A  118A  24F4  120A  158A  	fcall	_Lcd_Set_Cursor
   975                           
   976                           ;Master_I2C.c: 86:         Lcd_Write_String("SEN");
   977  0D51  3005               	movlw	(low ((STR_2-__stringbase)| (0+32768)))& (0+255)
   978  0D52  00F3               	movwf	Lcd_Write_String@a
   979  0D53  3080               	movlw	128
   980  0D54  00F4               	movwf	Lcd_Write_String@a+1
   981  0D55  160A  118A  25F0  120A  158A  	fcall	_Lcd_Write_String
   982  0D5A                     l2750:
   983                           
   984                           ;Master_I2C.c: 87:         Lcd_Set_Cursor(1, 14);
   985  0D5A  300E               	movlw	14
   986  0D5B  1683               	bsf	3,5	;RP0=1, select bank1
   987  0D5C  1303               	bcf	3,6	;RP1=0, select bank1
   988  0D5D  00DF               	movwf	??_main^(0+128)
   989  0D5E  085F               	movf	??_main^(0+128),w
   990  0D5F  00F4               	movwf	Lcd_Set_Cursor@b
   991  0D60  3001               	movlw	1
   992  0D61  160A  118A  24F4  120A  158A  	fcall	_Lcd_Set_Cursor
   993  0D66                     l2752:
   994                           
   995                           ;Master_I2C.c: 88:         Lcd_Write_String("CON");
   996  0D66  3009               	movlw	(low ((STR_3-__stringbase)| (0+32768)))& (0+255)
   997  0D67  00F3               	movwf	Lcd_Write_String@a
   998  0D68  3080               	movlw	128
   999  0D69  00F4               	movwf	Lcd_Write_String@a+1
  1000  0D6A  160A  118A  25F0  120A  158A  	fcall	_Lcd_Write_String
  1001                           
  1002                           ;Master_I2C.c: 91:         I2C_Master_Start();
  1003  0D6F  160A  118A  2494  120A  158A  	fcall	_I2C_Master_Start
  1004                           
  1005                           ;Master_I2C.c: 92:         I2C_Master_Write(0x51);
  1006  0D74  3051               	movlw	81
  1007  0D75  00F0               	movwf	I2C_Master_Write@d
  1008  0D76  3000               	movlw	0
  1009  0D77  00F1               	movwf	I2C_Master_Write@d+1
  1010  0D78  160A  118A  24A6  120A  158A  	fcall	_I2C_Master_Write
  1011                           
  1012                           ;Master_I2C.c: 93:         adc = I2C_Master_Read(0);
  1013  0D7D  3000               	movlw	0
  1014  0D7E  00F0               	movwf	I2C_Master_Read@a
  1015  0D7F  00F1               	movwf	I2C_Master_Read@a+1
  1016  0D80  160A  118A  258A  120A  158A  	fcall	_I2C_Master_Read
  1017  0D85  0870               	movf	?_I2C_Master_Read,w
  1018  0D86  1683               	bsf	3,5	;RP0=1, select bank1
  1019  0D87  1303               	bcf	3,6	;RP1=0, select bank1
  1020  0D88  00DF               	movwf	??_main^(0+128)
  1021  0D89  085F               	movf	??_main^(0+128),w
  1022  0D8A  00B1               	movwf	_adc^(0+128)	;volatile
  1023                           
  1024                           ;Master_I2C.c: 94:         I2C_Master_Stop();
  1025  0D8B  160A  118A  249D  120A  158A  	fcall	_I2C_Master_Stop
  1026  0D90                     l2754:
  1027                           
  1028                           ;Master_I2C.c: 95:         _delay((unsigned long)((200)*(8000000/4000.0)));
  1029  0D90  3003               	movlw	3
  1030  0D91  1683               	bsf	3,5	;RP0=1, select bank1
  1031  0D92  1303               	bcf	3,6	;RP1=0, select bank1
  1032  0D93  00E1               	movwf	(??_main^(0+128)+2)
  1033  0D94  3008               	movlw	8
  1034  0D95  00E0               	movwf	(??_main^(0+128)+1)
  1035  0D96  3076               	movlw	118
  1036  0D97  00DF               	movwf	??_main^(0+128)
  1037  0D98                     u3727:
  1038  0D98  0BDF               	decfsz	??_main^(0+128),f
  1039  0D99  2D98               	goto	u3727
  1040  0D9A  0BE0               	decfsz	(??_main^(0+128)+1),f
  1041  0D9B  2D98               	goto	u3727
  1042  0D9C  0BE1               	decfsz	(??_main^(0+128)+2),f
  1043  0D9D  2D98               	goto	u3727
  1044  0D9E  0000               	nop
  1045  0D9F                     l2756:
  1046                           
  1047                           ;Master_I2C.c: 98:         I2C_Master_Start();
  1048  0D9F  160A  118A  2494  120A  158A  	fcall	_I2C_Master_Start
  1049  0DA4                     l2758:
  1050                           
  1051                           ;Master_I2C.c: 99:         I2C_Master_Write(0b10011010);
  1052  0DA4  309A               	movlw	154
  1053  0DA5  00F0               	movwf	I2C_Master_Write@d
  1054  0DA6  3000               	movlw	0
  1055  0DA7  00F1               	movwf	I2C_Master_Write@d+1
  1056  0DA8  160A  118A  24A6  120A  158A  	fcall	_I2C_Master_Write
  1057  0DAD                     l2760:
  1058                           
  1059                           ;Master_I2C.c: 100:         I2C_Master_Write(0x00);
  1060  0DAD  3000               	movlw	0
  1061  0DAE  00F0               	movwf	I2C_Master_Write@d
  1062  0DAF  00F1               	movwf	I2C_Master_Write@d+1
  1063  0DB0  160A  118A  24A6  120A  158A  	fcall	_I2C_Master_Write
  1064                           
  1065                           ;Master_I2C.c: 101:         _delay((unsigned long)((100)*(8000000/4000.0)));
  1066  0DB5  3002               	movlw	2
  1067  0DB6  1683               	bsf	3,5	;RP0=1, select bank1
  1068  0DB7  1303               	bcf	3,6	;RP1=0, select bank1
  1069  0DB8  00E1               	movwf	(??_main^(0+128)+2)
  1070  0DB9  3004               	movlw	4
  1071  0DBA  00E0               	movwf	(??_main^(0+128)+1)
  1072  0DBB  30B9               	movlw	185
  1073  0DBC  00DF               	movwf	??_main^(0+128)
  1074  0DBD                     u3737:
  1075  0DBD  0BDF               	decfsz	??_main^(0+128),f
  1076  0DBE  2DBD               	goto	u3737
  1077  0DBF  0BE0               	decfsz	(??_main^(0+128)+1),f
  1078  0DC0  2DBD               	goto	u3737
  1079  0DC1  0BE1               	decfsz	(??_main^(0+128)+2),f
  1080  0DC2  2DBD               	goto	u3737
  1081  0DC3  2DC4               	nop2
  1082  0DC4                     l2762:
  1083                           
  1084                           ;Master_I2C.c: 102:         I2C_Master_Stop();
  1085  0DC4  160A  118A  249D  120A  158A  	fcall	_I2C_Master_Stop
  1086  0DC9                     l2764:
  1087                           
  1088                           ;Master_I2C.c: 104:         I2C_Master_Start();
  1089  0DC9  160A  118A  2494  120A  158A  	fcall	_I2C_Master_Start
  1090                           
  1091                           ;Master_I2C.c: 105:         _delay((unsigned long)((100)*(8000000/4000.0)));
  1092  0DCE  3002               	movlw	2
  1093  0DCF  1683               	bsf	3,5	;RP0=1, select bank1
  1094  0DD0  1303               	bcf	3,6	;RP1=0, select bank1
  1095  0DD1  00E1               	movwf	(??_main^(0+128)+2)
  1096  0DD2  3004               	movlw	4
  1097  0DD3  00E0               	movwf	(??_main^(0+128)+1)
  1098  0DD4  30B9               	movlw	185
  1099  0DD5  00DF               	movwf	??_main^(0+128)
  1100  0DD6                     u3747:
  1101  0DD6  0BDF               	decfsz	??_main^(0+128),f
  1102  0DD7  2DD6               	goto	u3747
  1103  0DD8  0BE0               	decfsz	(??_main^(0+128)+1),f
  1104  0DD9  2DD6               	goto	u3747
  1105  0DDA  0BE1               	decfsz	(??_main^(0+128)+2),f
  1106  0DDB  2DD6               	goto	u3747
  1107  0DDC  2DDD               	nop2
  1108  0DDD                     l2766:
  1109                           
  1110                           ;Master_I2C.c: 106:         I2C_Master_Write(0b10011011);
  1111  0DDD  309B               	movlw	155
  1112  0DDE  00F0               	movwf	I2C_Master_Write@d
  1113  0DDF  3000               	movlw	0
  1114  0DE0  00F1               	movwf	I2C_Master_Write@d+1
  1115  0DE1  160A  118A  24A6  120A  158A  	fcall	_I2C_Master_Write
  1116  0DE6                     l2768:
  1117                           
  1118                           ;Master_I2C.c: 107:         _delay((unsigned long)((100)*(8000000/4000.0)));
  1119  0DE6  3002               	movlw	2
  1120  0DE7  1683               	bsf	3,5	;RP0=1, select bank1
  1121  0DE8  1303               	bcf	3,6	;RP1=0, select bank1
  1122  0DE9  00E1               	movwf	(??_main^(0+128)+2)
  1123  0DEA  3004               	movlw	4
  1124  0DEB  00E0               	movwf	(??_main^(0+128)+1)
  1125  0DEC  30B9               	movlw	185
  1126  0DED  00DF               	movwf	??_main^(0+128)
  1127  0DEE                     u3757:
  1128  0DEE  0BDF               	decfsz	??_main^(0+128),f
  1129  0DEF  2DEE               	goto	u3757
  1130  0DF0  0BE0               	decfsz	(??_main^(0+128)+1),f
  1131  0DF1  2DEE               	goto	u3757
  1132  0DF2  0BE1               	decfsz	(??_main^(0+128)+2),f
  1133  0DF3  2DEE               	goto	u3757
  1134  0DF4  2DF5               	nop2
  1135                           
  1136                           ;Master_I2C.c: 108:         sensor = I2C_Master_Read(0);
  1137  0DF5  3000               	movlw	0
  1138  0DF6  00F0               	movwf	I2C_Master_Read@a
  1139  0DF7  00F1               	movwf	I2C_Master_Read@a+1
  1140  0DF8  160A  118A  258A  120A  158A  	fcall	_I2C_Master_Read
  1141  0DFD  0870               	movf	?_I2C_Master_Read,w
  1142  0DFE  1683               	bsf	3,5	;RP0=1, select bank1
  1143  0DFF  1303               	bcf	3,6	;RP1=0, select bank1
  1144  0E00  00DF               	movwf	??_main^(0+128)
  1145  0E01  085F               	movf	??_main^(0+128),w
  1146  0E02  00B0               	movwf	_sensor^(0+128)	;volatile
  1147                           
  1148                           ;Master_I2C.c: 109:         I2C_Master_Stop();
  1149  0E03  160A  118A  249D  120A  158A  	fcall	_I2C_Master_Stop
  1150  0E08                     l2770:
  1151                           
  1152                           ;Master_I2C.c: 110:         _delay((unsigned long)((200)*(8000000/4000.0)));
  1153  0E08  3003               	movlw	3
  1154  0E09  1683               	bsf	3,5	;RP0=1, select bank1
  1155  0E0A  1303               	bcf	3,6	;RP1=0, select bank1
  1156  0E0B  00E1               	movwf	(??_main^(0+128)+2)
  1157  0E0C  3008               	movlw	8
  1158  0E0D  00E0               	movwf	(??_main^(0+128)+1)
  1159  0E0E  3076               	movlw	118
  1160  0E0F  00DF               	movwf	??_main^(0+128)
  1161  0E10                     u3767:
  1162  0E10  0BDF               	decfsz	??_main^(0+128),f
  1163  0E11  2E10               	goto	u3767
  1164  0E12  0BE0               	decfsz	(??_main^(0+128)+1),f
  1165  0E13  2E10               	goto	u3767
  1166  0E14  0BE1               	decfsz	(??_main^(0+128)+2),f
  1167  0E15  2E10               	goto	u3767
  1168  0E16  0000               	nop
  1169  0E17                     l2772:
  1170                           
  1171                           ;Master_I2C.c: 114:         I2C_Master_Start();
  1172  0E17  160A  118A  2494  120A  158A  	fcall	_I2C_Master_Start
  1173  0E1C                     l2774:
  1174                           
  1175                           ;Master_I2C.c: 115:         I2C_Master_Write(0x61);
  1176  0E1C  3061               	movlw	97
  1177  0E1D  00F0               	movwf	I2C_Master_Write@d
  1178  0E1E  3000               	movlw	0
  1179  0E1F  00F1               	movwf	I2C_Master_Write@d+1
  1180  0E20  160A  118A  24A6  120A  158A  	fcall	_I2C_Master_Write
  1181  0E25                     l2776:
  1182                           
  1183                           ;Master_I2C.c: 116:         contador = I2C_Master_Read(0);
  1184  0E25  3000               	movlw	0
  1185  0E26  00F0               	movwf	I2C_Master_Read@a
  1186  0E27  00F1               	movwf	I2C_Master_Read@a+1
  1187  0E28  160A  118A  258A  120A  158A  	fcall	_I2C_Master_Read
  1188  0E2D  0870               	movf	?_I2C_Master_Read,w
  1189  0E2E  1683               	bsf	3,5	;RP0=1, select bank1
  1190  0E2F  1303               	bcf	3,6	;RP1=0, select bank1
  1191  0E30  00DF               	movwf	??_main^(0+128)
  1192  0E31  085F               	movf	??_main^(0+128),w
  1193  0E32  00AF               	movwf	_contador^(0+128)	;volatile
  1194  0E33                     l2778:
  1195                           
  1196                           ;Master_I2C.c: 117:         I2C_Master_Stop();
  1197  0E33  160A  118A  249D  120A  158A  	fcall	_I2C_Master_Stop
  1198  0E38                     l2780:
  1199                           
  1200                           ;Master_I2C.c: 118:         _delay((unsigned long)((200)*(8000000/4000.0)));
  1201  0E38  3003               	movlw	3
  1202  0E39  1683               	bsf	3,5	;RP0=1, select bank1
  1203  0E3A  1303               	bcf	3,6	;RP1=0, select bank1
  1204  0E3B  00E1               	movwf	(??_main^(0+128)+2)
  1205  0E3C  3008               	movlw	8
  1206  0E3D  00E0               	movwf	(??_main^(0+128)+1)
  1207  0E3E  3076               	movlw	118
  1208  0E3F  00DF               	movwf	??_main^(0+128)
  1209  0E40                     u3777:
  1210  0E40  0BDF               	decfsz	??_main^(0+128),f
  1211  0E41  2E40               	goto	u3777
  1212  0E42  0BE0               	decfsz	(??_main^(0+128)+1),f
  1213  0E43  2E40               	goto	u3777
  1214  0E44  0BE1               	decfsz	(??_main^(0+128)+2),f
  1215  0E45  2E40               	goto	u3777
  1216  0E46  0000               	nop
  1217                           
  1218                           ;Master_I2C.c: 121:         Lcd_Set_Cursor(2, 1);
  1219  0E47  01F4               	clrf	Lcd_Set_Cursor@b
  1220  0E48  0AF4               	incf	Lcd_Set_Cursor@b,f
  1221  0E49  3002               	movlw	2
  1222  0E4A  160A  118A  24F4  120A  158A  	fcall	_Lcd_Set_Cursor
  1223  0E4F                     l2782:
  1224                           
  1225                           ;Master_I2C.c: 122:         Lcd_Write_String(lcd1);
  1226  0E4F  30C6               	movlw	(low (_lcd1| 0))& (0+255)
  1227  0E50  00F3               	movwf	Lcd_Write_String@a
  1228  0E51  3000               	movlw	0
  1229  0E52  00F4               	movwf	Lcd_Write_String@a+1
  1230  0E53  160A  118A  25F0  120A  158A  	fcall	_Lcd_Write_String
  1231  0E58                     l2784:
  1232                           
  1233                           ;Master_I2C.c: 123:         Lcd_Set_Cursor(2, 5);
  1234  0E58  3005               	movlw	5
  1235  0E59  1683               	bsf	3,5	;RP0=1, select bank1
  1236  0E5A  1303               	bcf	3,6	;RP1=0, select bank1
  1237  0E5B  00DF               	movwf	??_main^(0+128)
  1238  0E5C  085F               	movf	??_main^(0+128),w
  1239  0E5D  00F4               	movwf	Lcd_Set_Cursor@b
  1240  0E5E  3002               	movlw	2
  1241  0E5F  160A  118A  24F4  120A  158A  	fcall	_Lcd_Set_Cursor
  1242                           
  1243                           ;Master_I2C.c: 124:         Lcd_Write_String("V");
  1244  0E64  3010               	movlw	(low ((STR_4-__stringbase)| (0+32768)))& (0+255)
  1245  0E65  00F3               	movwf	Lcd_Write_String@a
  1246  0E66  3080               	movlw	128
  1247  0E67  00F4               	movwf	Lcd_Write_String@a+1
  1248  0E68  160A  118A  25F0  120A  158A  	fcall	_Lcd_Write_String
  1249  0E6D                     l2786:
  1250                           
  1251                           ;Master_I2C.c: 126:         Lcd_Set_Cursor(2, 7);
  1252  0E6D  3007               	movlw	7
  1253  0E6E  1683               	bsf	3,5	;RP0=1, select bank1
  1254  0E6F  1303               	bcf	3,6	;RP1=0, select bank1
  1255  0E70  00DF               	movwf	??_main^(0+128)
  1256  0E71  085F               	movf	??_main^(0+128),w
  1257  0E72  00F4               	movwf	Lcd_Set_Cursor@b
  1258  0E73  3002               	movlw	2
  1259  0E74  160A  118A  24F4  120A  158A  	fcall	_Lcd_Set_Cursor
  1260  0E79                     l2788:
  1261                           
  1262                           ;Master_I2C.c: 127:         Lcd_Write_String(lcd2);
  1263  0E79  30BC               	movlw	(low (_lcd2| 0))& (0+255)
  1264  0E7A  00F3               	movwf	Lcd_Write_String@a
  1265  0E7B  3000               	movlw	0
  1266  0E7C  00F4               	movwf	Lcd_Write_String@a+1
  1267  0E7D  160A  118A  25F0  120A  158A  	fcall	_Lcd_Write_String
  1268                           
  1269                           ;Master_I2C.c: 128:         Lcd_Set_Cursor(2, 11);
  1270  0E82  300B               	movlw	11
  1271  0E83  1683               	bsf	3,5	;RP0=1, select bank1
  1272  0E84  1303               	bcf	3,6	;RP1=0, select bank1
  1273  0E85  00DF               	movwf	??_main^(0+128)
  1274  0E86  085F               	movf	??_main^(0+128),w
  1275  0E87  00F4               	movwf	Lcd_Set_Cursor@b
  1276  0E88  3002               	movlw	2
  1277  0E89  160A  118A  24F4  120A  158A  	fcall	_Lcd_Set_Cursor
  1278  0E8E                     l2790:
  1279                           
  1280                           ;Master_I2C.c: 129:         Lcd_Write_String("C");
  1281  0E8E  3003               	movlw	(low (((STR_1+2)-__stringbase)| (0+32768)))& (0+255)
  1282  0E8F  00F3               	movwf	Lcd_Write_String@a
  1283  0E90  3080               	movlw	128
  1284  0E91  00F4               	movwf	Lcd_Write_String@a+1
  1285  0E92  160A  118A  25F0  120A  158A  	fcall	_Lcd_Write_String
  1286  0E97                     l2792:
  1287                           
  1288                           ;Master_I2C.c: 131:         Lcd_Set_Cursor(2, 14);
  1289  0E97  300E               	movlw	14
  1290  0E98  1683               	bsf	3,5	;RP0=1, select bank1
  1291  0E99  1303               	bcf	3,6	;RP1=0, select bank1
  1292  0E9A  00DF               	movwf	??_main^(0+128)
  1293  0E9B  085F               	movf	??_main^(0+128),w
  1294  0E9C  00F4               	movwf	Lcd_Set_Cursor@b
  1295  0E9D  3002               	movlw	2
  1296  0E9E  160A  118A  24F4  120A  158A  	fcall	_Lcd_Set_Cursor
  1297                           
  1298                           ;Master_I2C.c: 132:         Lcd_Write_String(lcd3);
  1299  0EA3  30B2               	movlw	(low (_lcd3| 0))& (0+255)
  1300  0EA4  00F3               	movwf	Lcd_Write_String@a
  1301  0EA5  3000               	movlw	0
  1302  0EA6  00F4               	movwf	Lcd_Write_String@a+1
  1303  0EA7  160A  118A  25F0  120A  158A  	fcall	_Lcd_Write_String
  1304  0EAC                     l2794:
  1305                           
  1306                           ;Master_I2C.c: 135:         conv1 = 0;
  1307  0EAC  3000               	movlw	0
  1308  0EAD  1683               	bsf	3,5	;RP0=1, select bank1
  1309  0EAE  1303               	bcf	3,6	;RP1=0, select bank1
  1310  0EAF  00AB               	movwf	(_conv1+3)^(0+128)
  1311  0EB0  3000               	movlw	0
  1312  0EB1  00AA               	movwf	(_conv1+2)^(0+128)
  1313  0EB2  3000               	movlw	0
  1314  0EB3  00A9               	movwf	(_conv1+1)^(0+128)
  1315  0EB4  3000               	movlw	0
  1316  0EB5  00A8               	movwf	_conv1^(0+128)
  1317  0EB6                     l2796:
  1318                           
  1319                           ;Master_I2C.c: 136:         conv2 = 0;
  1320  0EB6  3000               	movlw	0
  1321  0EB7  00A7               	movwf	(_conv2+3)^(0+128)
  1322  0EB8  3000               	movlw	0
  1323  0EB9  00A6               	movwf	(_conv2+2)^(0+128)
  1324  0EBA  3000               	movlw	0
  1325  0EBB  00A5               	movwf	(_conv2+1)^(0+128)
  1326  0EBC  3000               	movlw	0
  1327  0EBD  00A4               	movwf	_conv2^(0+128)
  1328  0EBE                     l2798:
  1329                           
  1330                           ;Master_I2C.c: 138:         conv1 = (adc / (float) 255)*5;
  1331  0EBE  3040               	movlw	64
  1332  0EBF  1283               	bcf	3,5	;RP0=0, select bank0
  1333  0EC0  1303               	bcf	3,6	;RP1=0, select bank0
  1334  0EC1  00CF               	movwf	___flmul@b+3
  1335  0EC2  30A0               	movlw	160
  1336  0EC3  00CE               	movwf	___flmul@b+2
  1337  0EC4  3000               	movlw	0
  1338  0EC5  00CD               	movwf	___flmul@b+1
  1339  0EC6  3000               	movlw	0
  1340  0EC7  00CC               	movwf	___flmul@b
  1341  0EC8  3043               	movlw	67
  1342  0EC9  00B5               	movwf	___fldiv@a+3
  1343  0ECA  307F               	movlw	127
  1344  0ECB  00B4               	movwf	___fldiv@a+2
  1345  0ECC  3000               	movlw	0
  1346  0ECD  00B3               	movwf	___fldiv@a+1
  1347  0ECE  3000               	movlw	0
  1348  0ECF  00B2               	movwf	___fldiv@a
  1349  0ED0  1683               	bsf	3,5	;RP0=1, select bank1
  1350  0ED1  1303               	bcf	3,6	;RP1=0, select bank1
  1351  0ED2  0831               	movf	_adc^(0+128),w	;volatile
  1352  0ED3  00DF               	movwf	??_main^(0+128)
  1353  0ED4  01E0               	clrf	(??_main^(0+128)+1)
  1354  0ED5  01E1               	clrf	(??_main^(0+128)+2)
  1355  0ED6  01E2               	clrf	(??_main^(0+128)+3)
  1356  0ED7  0862               	movf	(??_main+3)^(0+128),w
  1357  0ED8  1283               	bcf	3,5	;RP0=0, select bank0
  1358  0ED9  1303               	bcf	3,6	;RP1=0, select bank0
  1359  0EDA  00A7               	movwf	___xxtofl@val+3
  1360  0EDB  1683               	bsf	3,5	;RP0=1, select bank1
  1361  0EDC  1303               	bcf	3,6	;RP1=0, select bank1
  1362  0EDD  0861               	movf	(??_main+2)^(0+128),w
  1363  0EDE  1283               	bcf	3,5	;RP0=0, select bank0
  1364  0EDF  1303               	bcf	3,6	;RP1=0, select bank0
  1365  0EE0  00A6               	movwf	___xxtofl@val+2
  1366  0EE1  1683               	bsf	3,5	;RP0=1, select bank1
  1367  0EE2  1303               	bcf	3,6	;RP1=0, select bank1
  1368  0EE3  0860               	movf	(??_main+1)^(0+128),w
  1369  0EE4  1283               	bcf	3,5	;RP0=0, select bank0
  1370  0EE5  1303               	bcf	3,6	;RP1=0, select bank0
  1371  0EE6  00A5               	movwf	___xxtofl@val+1
  1372  0EE7  1683               	bsf	3,5	;RP0=1, select bank1
  1373  0EE8  1303               	bcf	3,6	;RP1=0, select bank1
  1374  0EE9  085F               	movf	??_main^(0+128),w
  1375  0EEA  1283               	bcf	3,5	;RP0=0, select bank0
  1376  0EEB  1303               	bcf	3,6	;RP1=0, select bank0
  1377  0EEC  00A4               	movwf	___xxtofl@val
  1378  0EED  3001               	movlw	1
  1379  0EEE  160A  118A  2744  120A  158A  	fcall	___xxtofl
  1380  0EF3  1283               	bcf	3,5	;RP0=0, select bank0
  1381  0EF4  1303               	bcf	3,6	;RP1=0, select bank0
  1382  0EF5  0827               	movf	?___xxtofl+3,w
  1383  0EF6  00B9               	movwf	___fldiv@b+3
  1384  0EF7  0826               	movf	?___xxtofl+2,w
  1385  0EF8  00B8               	movwf	___fldiv@b+2
  1386  0EF9  0825               	movf	?___xxtofl+1,w
  1387  0EFA  00B7               	movwf	___fldiv@b+1
  1388  0EFB  0824               	movf	?___xxtofl,w
  1389  0EFC  00B6               	movwf	___fldiv@b
  1390  0EFD  120A  158A  20B0  120A  158A  	fcall	___fldiv
  1391  0F02  1283               	bcf	3,5	;RP0=0, select bank0
  1392  0F03  1303               	bcf	3,6	;RP1=0, select bank0
  1393  0F04  0835               	movf	?___fldiv+3,w
  1394  0F05  00D3               	movwf	___flmul@a+3
  1395  0F06  0834               	movf	?___fldiv+2,w
  1396  0F07  00D2               	movwf	___flmul@a+2
  1397  0F08  0833               	movf	?___fldiv+1,w
  1398  0F09  00D1               	movwf	___flmul@a+1
  1399  0F0A  0832               	movf	?___fldiv,w
  1400  0F0B  00D0               	movwf	___flmul@a
  1401  0F0C  120A  118A  209A  120A  158A  	fcall	___flmul
  1402  0F11  1283               	bcf	3,5	;RP0=0, select bank0
  1403  0F12  1303               	bcf	3,6	;RP1=0, select bank0
  1404  0F13  084F               	movf	?___flmul+3,w
  1405  0F14  1683               	bsf	3,5	;RP0=1, select bank1
  1406  0F15  1303               	bcf	3,6	;RP1=0, select bank1
  1407  0F16  00AB               	movwf	(_conv1+3)^(0+128)
  1408  0F17  1283               	bcf	3,5	;RP0=0, select bank0
  1409  0F18  1303               	bcf	3,6	;RP1=0, select bank0
  1410  0F19  084E               	movf	?___flmul+2,w
  1411  0F1A  1683               	bsf	3,5	;RP0=1, select bank1
  1412  0F1B  1303               	bcf	3,6	;RP1=0, select bank1
  1413  0F1C  00AA               	movwf	(_conv1+2)^(0+128)
  1414  0F1D  1283               	bcf	3,5	;RP0=0, select bank0
  1415  0F1E  1303               	bcf	3,6	;RP1=0, select bank0
  1416  0F1F  084D               	movf	?___flmul+1,w
  1417  0F20  1683               	bsf	3,5	;RP0=1, select bank1
  1418  0F21  1303               	bcf	3,6	;RP1=0, select bank1
  1419  0F22  00A9               	movwf	(_conv1+1)^(0+128)
  1420  0F23  1283               	bcf	3,5	;RP0=0, select bank0
  1421  0F24  1303               	bcf	3,6	;RP1=0, select bank0
  1422  0F25  084C               	movf	?___flmul,w
  1423  0F26  1683               	bsf	3,5	;RP0=1, select bank1
  1424  0F27  1303               	bcf	3,6	;RP1=0, select bank1
  1425  0F28  00A8               	movwf	_conv1^(0+128)
  1426  0F29                     l2800:
  1427                           
  1428                           ;Master_I2C.c: 140:         convert(lcd1, conv1, 2);
  1429  0F29  082B               	movf	(_conv1+3)^(0+128),w
  1430  0F2A  1283               	bcf	3,5	;RP0=0, select bank0
  1431  0F2B  1303               	bcf	3,6	;RP1=0, select bank0
  1432  0F2C  00E9               	movwf	convert@a+3
  1433  0F2D  1683               	bsf	3,5	;RP0=1, select bank1
  1434  0F2E  1303               	bcf	3,6	;RP1=0, select bank1
  1435  0F2F  082A               	movf	(_conv1+2)^(0+128),w
  1436  0F30  1283               	bcf	3,5	;RP0=0, select bank0
  1437  0F31  1303               	bcf	3,6	;RP1=0, select bank0
  1438  0F32  00E8               	movwf	convert@a+2
  1439  0F33  1683               	bsf	3,5	;RP0=1, select bank1
  1440  0F34  1303               	bcf	3,6	;RP1=0, select bank1
  1441  0F35  0829               	movf	(_conv1+1)^(0+128),w
  1442  0F36  1283               	bcf	3,5	;RP0=0, select bank0
  1443  0F37  1303               	bcf	3,6	;RP1=0, select bank0
  1444  0F38  00E7               	movwf	convert@a+1
  1445  0F39  1683               	bsf	3,5	;RP0=1, select bank1
  1446  0F3A  1303               	bcf	3,6	;RP1=0, select bank1
  1447  0F3B  0828               	movf	_conv1^(0+128),w
  1448  0F3C  1283               	bcf	3,5	;RP0=0, select bank0
  1449  0F3D  1303               	bcf	3,6	;RP1=0, select bank0
  1450  0F3E  00E6               	movwf	convert@a
  1451  0F3F  3002               	movlw	2
  1452  0F40  00EA               	movwf	convert@place
  1453  0F41  3000               	movlw	0
  1454  0F42  00EB               	movwf	convert@place+1
  1455  0F43  30C6               	movlw	(low (_lcd1| 0))& (0+255)
  1456  0F44  120A  118A  23FB  120A  158A  	fcall	_convert
  1457  0F49                     l2802:
  1458                           
  1459                           ;Master_I2C.c: 142:         conv2 = sensor;
  1460  0F49  1683               	bsf	3,5	;RP0=1, select bank1
  1461  0F4A  1303               	bcf	3,6	;RP1=0, select bank1
  1462  0F4B  0830               	movf	_sensor^(0+128),w	;volatile
  1463  0F4C  1283               	bcf	3,5	;RP0=0, select bank0
  1464  0F4D  1303               	bcf	3,6	;RP1=0, select bank0
  1465  0F4E  00A4               	movwf	___xxtofl@val
  1466  0F4F  3980               	andlw	128
  1467  0F50  1D03               	skipz
  1468  0F51  30FF               	movlw	255
  1469  0F52  00A5               	movwf	___xxtofl@val+1
  1470  0F53  00A6               	movwf	___xxtofl@val+2
  1471  0F54  00A7               	movwf	___xxtofl@val+3
  1472  0F55  3001               	movlw	1
  1473  0F56  160A  118A  2744  120A  158A  	fcall	___xxtofl
  1474  0F5B  1283               	bcf	3,5	;RP0=0, select bank0
  1475  0F5C  1303               	bcf	3,6	;RP1=0, select bank0
  1476  0F5D  0827               	movf	?___xxtofl+3,w
  1477  0F5E  1683               	bsf	3,5	;RP0=1, select bank1
  1478  0F5F  1303               	bcf	3,6	;RP1=0, select bank1
  1479  0F60  00A7               	movwf	(_conv2+3)^(0+128)
  1480  0F61  1283               	bcf	3,5	;RP0=0, select bank0
  1481  0F62  1303               	bcf	3,6	;RP1=0, select bank0
  1482  0F63  0826               	movf	?___xxtofl+2,w
  1483  0F64  1683               	bsf	3,5	;RP0=1, select bank1
  1484  0F65  1303               	bcf	3,6	;RP1=0, select bank1
  1485  0F66  00A6               	movwf	(_conv2+2)^(0+128)
  1486  0F67  1283               	bcf	3,5	;RP0=0, select bank0
  1487  0F68  1303               	bcf	3,6	;RP1=0, select bank0
  1488  0F69  0825               	movf	?___xxtofl+1,w
  1489  0F6A  1683               	bsf	3,5	;RP0=1, select bank1
  1490  0F6B  1303               	bcf	3,6	;RP1=0, select bank1
  1491  0F6C  00A5               	movwf	(_conv2+1)^(0+128)
  1492  0F6D  1283               	bcf	3,5	;RP0=0, select bank0
  1493  0F6E  1303               	bcf	3,6	;RP1=0, select bank0
  1494  0F6F  0824               	movf	?___xxtofl,w
  1495  0F70  1683               	bsf	3,5	;RP0=1, select bank1
  1496  0F71  1303               	bcf	3,6	;RP1=0, select bank1
  1497  0F72  00A4               	movwf	_conv2^(0+128)
  1498  0F73                     l2804:
  1499                           
  1500                           ;Master_I2C.c: 143:         convert(lcd2, conv2, 2);
  1501  0F73  0827               	movf	(_conv2+3)^(0+128),w
  1502  0F74  1283               	bcf	3,5	;RP0=0, select bank0
  1503  0F75  1303               	bcf	3,6	;RP1=0, select bank0
  1504  0F76  00E9               	movwf	convert@a+3
  1505  0F77  1683               	bsf	3,5	;RP0=1, select bank1
  1506  0F78  1303               	bcf	3,6	;RP1=0, select bank1
  1507  0F79  0826               	movf	(_conv2+2)^(0+128),w
  1508  0F7A  1283               	bcf	3,5	;RP0=0, select bank0
  1509  0F7B  1303               	bcf	3,6	;RP1=0, select bank0
  1510  0F7C  00E8               	movwf	convert@a+2
  1511  0F7D  1683               	bsf	3,5	;RP0=1, select bank1
  1512  0F7E  1303               	bcf	3,6	;RP1=0, select bank1
  1513  0F7F  0825               	movf	(_conv2+1)^(0+128),w
  1514  0F80  1283               	bcf	3,5	;RP0=0, select bank0
  1515  0F81  1303               	bcf	3,6	;RP1=0, select bank0
  1516  0F82  00E7               	movwf	convert@a+1
  1517  0F83  1683               	bsf	3,5	;RP0=1, select bank1
  1518  0F84  1303               	bcf	3,6	;RP1=0, select bank1
  1519  0F85  0824               	movf	_conv2^(0+128),w
  1520  0F86  1283               	bcf	3,5	;RP0=0, select bank0
  1521  0F87  1303               	bcf	3,6	;RP1=0, select bank0
  1522  0F88  00E6               	movwf	convert@a
  1523  0F89  3002               	movlw	2
  1524  0F8A  00EA               	movwf	convert@place
  1525  0F8B  3000               	movlw	0
  1526  0F8C  00EB               	movwf	convert@place+1
  1527  0F8D  30BC               	movlw	(low (_lcd2| 0))& (0+255)
  1528  0F8E  120A  118A  23FB  120A  158A  	fcall	_convert
  1529  0F93                     l2806:
  1530                           
  1531                           ;Master_I2C.c: 145:         convert(lcd3, contador, 2);
  1532  0F93  1683               	bsf	3,5	;RP0=1, select bank1
  1533  0F94  1303               	bcf	3,6	;RP1=0, select bank1
  1534  0F95  082F               	movf	_contador^(0+128),w	;volatile
  1535  0F96  00DF               	movwf	??_main^(0+128)
  1536  0F97  01E0               	clrf	(??_main^(0+128)+1)
  1537  0F98  01E1               	clrf	(??_main^(0+128)+2)
  1538  0F99  01E2               	clrf	(??_main^(0+128)+3)
  1539  0F9A  0862               	movf	(??_main+3)^(0+128),w
  1540  0F9B  1283               	bcf	3,5	;RP0=0, select bank0
  1541  0F9C  1303               	bcf	3,6	;RP1=0, select bank0
  1542  0F9D  00A7               	movwf	___xxtofl@val+3
  1543  0F9E  1683               	bsf	3,5	;RP0=1, select bank1
  1544  0F9F  1303               	bcf	3,6	;RP1=0, select bank1
  1545  0FA0  0861               	movf	(??_main+2)^(0+128),w
  1546  0FA1  1283               	bcf	3,5	;RP0=0, select bank0
  1547  0FA2  1303               	bcf	3,6	;RP1=0, select bank0
  1548  0FA3  00A6               	movwf	___xxtofl@val+2
  1549  0FA4  1683               	bsf	3,5	;RP0=1, select bank1
  1550  0FA5  1303               	bcf	3,6	;RP1=0, select bank1
  1551  0FA6  0860               	movf	(??_main+1)^(0+128),w
  1552  0FA7  1283               	bcf	3,5	;RP0=0, select bank0
  1553  0FA8  1303               	bcf	3,6	;RP1=0, select bank0
  1554  0FA9  00A5               	movwf	___xxtofl@val+1
  1555  0FAA  1683               	bsf	3,5	;RP0=1, select bank1
  1556  0FAB  1303               	bcf	3,6	;RP1=0, select bank1
  1557  0FAC  085F               	movf	??_main^(0+128),w
  1558  0FAD  1283               	bcf	3,5	;RP0=0, select bank0
  1559  0FAE  1303               	bcf	3,6	;RP1=0, select bank0
  1560  0FAF  00A4               	movwf	___xxtofl@val
  1561  0FB0  3000               	movlw	0
  1562  0FB1  160A  118A  2744  120A  158A  	fcall	___xxtofl
  1563  0FB6  1283               	bcf	3,5	;RP0=0, select bank0
  1564  0FB7  1303               	bcf	3,6	;RP1=0, select bank0
  1565  0FB8  0827               	movf	?___xxtofl+3,w
  1566  0FB9  1683               	bsf	3,5	;RP0=1, select bank1
  1567  0FBA  1303               	bcf	3,6	;RP1=0, select bank1
  1568  0FBB  00E6               	movwf	(_main$1004+3)^(0+128)
  1569  0FBC  1283               	bcf	3,5	;RP0=0, select bank0
  1570  0FBD  1303               	bcf	3,6	;RP1=0, select bank0
  1571  0FBE  0826               	movf	?___xxtofl+2,w
  1572  0FBF  1683               	bsf	3,5	;RP0=1, select bank1
  1573  0FC0  1303               	bcf	3,6	;RP1=0, select bank1
  1574  0FC1  00E5               	movwf	(_main$1004+2)^(0+128)
  1575  0FC2  1283               	bcf	3,5	;RP0=0, select bank0
  1576  0FC3  1303               	bcf	3,6	;RP1=0, select bank0
  1577  0FC4  0825               	movf	?___xxtofl+1,w
  1578  0FC5  1683               	bsf	3,5	;RP0=1, select bank1
  1579  0FC6  1303               	bcf	3,6	;RP1=0, select bank1
  1580  0FC7  00E4               	movwf	(_main$1004+1)^(0+128)
  1581  0FC8  1283               	bcf	3,5	;RP0=0, select bank0
  1582  0FC9  1303               	bcf	3,6	;RP1=0, select bank0
  1583  0FCA  0824               	movf	?___xxtofl,w
  1584  0FCB  1683               	bsf	3,5	;RP0=1, select bank1
  1585  0FCC  1303               	bcf	3,6	;RP1=0, select bank1
  1586  0FCD  00E3               	movwf	_main$1004^(0+128)
  1587  0FCE                     l2808:
  1588                           
  1589                           ;Master_I2C.c: 145:         convert(lcd3, contador, 2);
  1590  0FCE  0866               	movf	(_main$1004+3)^(0+128),w
  1591  0FCF  1283               	bcf	3,5	;RP0=0, select bank0
  1592  0FD0  1303               	bcf	3,6	;RP1=0, select bank0
  1593  0FD1  00E9               	movwf	convert@a+3
  1594  0FD2  1683               	bsf	3,5	;RP0=1, select bank1
  1595  0FD3  1303               	bcf	3,6	;RP1=0, select bank1
  1596  0FD4  0865               	movf	(_main$1004+2)^(0+128),w
  1597  0FD5  1283               	bcf	3,5	;RP0=0, select bank0
  1598  0FD6  1303               	bcf	3,6	;RP1=0, select bank0
  1599  0FD7  00E8               	movwf	convert@a+2
  1600  0FD8  1683               	bsf	3,5	;RP0=1, select bank1
  1601  0FD9  1303               	bcf	3,6	;RP1=0, select bank1
  1602  0FDA  0864               	movf	(_main$1004+1)^(0+128),w
  1603  0FDB  1283               	bcf	3,5	;RP0=0, select bank0
  1604  0FDC  1303               	bcf	3,6	;RP1=0, select bank0
  1605  0FDD  00E7               	movwf	convert@a+1
  1606  0FDE  1683               	bsf	3,5	;RP0=1, select bank1
  1607  0FDF  1303               	bcf	3,6	;RP1=0, select bank1
  1608  0FE0  0863               	movf	_main$1004^(0+128),w
  1609  0FE1  1283               	bcf	3,5	;RP0=0, select bank0
  1610  0FE2  1303               	bcf	3,6	;RP1=0, select bank0
  1611  0FE3  00E6               	movwf	convert@a
  1612  0FE4  3002               	movlw	2
  1613  0FE5  00EA               	movwf	convert@place
  1614  0FE6  3000               	movlw	0
  1615  0FE7  00EB               	movwf	convert@place+1
  1616  0FE8  30B2               	movlw	(low (_lcd3| 0))& (0+255)
  1617  0FE9  120A  118A  23FB  120A  158A  	fcall	_convert
  1618  0FEE                     l2810:
  1619                           
  1620                           ;Master_I2C.c: 147:         _delay((unsigned long)((500)*(8000000/4000.0)));
  1621  0FEE  3006               	movlw	6
  1622  0FEF  1683               	bsf	3,5	;RP0=1, select bank1
  1623  0FF0  1303               	bcf	3,6	;RP1=0, select bank1
  1624  0FF1  00E1               	movwf	(??_main^(0+128)+2)
  1625  0FF2  3013               	movlw	19
  1626  0FF3  00E0               	movwf	(??_main^(0+128)+1)
  1627  0FF4  30AD               	movlw	173
  1628  0FF5  00DF               	movwf	??_main^(0+128)
  1629  0FF6                     u3787:
  1630  0FF6  0BDF               	decfsz	??_main^(0+128),f
  1631  0FF7  2FF6               	goto	u3787
  1632  0FF8  0BE0               	decfsz	(??_main^(0+128)+1),f
  1633  0FF9  2FF6               	goto	u3787
  1634  0FFA  0BE1               	decfsz	(??_main^(0+128)+2),f
  1635  0FFB  2FF6               	goto	u3787
  1636  0FFC  2D34               	goto	l77
  1637  0FFD  120A  118A  2800   	ljmp	start
  1638  1000                     __end_of_main:
  1639                           
  1640                           	psect	text1
  1641  14D2                     __ptext1:	
  1642 ;; *************** function _setup *****************
  1643 ;; Defined at:
  1644 ;;		line 155 in file "Master_I2C.c"
  1645 ;; Parameters:    Size  Location     Type
  1646 ;;		None
  1647 ;; Auto vars:     Size  Location     Type
  1648 ;;		None
  1649 ;; Return value:  Size  Location     Type
  1650 ;;                  1    wreg      void 
  1651 ;; Registers used:
  1652 ;;		wreg, status,2, status,0, pclath, cstack
  1653 ;; Tracked objects:
  1654 ;;		On entry : 0/0
  1655 ;;		On exit  : 0/0
  1656 ;;		Unchanged: 0/0
  1657 ;; Data sizes:     COMMON   BANK0   BANK1   BANK3   BANK2
  1658 ;;      Params:         0       0       0       0       0
  1659 ;;      Locals:         0       0       0       0       0
  1660 ;;      Temps:          0       0       0       0       0
  1661 ;;      Totals:         0       0       0       0       0
  1662 ;;Total ram usage:        0 bytes
  1663 ;; Hardware stack levels used:    1
  1664 ;; Hardware stack levels required when called:    2
  1665 ;; This function calls:
  1666 ;;		_I2C_Master_Init
  1667 ;; This function is called by:
  1668 ;;		_main
  1669 ;; This function uses a non-reentrant model
  1670 ;;
  1671                           
  1672                           
  1673                           ;psect for function _setup
  1674  14D2                     _setup:
  1675  14D2                     l2566:	
  1676                           ;incstack = 0
  1677                           ; Regs used in _setup: [wreg+status,2+status,0+pclath+cstack]
  1678                           
  1679                           
  1680                           ;Master_I2C.c: 156:     ANSEL = 0x00;
  1681  14D2  1683               	bsf	3,5	;RP0=1, select bank3
  1682  14D3  1703               	bsf	3,6	;RP1=1, select bank3
  1683  14D4  0188               	clrf	8	;volatile
  1684                           
  1685                           ;Master_I2C.c: 157:     ANSELH = 0x00;
  1686  14D5  0189               	clrf	9	;volatile
  1687  14D6                     l2568:
  1688                           
  1689                           ;Master_I2C.c: 159:     TRISCbits.TRISC0 = 0;
  1690  14D6  1683               	bsf	3,5	;RP0=1, select bank1
  1691  14D7  1303               	bcf	3,6	;RP1=0, select bank1
  1692  14D8  1007               	bcf	7,0	;volatile
  1693  14D9                     l2570:
  1694                           
  1695                           ;Master_I2C.c: 160:     TRISCbits.TRISC1 = 0;
  1696  14D9  1087               	bcf	7,1	;volatile
  1697                           
  1698                           ;Master_I2C.c: 161:     TRISB = 0x00;
  1699  14DA  0186               	clrf	6	;volatile
  1700                           
  1701                           ;Master_I2C.c: 162:     TRISD = 0x00;
  1702  14DB  0188               	clrf	8	;volatile
  1703                           
  1704                           ;Master_I2C.c: 164:     PORTB = 0x00;
  1705  14DC  1283               	bcf	3,5	;RP0=0, select bank0
  1706  14DD  1303               	bcf	3,6	;RP1=0, select bank0
  1707  14DE  0186               	clrf	6	;volatile
  1708                           
  1709                           ;Master_I2C.c: 165:     PORTD = 0x00;
  1710  14DF  0188               	clrf	8	;volatile
  1711  14E0                     l2572:
  1712                           
  1713                           ;Master_I2C.c: 166:     I2C_Master_Init(100000);
  1714  14E0  3000               	movlw	0
  1715  14E1  00A3               	movwf	I2C_Master_Init@c+3
  1716  14E2  3001               	movlw	1
  1717  14E3  00A2               	movwf	I2C_Master_Init@c+2
  1718  14E4  3086               	movlw	134
  1719  14E5  00A1               	movwf	I2C_Master_Init@c+1
  1720  14E6  30A0               	movlw	160
  1721  14E7  00A0               	movwf	I2C_Master_Init@c
  1722  14E8  160A  118A  25B8  160A  118A  	fcall	_I2C_Master_Init
  1723  14ED                     l2574:
  1724                           
  1725                           ;Master_I2C.c: 169:     OSCCONbits.IRCF2 = 1;
  1726  14ED  1683               	bsf	3,5	;RP0=1, select bank1
  1727  14EE  1303               	bcf	3,6	;RP1=0, select bank1
  1728  14EF  170F               	bsf	15,6	;volatile
  1729  14F0                     l2576:
  1730                           
  1731                           ;Master_I2C.c: 170:     OSCCONbits.IRCF1 = 1;
  1732  14F0  168F               	bsf	15,5	;volatile
  1733  14F1                     l2578:
  1734                           
  1735                           ;Master_I2C.c: 171:     OSCCONbits.IRCF0 = 1;
  1736  14F1  160F               	bsf	15,4	;volatile
  1737  14F2                     l2580:
  1738                           
  1739                           ;Master_I2C.c: 172:     OSCCONbits.SCS = 1;
  1740  14F2  140F               	bsf	15,0	;volatile
  1741  14F3                     l83:
  1742  14F3  0008               	return
  1743  14F4                     __end_of_setup:
  1744                           
  1745                           	psect	text2
  1746  15B8                     __ptext2:	
  1747 ;; *************** function _I2C_Master_Init *****************
  1748 ;; Defined at:
  1749 ;;		line 27 in file "Librerias.c"
  1750 ;; Parameters:    Size  Location     Type
  1751 ;;  c               4    0[BANK0 ] const unsigned long 
  1752 ;; Auto vars:     Size  Location     Type
  1753 ;;		None
  1754 ;; Return value:  Size  Location     Type
  1755 ;;                  1    wreg      void 
  1756 ;; Registers used:
  1757 ;;		wreg, status,2, status,0, pclath, cstack
  1758 ;; Tracked objects:
  1759 ;;		On entry : 0/0
  1760 ;;		On exit  : 0/0
  1761 ;;		Unchanged: 0/0
  1762 ;; Data sizes:     COMMON   BANK0   BANK1   BANK3   BANK2
  1763 ;;      Params:         0       4       0       0       0
  1764 ;;      Locals:         0       0       0       0       0
  1765 ;;      Temps:          0       4       0       0       0
  1766 ;;      Totals:         0       8       0       0       0
  1767 ;;Total ram usage:        8 bytes
  1768 ;; Hardware stack levels used:    1
  1769 ;; Hardware stack levels required when called:    1
  1770 ;; This function calls:
  1771 ;;		___lldiv
  1772 ;; This function is called by:
  1773 ;;		_setup
  1774 ;; This function uses a non-reentrant model
  1775 ;;
  1776                           
  1777                           
  1778                           ;psect for function _I2C_Master_Init
  1779  15B8                     _I2C_Master_Init:
  1780  15B8                     l2084:	
  1781                           ;incstack = 0
  1782                           ; Regs used in _I2C_Master_Init: [wreg+status,2+status,0+pclath+cstack]
  1783                           
  1784                           
  1785                           ;Librerias.c: 27: void I2C_Master_Init(const unsigned long c);Librerias.c: 28: {;Libreri
      +                          as.c: 29:     SSPCON = 0b00101000;
  1786  15B8  3028               	movlw	40
  1787  15B9  1283               	bcf	3,5	;RP0=0, select bank0
  1788  15BA  1303               	bcf	3,6	;RP1=0, select bank0
  1789  15BB  0094               	movwf	20	;volatile
  1790  15BC                     l2086:
  1791                           
  1792                           ;Librerias.c: 30:     SSPCON2 = 0;
  1793  15BC  1683               	bsf	3,5	;RP0=1, select bank1
  1794  15BD  1303               	bcf	3,6	;RP1=0, select bank1
  1795  15BE  0191               	clrf	17	;volatile
  1796  15BF                     l2088:
  1797                           
  1798                           ;Librerias.c: 31:     SSPADD = (4000000/(4*c))-1;
  1799  15BF  1283               	bcf	3,5	;RP0=0, select bank0
  1800  15C0  1303               	bcf	3,6	;RP1=0, select bank0
  1801  15C1  0820               	movf	I2C_Master_Init@c,w
  1802  15C2  00A4               	movwf	??_I2C_Master_Init
  1803  15C3  0821               	movf	I2C_Master_Init@c+1,w
  1804  15C4  00A5               	movwf	??_I2C_Master_Init+1
  1805  15C5  0822               	movf	I2C_Master_Init@c+2,w
  1806  15C6  00A6               	movwf	??_I2C_Master_Init+2
  1807  15C7  0823               	movf	I2C_Master_Init@c+3,w
  1808  15C8  00A7               	movwf	??_I2C_Master_Init+3
  1809  15C9  3002               	movlw	2
  1810  15CA                     u2435:
  1811  15CA  1003               	clrc
  1812  15CB  0DA4               	rlf	??_I2C_Master_Init,f
  1813  15CC  0DA5               	rlf	??_I2C_Master_Init+1,f
  1814  15CD  0DA6               	rlf	??_I2C_Master_Init+2,f
  1815  15CE  0DA7               	rlf	??_I2C_Master_Init+3,f
  1816  15CF                     u2430:
  1817  15CF  3EFF               	addlw	-1
  1818  15D0  1D03               	skipz
  1819  15D1  2DCA               	goto	u2435
  1820  15D2  0827               	movf	??_I2C_Master_Init+3,w
  1821  15D3  00F3               	movwf	___lldiv@divisor+3
  1822  15D4  0826               	movf	??_I2C_Master_Init+2,w
  1823  15D5  00F2               	movwf	___lldiv@divisor+2
  1824  15D6  0825               	movf	??_I2C_Master_Init+1,w
  1825  15D7  00F1               	movwf	___lldiv@divisor+1
  1826  15D8  0824               	movf	??_I2C_Master_Init,w
  1827  15D9  00F0               	movwf	___lldiv@divisor
  1828  15DA  3000               	movlw	0
  1829  15DB  00F7               	movwf	___lldiv@dividend+3
  1830  15DC  303D               	movlw	61
  1831  15DD  00F6               	movwf	___lldiv@dividend+2
  1832  15DE  3009               	movlw	9
  1833  15DF  00F5               	movwf	___lldiv@dividend+1
  1834  15E0  3000               	movlw	0
  1835  15E1  00F4               	movwf	___lldiv@dividend
  1836  15E2  160A  118A  2677  160A  118A  	fcall	___lldiv
  1837  15E7  0870               	movf	?___lldiv,w
  1838  15E8  3EFF               	addlw	255
  1839  15E9  1683               	bsf	3,5	;RP0=1, select bank1
  1840  15EA  1303               	bcf	3,6	;RP1=0, select bank1
  1841  15EB  0093               	movwf	19	;volatile
  1842  15EC                     l2090:
  1843                           
  1844                           ;Librerias.c: 32:     SSPSTAT = 0;
  1845  15EC  0194               	clrf	20	;volatile
  1846  15ED                     l2092:
  1847                           
  1848                           ;Librerias.c: 33:     TRISCbits.TRISC3 = 1;
  1849  15ED  1587               	bsf	7,3	;volatile
  1850  15EE                     l2094:
  1851                           
  1852                           ;Librerias.c: 34:     TRISCbits.TRISC4 = 1;
  1853  15EE  1607               	bsf	7,4	;volatile
  1854  15EF                     l127:
  1855  15EF  0008               	return
  1856  15F0                     __end_of_I2C_Master_Init:
  1857                           
  1858                           	psect	text3
  1859  1677                     __ptext3:	
  1860 ;; *************** function ___lldiv *****************
  1861 ;; Defined at:
  1862 ;;		line 5 in file "C:\Program Files\Microchip\xc8\v2.31\pic\sources\c90\common\__lldiv.c"
  1863 ;; Parameters:    Size  Location     Type
  1864 ;;  divisor         4    0[COMMON] unsigned long 
  1865 ;;  dividend        4    4[COMMON] unsigned long 
  1866 ;; Auto vars:     Size  Location     Type
  1867 ;;  quotient        4    9[COMMON] unsigned long 
  1868 ;;  counter         1   13[COMMON] unsigned char 
  1869 ;; Return value:  Size  Location     Type
  1870 ;;                  4    0[COMMON] unsigned long 
  1871 ;; Registers used:
  1872 ;;		wreg, status,2, status,0
  1873 ;; Tracked objects:
  1874 ;;		On entry : 0/0
  1875 ;;		On exit  : 0/0
  1876 ;;		Unchanged: 0/0
  1877 ;; Data sizes:     COMMON   BANK0   BANK1   BANK3   BANK2
  1878 ;;      Params:         8       0       0       0       0
  1879 ;;      Locals:         5       0       0       0       0
  1880 ;;      Temps:          1       0       0       0       0
  1881 ;;      Totals:        14       0       0       0       0
  1882 ;;Total ram usage:       14 bytes
  1883 ;; Hardware stack levels used:    1
  1884 ;; This function calls:
  1885 ;;		Nothing
  1886 ;; This function is called by:
  1887 ;;		_I2C_Master_Init
  1888 ;; This function uses a non-reentrant model
  1889 ;;
  1890                           
  1891                           
  1892                           ;psect for function ___lldiv
  1893  1677                     ___lldiv:
  1894  1677                     l1852:	
  1895                           ;incstack = 0
  1896                           ; Regs used in ___lldiv: [wreg+status,2+status,0]
  1897                           
  1898  1677  3000               	movlw	0
  1899  1678  00FC               	movwf	___lldiv@quotient+3
  1900  1679  3000               	movlw	0
  1901  167A  00FB               	movwf	___lldiv@quotient+2
  1902  167B  3000               	movlw	0
  1903  167C  00FA               	movwf	___lldiv@quotient+1
  1904  167D  3000               	movlw	0
  1905  167E  00F9               	movwf	___lldiv@quotient
  1906  167F  0873               	movf	___lldiv@divisor+3,w
  1907  1680  0472               	iorwf	___lldiv@divisor+2,w
  1908  1681  0471               	iorwf	___lldiv@divisor+1,w
  1909  1682  0470               	iorwf	___lldiv@divisor,w
  1910  1683  1903               	skipnz
  1911  1684  2E86               	goto	u1871
  1912  1685  2E87               	goto	u1870
  1913  1686                     u1871:
  1914  1686  2ED4               	goto	l1872
  1915  1687                     u1870:
  1916  1687                     l1854:
  1917  1687  01FD               	clrf	___lldiv@counter
  1918  1688  0AFD               	incf	___lldiv@counter,f
  1919  1689  2E97               	goto	l1858
  1920  168A                     l1856:
  1921  168A  3001               	movlw	1
  1922  168B  00F8               	movwf	??___lldiv
  1923  168C                     u1885:
  1924  168C  1003               	clrc
  1925  168D  0DF0               	rlf	___lldiv@divisor,f
  1926  168E  0DF1               	rlf	___lldiv@divisor+1,f
  1927  168F  0DF2               	rlf	___lldiv@divisor+2,f
  1928  1690  0DF3               	rlf	___lldiv@divisor+3,f
  1929  1691  0BF8               	decfsz	??___lldiv,f
  1930  1692  2E8C               	goto	u1885
  1931  1693  3001               	movlw	1
  1932  1694  00F8               	movwf	??___lldiv
  1933  1695  0878               	movf	??___lldiv,w
  1934  1696  07FD               	addwf	___lldiv@counter,f
  1935  1697                     l1858:
  1936  1697  1FF3               	btfss	___lldiv@divisor+3,7
  1937  1698  2E9A               	goto	u1891
  1938  1699  2E9B               	goto	u1890
  1939  169A                     u1891:
  1940  169A  2E8A               	goto	l1856
  1941  169B                     u1890:
  1942  169B                     l1860:
  1943  169B  3001               	movlw	1
  1944  169C  00F8               	movwf	??___lldiv
  1945  169D                     u1905:
  1946  169D  1003               	clrc
  1947  169E  0DF9               	rlf	___lldiv@quotient,f
  1948  169F  0DFA               	rlf	___lldiv@quotient+1,f
  1949  16A0  0DFB               	rlf	___lldiv@quotient+2,f
  1950  16A1  0DFC               	rlf	___lldiv@quotient+3,f
  1951  16A2  0BF8               	decfsz	??___lldiv,f
  1952  16A3  2E9D               	goto	u1905
  1953  16A4                     l1862:
  1954  16A4  0873               	movf	___lldiv@divisor+3,w
  1955  16A5  0277               	subwf	___lldiv@dividend+3,w
  1956  16A6  1D03               	skipz
  1957  16A7  2EB2               	goto	u1915
  1958  16A8  0872               	movf	___lldiv@divisor+2,w
  1959  16A9  0276               	subwf	___lldiv@dividend+2,w
  1960  16AA  1D03               	skipz
  1961  16AB  2EB2               	goto	u1915
  1962  16AC  0871               	movf	___lldiv@divisor+1,w
  1963  16AD  0275               	subwf	___lldiv@dividend+1,w
  1964  16AE  1D03               	skipz
  1965  16AF  2EB2               	goto	u1915
  1966  16B0  0870               	movf	___lldiv@divisor,w
  1967  16B1  0274               	subwf	___lldiv@dividend,w
  1968  16B2                     u1915:
  1969  16B2  1C03               	skipc
  1970  16B3  2EB5               	goto	u1911
  1971  16B4  2EB6               	goto	u1910
  1972  16B5                     u1911:
  1973  16B5  2EC5               	goto	l1868
  1974  16B6                     u1910:
  1975  16B6                     l1864:
  1976  16B6  0870               	movf	___lldiv@divisor,w
  1977  16B7  02F4               	subwf	___lldiv@dividend,f
  1978  16B8  0871               	movf	___lldiv@divisor+1,w
  1979  16B9  1C03               	skipc
  1980  16BA  0F71               	incfsz	___lldiv@divisor+1,w
  1981  16BB  02F5               	subwf	___lldiv@dividend+1,f
  1982  16BC  0872               	movf	___lldiv@divisor+2,w
  1983  16BD  1C03               	skipc
  1984  16BE  0F72               	incfsz	___lldiv@divisor+2,w
  1985  16BF  02F6               	subwf	___lldiv@dividend+2,f
  1986  16C0  0873               	movf	___lldiv@divisor+3,w
  1987  16C1  1C03               	skipc
  1988  16C2  0F73               	incfsz	___lldiv@divisor+3,w
  1989  16C3  02F7               	subwf	___lldiv@dividend+3,f
  1990  16C4                     l1866:
  1991  16C4  1479               	bsf	___lldiv@quotient,0
  1992  16C5                     l1868:
  1993  16C5  3001               	movlw	1
  1994  16C6                     u1925:
  1995  16C6  1003               	clrc
  1996  16C7  0CF3               	rrf	___lldiv@divisor+3,f
  1997  16C8  0CF2               	rrf	___lldiv@divisor+2,f
  1998  16C9  0CF1               	rrf	___lldiv@divisor+1,f
  1999  16CA  0CF0               	rrf	___lldiv@divisor,f
  2000  16CB  3EFF               	addlw	-1
  2001  16CC  1D03               	skipz
  2002  16CD  2EC6               	goto	u1925
  2003  16CE                     l1870:
  2004  16CE  3001               	movlw	1
  2005  16CF  02FD               	subwf	___lldiv@counter,f
  2006  16D0  1D03               	btfss	3,2
  2007  16D1  2ED3               	goto	u1931
  2008  16D2  2ED4               	goto	u1930
  2009  16D3                     u1931:
  2010  16D3  2E9B               	goto	l1860
  2011  16D4                     u1930:
  2012  16D4                     l1872:
  2013  16D4  087C               	movf	___lldiv@quotient+3,w
  2014  16D5  00F3               	movwf	?___lldiv+3
  2015  16D6  087B               	movf	___lldiv@quotient+2,w
  2016  16D7  00F2               	movwf	?___lldiv+2
  2017  16D8  087A               	movf	___lldiv@quotient+1,w
  2018  16D9  00F1               	movwf	?___lldiv+1
  2019  16DA  0879               	movf	___lldiv@quotient,w
  2020  16DB  00F0               	movwf	?___lldiv
  2021  16DC                     l334:
  2022  16DC  0008               	return
  2023  16DD                     __end_of___lldiv:
  2024                           
  2025                           	psect	text4
  2026  03FB                     __ptext4:	
  2027 ;; *************** function _convert *****************
  2028 ;; Defined at:
  2029 ;;		line 188 in file "Librerias.c"
  2030 ;; Parameters:    Size  Location     Type
  2031 ;;  data            1    wreg     PTR unsigned char 
  2032 ;;		 -> lcd3(10), lcd2(10), lcd1(10), 
  2033 ;;  a               4   70[BANK0 ] float 
  2034 ;;  place           2   74[BANK0 ] int 
  2035 ;; Auto vars:     Size  Location     Type
  2036 ;;  data            1   10[BANK1 ] PTR unsigned char 
  2037 ;;		 -> lcd3(10), lcd2(10), lcd1(10), 
  2038 ;;  x               4    4[BANK1 ] float 
  2039 ;;  mu              2   13[BANK1 ] int 
  2040 ;;  digits          2   11[BANK1 ] int 
  2041 ;;  i               2    8[BANK1 ] int 
  2042 ;;  j               2    2[BANK1 ] int 
  2043 ;;  temp            2    0[BANK1 ] int 
  2044 ;; Return value:  Size  Location     Type
  2045 ;;                  1    wreg      void 
  2046 ;; Registers used:
  2047 ;;		wreg, fsr0l, fsr0h, status,2, status,0, btemp+1, pclath, cstack
  2048 ;; Tracked objects:
  2049 ;;		On entry : 0/0
  2050 ;;		On exit  : 0/0
  2051 ;;		Unchanged: 0/0
  2052 ;; Data sizes:     COMMON   BANK0   BANK1   BANK3   BANK2
  2053 ;;      Params:         0       6       0       0       0
  2054 ;;      Locals:         0       0      15       0       0
  2055 ;;      Temps:          0       2       0       0       0
  2056 ;;      Totals:         0       8      15       0       0
  2057 ;;Total ram usage:       23 bytes
  2058 ;; Hardware stack levels used:    1
  2059 ;; Hardware stack levels required when called:    2
  2060 ;; This function calls:
  2061 ;;		___awdiv
  2062 ;;		___fldiv
  2063 ;;		___flge
  2064 ;;		___flmul
  2065 ;;		___flsub
  2066 ;;		___fltol
  2067 ;;		___wmul
  2068 ;;		___xxtofl
  2069 ;; This function is called by:
  2070 ;;		_main
  2071 ;; This function uses a non-reentrant model
  2072 ;;
  2073                           
  2074                           
  2075                           ;psect for function _convert
  2076  03FB                     _convert:
  2077                           
  2078                           ;incstack = 0
  2079                           ; Regs used in _convert: [wreg-fsr0h+status,2+status,0+btemp+1+pclath+cstack]
  2080                           ;convert@data stored from wreg
  2081  03FB  1683               	bsf	3,5	;RP0=1, select bank1
  2082  03FC  1303               	bcf	3,6	;RP1=0, select bank1
  2083  03FD  00DA               	movwf	convert@data^(0+128)
  2084  03FE                     l2642:
  2085                           
  2086                           ;Librerias.c: 188: void convert(char *data,float a, int place);Librerias.c: 189: {;Libre
      +                          rias.c: 190:      int temp=a;
  2087  03FE  1283               	bcf	3,5	;RP0=0, select bank0
  2088  03FF  1303               	bcf	3,6	;RP1=0, select bank0
  2089  0400  0869               	movf	convert@a+3,w
  2090  0401  00F3               	movwf	___fltol@f1+3
  2091  0402  0868               	movf	convert@a+2,w
  2092  0403  00F2               	movwf	___fltol@f1+2
  2093  0404  0867               	movf	convert@a+1,w
  2094  0405  00F1               	movwf	___fltol@f1+1
  2095  0406  0866               	movf	convert@a,w
  2096  0407  00F0               	movwf	___fltol@f1
  2097  0408  120A  118A  2020  120A  118A  	fcall	___fltol
  2098  040D  0871               	movf	?___fltol+1,w
  2099  040E  1683               	bsf	3,5	;RP0=1, select bank1
  2100  040F  1303               	bcf	3,6	;RP1=0, select bank1
  2101  0410  00D1               	movwf	(convert@temp+1)^(0+128)
  2102  0411  0870               	movf	?___fltol,w
  2103  0412  00D0               	movwf	convert@temp^(0+128)
  2104  0413                     l2644:
  2105  0413                     l2646:
  2106                           
  2107                           ;Librerias.c: 192:      int digits=0;
  2108  0413  01DB               	clrf	convert@digits^(0+128)
  2109  0414  01DC               	clrf	(convert@digits+1)^(0+128)
  2110  0415                     l2648:
  2111                           
  2112                           ;Librerias.c: 193:      int i=0,mu=1;
  2113  0415  01D8               	clrf	convert@i^(0+128)
  2114  0416  01D9               	clrf	(convert@i+1)^(0+128)
  2115  0417                     l2650:
  2116  0417  3001               	movlw	1
  2117  0418  00DD               	movwf	convert@mu^(0+128)
  2118  0419  3000               	movlw	0
  2119  041A  00DE               	movwf	(convert@mu^(0+128)+1)
  2120  041B                     l2652:
  2121  041B                     l2654:
  2122                           
  2123                           ;Librerias.c: 195:      if(a<0)
  2124  041B  1283               	bcf	3,5	;RP0=0, select bank0
  2125  041C  1303               	bcf	3,6	;RP1=0, select bank0
  2126  041D  0869               	movf	convert@a+3,w
  2127  041E  00F3               	movwf	___flge@ff1+3
  2128  041F  0868               	movf	convert@a+2,w
  2129  0420  00F2               	movwf	___flge@ff1+2
  2130  0421  0867               	movf	convert@a+1,w
  2131  0422  00F1               	movwf	___flge@ff1+1
  2132  0423  0866               	movf	convert@a,w
  2133  0424  00F0               	movwf	___flge@ff1
  2134  0425  3000               	movlw	0
  2135  0426  00F7               	movwf	___flge@ff2+3
  2136  0427  3000               	movlw	0
  2137  0428  00F6               	movwf	___flge@ff2+2
  2138  0429  3000               	movlw	0
  2139  042A  00F5               	movwf	___flge@ff2+1
  2140  042B  3000               	movlw	0
  2141  042C  00F4               	movwf	___flge@ff2
  2142  042D  120A  158A  200E  120A  118A  	fcall	___flge
  2143  0432  1803               	btfsc	3,0
  2144  0433  2C35               	goto	u3631
  2145  0434  2C36               	goto	u3630
  2146  0435                     u3631:
  2147  0435  2C84               	goto	l2666
  2148  0436                     u3630:
  2149  0436                     l2656:
  2150                           
  2151                           ;Librerias.c: 196:      {;Librerias.c: 197:             a=a*-1;
  2152  0436  30BF               	movlw	191
  2153  0437  1283               	bcf	3,5	;RP0=0, select bank0
  2154  0438  1303               	bcf	3,6	;RP1=0, select bank0
  2155  0439  00CF               	movwf	___flmul@b+3
  2156  043A  3080               	movlw	128
  2157  043B  00CE               	movwf	___flmul@b+2
  2158  043C  3000               	movlw	0
  2159  043D  00CD               	movwf	___flmul@b+1
  2160  043E  3000               	movlw	0
  2161  043F  00CC               	movwf	___flmul@b
  2162  0440  0869               	movf	convert@a+3,w
  2163  0441  00D3               	movwf	___flmul@a+3
  2164  0442  0868               	movf	convert@a+2,w
  2165  0443  00D2               	movwf	___flmul@a+2
  2166  0444  0867               	movf	convert@a+1,w
  2167  0445  00D1               	movwf	___flmul@a+1
  2168  0446  0866               	movf	convert@a,w
  2169  0447  00D0               	movwf	___flmul@a
  2170  0448  120A  118A  209A  120A  118A  	fcall	___flmul
  2171  044D  1283               	bcf	3,5	;RP0=0, select bank0
  2172  044E  1303               	bcf	3,6	;RP1=0, select bank0
  2173  044F  084F               	movf	?___flmul+3,w
  2174  0450  00E9               	movwf	convert@a+3
  2175  0451  084E               	movf	?___flmul+2,w
  2176  0452  00E8               	movwf	convert@a+2
  2177  0453  084D               	movf	?___flmul+1,w
  2178  0454  00E7               	movwf	convert@a+1
  2179  0455  084C               	movf	?___flmul,w
  2180  0456  00E6               	movwf	convert@a
  2181  0457                     l2658:
  2182                           
  2183                           ;Librerias.c: 198:             data[i]='-';
  2184  0457  302D               	movlw	45
  2185  0458  00EC               	movwf	??_convert
  2186  0459  1683               	bsf	3,5	;RP0=1, select bank1
  2187  045A  1303               	bcf	3,6	;RP1=0, select bank1
  2188  045B  085A               	movf	convert@data^(0+128),w
  2189  045C  0084               	movwf	4
  2190  045D  1283               	bcf	3,5	;RP0=0, select bank0
  2191  045E  1303               	bcf	3,6	;RP1=0, select bank0
  2192  045F  086C               	movf	??_convert,w
  2193  0460  1383               	bcf	3,7	;select IRP bank0
  2194  0461  0080               	movwf	0
  2195  0462                     l2660:
  2196                           
  2197                           ;Librerias.c: 199:             i++;
  2198  0462  3001               	movlw	1
  2199  0463  1683               	bsf	3,5	;RP0=1, select bank1
  2200  0464  1303               	bcf	3,6	;RP1=0, select bank1
  2201  0465  07D8               	addwf	convert@i^(0+128),f
  2202  0466  1803               	skipnc
  2203  0467  0AD9               	incf	(convert@i+1)^(0+128),f
  2204  0468  3000               	movlw	0
  2205  0469  07D9               	addwf	(convert@i+1)^(0+128),f
  2206  046A  2C84               	goto	l2666
  2207  046B                     l2662:
  2208                           
  2209                           ;Librerias.c: 203:      {;Librerias.c: 204:          temp=temp/10;
  2210  046B  300A               	movlw	10
  2211  046C  00F0               	movwf	___awdiv@divisor
  2212  046D  3000               	movlw	0
  2213  046E  00F1               	movwf	___awdiv@divisor+1
  2214  046F  0851               	movf	(convert@temp+1)^(0+128),w
  2215  0470  00F3               	movwf	___awdiv@dividend+1
  2216  0471  0850               	movf	convert@temp^(0+128),w
  2217  0472  00F2               	movwf	___awdiv@dividend
  2218  0473  160A  118A  26DD  120A  118A  	fcall	___awdiv
  2219  0478  0871               	movf	?___awdiv+1,w
  2220  0479  1683               	bsf	3,5	;RP0=1, select bank1
  2221  047A  1303               	bcf	3,6	;RP1=0, select bank1
  2222  047B  00D1               	movwf	(convert@temp+1)^(0+128)
  2223  047C  0870               	movf	?___awdiv,w
  2224  047D  00D0               	movwf	convert@temp^(0+128)
  2225  047E                     l2664:
  2226                           
  2227                           ;Librerias.c: 205:          digits++;
  2228  047E  3001               	movlw	1
  2229  047F  07DB               	addwf	convert@digits^(0+128),f
  2230  0480  1803               	skipnc
  2231  0481  0ADC               	incf	(convert@digits+1)^(0+128),f
  2232  0482  3000               	movlw	0
  2233  0483  07DC               	addwf	(convert@digits+1)^(0+128),f
  2234  0484                     l2666:
  2235                           
  2236                           ;Librerias.c: 202:      while(temp!=0)
  2237  0484  1683               	bsf	3,5	;RP0=1, select bank1
  2238  0485  1303               	bcf	3,6	;RP1=0, select bank1
  2239  0486  0850               	movf	convert@temp^(0+128),w
  2240  0487  0451               	iorwf	(convert@temp+1)^(0+128),w
  2241  0488  1D03               	btfss	3,2
  2242  0489  2C8B               	goto	u3641
  2243  048A  2C8C               	goto	u3640
  2244  048B                     u3641:
  2245  048B  2C6B               	goto	l2662
  2246  048C                     u3640:
  2247  048C  2DA8               	goto	l2690
  2248  048D                     l2668:
  2249                           
  2250                           ;Librerias.c: 208:      {;Librerias.c: 209:          if(digits==1)mu=1;
  2251  048D  035B               	decf	convert@digits^(0+128),w
  2252  048E  045C               	iorwf	(convert@digits+1)^(0+128),w
  2253  048F  1D03               	btfss	3,2
  2254  0490  2C92               	goto	u3651
  2255  0491  2C93               	goto	u3650
  2256  0492                     u3651:
  2257  0492  2C98               	goto	l2672
  2258  0493                     u3650:
  2259  0493                     l2670:
  2260  0493  3001               	movlw	1
  2261  0494  00DD               	movwf	convert@mu^(0+128)
  2262  0495  3000               	movlw	0
  2263  0496  00DE               	movwf	(convert@mu^(0+128)+1)
  2264  0497  2CDA               	goto	l2680
  2265  0498                     l2672:
  2266  0498  3002               	movlw	2
  2267  0499  00D2               	movwf	convert@j^(0+128)
  2268  049A  3000               	movlw	0
  2269  049B  00D3               	movwf	(convert@j^(0+128)+1)
  2270  049C  2CC4               	goto	l2678
  2271  049D                     l2674:
  2272  049D  1683               	bsf	3,5	;RP0=1, select bank1
  2273  049E  1303               	bcf	3,6	;RP1=0, select bank1
  2274  049F  085E               	movf	(convert@mu+1)^(0+128),w
  2275  04A0  1283               	bcf	3,5	;RP0=0, select bank0
  2276  04A1  1303               	bcf	3,6	;RP1=0, select bank0
  2277  04A2  00A1               	movwf	___wmul@multiplier+1
  2278  04A3  1683               	bsf	3,5	;RP0=1, select bank1
  2279  04A4  1303               	bcf	3,6	;RP1=0, select bank1
  2280  04A5  085D               	movf	convert@mu^(0+128),w
  2281  04A6  1283               	bcf	3,5	;RP0=0, select bank0
  2282  04A7  1303               	bcf	3,6	;RP1=0, select bank0
  2283  04A8  00A0               	movwf	___wmul@multiplier
  2284  04A9  300A               	movlw	10
  2285  04AA  00A2               	movwf	___wmul@multiplicand
  2286  04AB  3000               	movlw	0
  2287  04AC  00A3               	movwf	___wmul@multiplicand+1
  2288  04AD  160A  118A  2563  120A  118A  	fcall	___wmul
  2289  04B2  1283               	bcf	3,5	;RP0=0, select bank0
  2290  04B3  1303               	bcf	3,6	;RP1=0, select bank0
  2291  04B4  0821               	movf	?___wmul+1,w
  2292  04B5  1683               	bsf	3,5	;RP0=1, select bank1
  2293  04B6  1303               	bcf	3,6	;RP1=0, select bank1
  2294  04B7  00DE               	movwf	(convert@mu+1)^(0+128)
  2295  04B8  1283               	bcf	3,5	;RP0=0, select bank0
  2296  04B9  1303               	bcf	3,6	;RP1=0, select bank0
  2297  04BA  0820               	movf	?___wmul,w
  2298  04BB  1683               	bsf	3,5	;RP0=1, select bank1
  2299  04BC  1303               	bcf	3,6	;RP1=0, select bank1
  2300  04BD  00DD               	movwf	convert@mu^(0+128)
  2301  04BE                     l2676:
  2302  04BE  3001               	movlw	1
  2303  04BF  07D2               	addwf	convert@j^(0+128),f
  2304  04C0  1803               	skipnc
  2305  04C1  0AD3               	incf	(convert@j+1)^(0+128),f
  2306  04C2  3000               	movlw	0
  2307  04C3  07D3               	addwf	(convert@j+1)^(0+128),f
  2308  04C4                     l2678:
  2309  04C4  085C               	movf	(convert@digits+1)^(0+128),w
  2310  04C5  3A80               	xorlw	128
  2311  04C6  1283               	bcf	3,5	;RP0=0, select bank0
  2312  04C7  1303               	bcf	3,6	;RP1=0, select bank0
  2313  04C8  00EC               	movwf	??_convert
  2314  04C9  1683               	bsf	3,5	;RP0=1, select bank1
  2315  04CA  1303               	bcf	3,6	;RP1=0, select bank1
  2316  04CB  0853               	movf	(convert@j+1)^(0+128),w
  2317  04CC  3A80               	xorlw	128
  2318  04CD  1283               	bcf	3,5	;RP0=0, select bank0
  2319  04CE  1303               	bcf	3,6	;RP1=0, select bank0
  2320  04CF  026C               	subwf	??_convert,w
  2321  04D0  1D03               	skipz
  2322  04D1  2CD6               	goto	u3665
  2323  04D2  1683               	bsf	3,5	;RP0=1, select bank1
  2324  04D3  1303               	bcf	3,6	;RP1=0, select bank1
  2325  04D4  0852               	movf	convert@j^(0+128),w
  2326  04D5  025B               	subwf	convert@digits^(0+128),w
  2327  04D6                     u3665:
  2328  04D6  1803               	skipnc
  2329  04D7  2CD9               	goto	u3661
  2330  04D8  2CDA               	goto	u3660
  2331  04D9                     u3661:
  2332  04D9  2C9D               	goto	l2674
  2333  04DA                     u3660:
  2334  04DA                     l2680:
  2335                           
  2336                           ;Librerias.c: 212:          x=a/mu;
  2337  04DA  1683               	bsf	3,5	;RP0=1, select bank1
  2338  04DB  1303               	bcf	3,6	;RP1=0, select bank1
  2339  04DC  085D               	movf	convert@mu^(0+128),w
  2340  04DD  1283               	bcf	3,5	;RP0=0, select bank0
  2341  04DE  1303               	bcf	3,6	;RP1=0, select bank0
  2342  04DF  00A4               	movwf	___xxtofl@val
  2343  04E0  1683               	bsf	3,5	;RP0=1, select bank1
  2344  04E1  1303               	bcf	3,6	;RP1=0, select bank1
  2345  04E2  085E               	movf	(convert@mu+1)^(0+128),w
  2346  04E3  1283               	bcf	3,5	;RP0=0, select bank0
  2347  04E4  1303               	bcf	3,6	;RP1=0, select bank0
  2348  04E5  00A5               	movwf	___xxtofl@val+1
  2349  04E6  3000               	movlw	0
  2350  04E7  1BA5               	btfsc	___xxtofl@val+1,7
  2351  04E8  30FF               	movlw	255
  2352  04E9  00A6               	movwf	___xxtofl@val+2
  2353  04EA  00A7               	movwf	___xxtofl@val+3
  2354  04EB  3001               	movlw	1
  2355  04EC  160A  118A  2744  120A  118A  	fcall	___xxtofl
  2356  04F1  1283               	bcf	3,5	;RP0=0, select bank0
  2357  04F2  1303               	bcf	3,6	;RP1=0, select bank0
  2358  04F3  0827               	movf	?___xxtofl+3,w
  2359  04F4  00B5               	movwf	___fldiv@a+3
  2360  04F5  0826               	movf	?___xxtofl+2,w
  2361  04F6  00B4               	movwf	___fldiv@a+2
  2362  04F7  0825               	movf	?___xxtofl+1,w
  2363  04F8  00B3               	movwf	___fldiv@a+1
  2364  04F9  0824               	movf	?___xxtofl,w
  2365  04FA  00B2               	movwf	___fldiv@a
  2366  04FB  0869               	movf	convert@a+3,w
  2367  04FC  00B9               	movwf	___fldiv@b+3
  2368  04FD  0868               	movf	convert@a+2,w
  2369  04FE  00B8               	movwf	___fldiv@b+2
  2370  04FF  0867               	movf	convert@a+1,w
  2371  0500  00B7               	movwf	___fldiv@b+1
  2372  0501  0866               	movf	convert@a,w
  2373  0502  00B6               	movwf	___fldiv@b
  2374  0503  120A  158A  20B0  120A  118A  	fcall	___fldiv
  2375  0508  1283               	bcf	3,5	;RP0=0, select bank0
  2376  0509  1303               	bcf	3,6	;RP1=0, select bank0
  2377  050A  0835               	movf	?___fldiv+3,w
  2378  050B  1683               	bsf	3,5	;RP0=1, select bank1
  2379  050C  1303               	bcf	3,6	;RP1=0, select bank1
  2380  050D  00D7               	movwf	(convert@x+3)^(0+128)
  2381  050E  1283               	bcf	3,5	;RP0=0, select bank0
  2382  050F  1303               	bcf	3,6	;RP1=0, select bank0
  2383  0510  0834               	movf	?___fldiv+2,w
  2384  0511  1683               	bsf	3,5	;RP0=1, select bank1
  2385  0512  1303               	bcf	3,6	;RP1=0, select bank1
  2386  0513  00D6               	movwf	(convert@x+2)^(0+128)
  2387  0514  1283               	bcf	3,5	;RP0=0, select bank0
  2388  0515  1303               	bcf	3,6	;RP1=0, select bank0
  2389  0516  0833               	movf	?___fldiv+1,w
  2390  0517  1683               	bsf	3,5	;RP0=1, select bank1
  2391  0518  1303               	bcf	3,6	;RP1=0, select bank1
  2392  0519  00D5               	movwf	(convert@x+1)^(0+128)
  2393  051A  1283               	bcf	3,5	;RP0=0, select bank0
  2394  051B  1303               	bcf	3,6	;RP1=0, select bank0
  2395  051C  0832               	movf	?___fldiv,w
  2396  051D  1683               	bsf	3,5	;RP0=1, select bank1
  2397  051E  1303               	bcf	3,6	;RP1=0, select bank1
  2398  051F  00D4               	movwf	convert@x^(0+128)
  2399                           
  2400                           ;Librerias.c: 213:          a=a-((int)x*mu);
  2401  0520  085E               	movf	(convert@mu+1)^(0+128),w
  2402  0521  1283               	bcf	3,5	;RP0=0, select bank0
  2403  0522  1303               	bcf	3,6	;RP1=0, select bank0
  2404  0523  00A3               	movwf	___wmul@multiplicand+1
  2405  0524  1683               	bsf	3,5	;RP0=1, select bank1
  2406  0525  1303               	bcf	3,6	;RP1=0, select bank1
  2407  0526  085D               	movf	convert@mu^(0+128),w
  2408  0527  1283               	bcf	3,5	;RP0=0, select bank0
  2409  0528  1303               	bcf	3,6	;RP1=0, select bank0
  2410  0529  00A2               	movwf	___wmul@multiplicand
  2411  052A  1683               	bsf	3,5	;RP0=1, select bank1
  2412  052B  1303               	bcf	3,6	;RP1=0, select bank1
  2413  052C  0857               	movf	(convert@x+3)^(0+128),w
  2414  052D  00F3               	movwf	___fltol@f1+3
  2415  052E  0856               	movf	(convert@x+2)^(0+128),w
  2416  052F  00F2               	movwf	___fltol@f1+2
  2417  0530  0855               	movf	(convert@x+1)^(0+128),w
  2418  0531  00F1               	movwf	___fltol@f1+1
  2419  0532  0854               	movf	convert@x^(0+128),w
  2420  0533  00F0               	movwf	___fltol@f1
  2421  0534  120A  118A  2020  120A  118A  	fcall	___fltol
  2422  0539  0871               	movf	?___fltol+1,w
  2423  053A  1283               	bcf	3,5	;RP0=0, select bank0
  2424  053B  1303               	bcf	3,6	;RP1=0, select bank0
  2425  053C  00A1               	movwf	___wmul@multiplier+1
  2426  053D  0870               	movf	?___fltol,w
  2427  053E  00A0               	movwf	___wmul@multiplier
  2428  053F  160A  118A  2563  120A  118A  	fcall	___wmul
  2429  0544  1283               	bcf	3,5	;RP0=0, select bank0
  2430  0545  1303               	bcf	3,6	;RP1=0, select bank0
  2431  0546  0820               	movf	?___wmul,w
  2432  0547  00A4               	movwf	___xxtofl@val
  2433  0548  0821               	movf	?___wmul+1,w
  2434  0549  00A5               	movwf	___xxtofl@val+1
  2435  054A  3000               	movlw	0
  2436  054B  1BA5               	btfsc	___xxtofl@val+1,7
  2437  054C  30FF               	movlw	255
  2438  054D  00A6               	movwf	___xxtofl@val+2
  2439  054E  00A7               	movwf	___xxtofl@val+3
  2440  054F  3001               	movlw	1
  2441  0550  160A  118A  2744  120A  118A  	fcall	___xxtofl
  2442  0555  1283               	bcf	3,5	;RP0=0, select bank0
  2443  0556  1303               	bcf	3,6	;RP1=0, select bank0
  2444  0557  0827               	movf	?___xxtofl+3,w
  2445  0558  00B5               	movwf	___flsub@a+3
  2446  0559  0826               	movf	?___xxtofl+2,w
  2447  055A  00B4               	movwf	___flsub@a+2
  2448  055B  0825               	movf	?___xxtofl+1,w
  2449  055C  00B3               	movwf	___flsub@a+1
  2450  055D  0824               	movf	?___xxtofl,w
  2451  055E  00B2               	movwf	___flsub@a
  2452  055F  0869               	movf	convert@a+3,w
  2453  0560  00B9               	movwf	___flsub@b+3
  2454  0561  0868               	movf	convert@a+2,w
  2455  0562  00B8               	movwf	___flsub@b+2
  2456  0563  0867               	movf	convert@a+1,w
  2457  0564  00B7               	movwf	___flsub@b+1
  2458  0565  0866               	movf	convert@a,w
  2459  0566  00B6               	movwf	___flsub@b
  2460  0567  160A  118A  2518  120A  118A  	fcall	___flsub
  2461  056C  1283               	bcf	3,5	;RP0=0, select bank0
  2462  056D  1303               	bcf	3,6	;RP1=0, select bank0
  2463  056E  0835               	movf	?___flsub+3,w
  2464  056F  00E9               	movwf	convert@a+3
  2465  0570  0834               	movf	?___flsub+2,w
  2466  0571  00E8               	movwf	convert@a+2
  2467  0572  0833               	movf	?___flsub+1,w
  2468  0573  00E7               	movwf	convert@a+1
  2469  0574  0832               	movf	?___flsub,w
  2470  0575  00E6               	movwf	convert@a
  2471  0576                     l2682:
  2472                           
  2473                           ;Librerias.c: 214:          data[i]=0x30+((int)x);
  2474  0576  1683               	bsf	3,5	;RP0=1, select bank1
  2475  0577  1303               	bcf	3,6	;RP1=0, select bank1
  2476  0578  0857               	movf	(convert@x+3)^(0+128),w
  2477  0579  00F3               	movwf	___fltol@f1+3
  2478  057A  0856               	movf	(convert@x+2)^(0+128),w
  2479  057B  00F2               	movwf	___fltol@f1+2
  2480  057C  0855               	movf	(convert@x+1)^(0+128),w
  2481  057D  00F1               	movwf	___fltol@f1+1
  2482  057E  0854               	movf	convert@x^(0+128),w
  2483  057F  00F0               	movwf	___fltol@f1
  2484  0580  120A  118A  2020  120A  118A  	fcall	___fltol
  2485  0585  0870               	movf	?___fltol,w
  2486  0586  3E30               	addlw	48
  2487  0587  1283               	bcf	3,5	;RP0=0, select bank0
  2488  0588  1303               	bcf	3,6	;RP1=0, select bank0
  2489  0589  00EC               	movwf	??_convert
  2490  058A  1683               	bsf	3,5	;RP0=1, select bank1
  2491  058B  1303               	bcf	3,6	;RP1=0, select bank1
  2492  058C  0858               	movf	convert@i^(0+128),w
  2493  058D  075A               	addwf	convert@data^(0+128),w
  2494  058E  1283               	bcf	3,5	;RP0=0, select bank0
  2495  058F  1303               	bcf	3,6	;RP1=0, select bank0
  2496  0590  00ED               	movwf	??_convert+1
  2497  0591  086D               	movf	??_convert+1,w
  2498  0592  0084               	movwf	4
  2499  0593  086C               	movf	??_convert,w
  2500  0594  1383               	bcf	3,7	;select IRP bank0
  2501  0595  0080               	movwf	0
  2502  0596                     l2684:
  2503                           
  2504                           ;Librerias.c: 215:          i++;
  2505  0596  3001               	movlw	1
  2506  0597  1683               	bsf	3,5	;RP0=1, select bank1
  2507  0598  1303               	bcf	3,6	;RP1=0, select bank1
  2508  0599  07D8               	addwf	convert@i^(0+128),f
  2509  059A  1803               	skipnc
  2510  059B  0AD9               	incf	(convert@i+1)^(0+128),f
  2511  059C  3000               	movlw	0
  2512  059D  07D9               	addwf	(convert@i+1)^(0+128),f
  2513  059E                     l2686:
  2514                           
  2515                           ;Librerias.c: 216:          digits--;
  2516  059E  30FF               	movlw	255
  2517  059F  07DB               	addwf	convert@digits^(0+128),f
  2518  05A0  1803               	skipnc
  2519  05A1  0ADC               	incf	(convert@digits+1)^(0+128),f
  2520  05A2  30FF               	movlw	255
  2521  05A3  07DC               	addwf	(convert@digits+1)^(0+128),f
  2522  05A4                     l2688:
  2523                           
  2524                           ;Librerias.c: 217:          mu=1;
  2525  05A4  3001               	movlw	1
  2526  05A5  00DD               	movwf	convert@mu^(0+128)
  2527  05A6  3000               	movlw	0
  2528  05A7  00DE               	movwf	(convert@mu^(0+128)+1)
  2529  05A8                     l2690:
  2530                           
  2531                           ;Librerias.c: 207:      while(digits!=0)
  2532  05A8  085B               	movf	convert@digits^(0+128),w
  2533  05A9  045C               	iorwf	(convert@digits+1)^(0+128),w
  2534  05AA  1D03               	btfss	3,2
  2535  05AB  2DAD               	goto	u3671
  2536  05AC  2DAE               	goto	u3670
  2537  05AD                     u3671:
  2538  05AD  2C8D               	goto	l2668
  2539  05AE                     u3670:
  2540  05AE                     l2692:
  2541                           
  2542                           ;Librerias.c: 220:      data[i]='.';
  2543  05AE  302E               	movlw	46
  2544  05AF  1283               	bcf	3,5	;RP0=0, select bank0
  2545  05B0  1303               	bcf	3,6	;RP1=0, select bank0
  2546  05B1  00EC               	movwf	??_convert
  2547  05B2  1683               	bsf	3,5	;RP0=1, select bank1
  2548  05B3  1303               	bcf	3,6	;RP1=0, select bank1
  2549  05B4  0858               	movf	convert@i^(0+128),w
  2550  05B5  075A               	addwf	convert@data^(0+128),w
  2551  05B6  1283               	bcf	3,5	;RP0=0, select bank0
  2552  05B7  1303               	bcf	3,6	;RP1=0, select bank0
  2553  05B8  00ED               	movwf	??_convert+1
  2554  05B9  086D               	movf	??_convert+1,w
  2555  05BA  0084               	movwf	4
  2556  05BB  086C               	movf	??_convert,w
  2557  05BC  1383               	bcf	3,7	;select IRP bank0
  2558  05BD  0080               	movwf	0
  2559  05BE                     l2694:
  2560                           
  2561                           ;Librerias.c: 221:      i++;
  2562  05BE  3001               	movlw	1
  2563  05BF  1683               	bsf	3,5	;RP0=1, select bank1
  2564  05C0  1303               	bcf	3,6	;RP1=0, select bank1
  2565  05C1  07D8               	addwf	convert@i^(0+128),f
  2566  05C2  1803               	skipnc
  2567  05C3  0AD9               	incf	(convert@i+1)^(0+128),f
  2568  05C4  3000               	movlw	0
  2569  05C5  07D9               	addwf	(convert@i+1)^(0+128),f
  2570  05C6                     l2696:
  2571  05C6                     l2698:
  2572                           
  2573                           ;Librerias.c: 223:      for(j=1;j<=place;j++)mu=mu*10;
  2574  05C6  3001               	movlw	1
  2575  05C7  00D2               	movwf	convert@j^(0+128)
  2576  05C8  3000               	movlw	0
  2577  05C9  00D3               	movwf	(convert@j^(0+128)+1)
  2578  05CA  2DF2               	goto	l2704
  2579  05CB                     l2700:
  2580  05CB  1683               	bsf	3,5	;RP0=1, select bank1
  2581  05CC  1303               	bcf	3,6	;RP1=0, select bank1
  2582  05CD  085E               	movf	(convert@mu+1)^(0+128),w
  2583  05CE  1283               	bcf	3,5	;RP0=0, select bank0
  2584  05CF  1303               	bcf	3,6	;RP1=0, select bank0
  2585  05D0  00A1               	movwf	___wmul@multiplier+1
  2586  05D1  1683               	bsf	3,5	;RP0=1, select bank1
  2587  05D2  1303               	bcf	3,6	;RP1=0, select bank1
  2588  05D3  085D               	movf	convert@mu^(0+128),w
  2589  05D4  1283               	bcf	3,5	;RP0=0, select bank0
  2590  05D5  1303               	bcf	3,6	;RP1=0, select bank0
  2591  05D6  00A0               	movwf	___wmul@multiplier
  2592  05D7  300A               	movlw	10
  2593  05D8  00A2               	movwf	___wmul@multiplicand
  2594  05D9  3000               	movlw	0
  2595  05DA  00A3               	movwf	___wmul@multiplicand+1
  2596  05DB  160A  118A  2563  120A  118A  	fcall	___wmul
  2597  05E0  1283               	bcf	3,5	;RP0=0, select bank0
  2598  05E1  1303               	bcf	3,6	;RP1=0, select bank0
  2599  05E2  0821               	movf	?___wmul+1,w
  2600  05E3  1683               	bsf	3,5	;RP0=1, select bank1
  2601  05E4  1303               	bcf	3,6	;RP1=0, select bank1
  2602  05E5  00DE               	movwf	(convert@mu+1)^(0+128)
  2603  05E6  1283               	bcf	3,5	;RP0=0, select bank0
  2604  05E7  1303               	bcf	3,6	;RP1=0, select bank0
  2605  05E8  0820               	movf	?___wmul,w
  2606  05E9  1683               	bsf	3,5	;RP0=1, select bank1
  2607  05EA  1303               	bcf	3,6	;RP1=0, select bank1
  2608  05EB  00DD               	movwf	convert@mu^(0+128)
  2609  05EC                     l2702:
  2610  05EC  3001               	movlw	1
  2611  05ED  07D2               	addwf	convert@j^(0+128),f
  2612  05EE  1803               	skipnc
  2613  05EF  0AD3               	incf	(convert@j+1)^(0+128),f
  2614  05F0  3000               	movlw	0
  2615  05F1  07D3               	addwf	(convert@j+1)^(0+128),f
  2616  05F2                     l2704:
  2617  05F2  1283               	bcf	3,5	;RP0=0, select bank0
  2618  05F3  1303               	bcf	3,6	;RP1=0, select bank0
  2619  05F4  086B               	movf	convert@place+1,w
  2620  05F5  3A80               	xorlw	128
  2621  05F6  00EC               	movwf	??_convert
  2622  05F7  1683               	bsf	3,5	;RP0=1, select bank1
  2623  05F8  1303               	bcf	3,6	;RP1=0, select bank1
  2624  05F9  0853               	movf	(convert@j+1)^(0+128),w
  2625  05FA  3A80               	xorlw	128
  2626  05FB  1283               	bcf	3,5	;RP0=0, select bank0
  2627  05FC  1303               	bcf	3,6	;RP1=0, select bank0
  2628  05FD  026C               	subwf	??_convert,w
  2629  05FE  1D03               	skipz
  2630  05FF  2E06               	goto	u3685
  2631  0600  1683               	bsf	3,5	;RP0=1, select bank1
  2632  0601  1303               	bcf	3,6	;RP1=0, select bank1
  2633  0602  0852               	movf	convert@j^(0+128),w
  2634  0603  1283               	bcf	3,5	;RP0=0, select bank0
  2635  0604  1303               	bcf	3,6	;RP1=0, select bank0
  2636  0605  026A               	subwf	convert@place,w
  2637  0606                     u3685:
  2638  0606  1803               	skipnc
  2639  0607  2E09               	goto	u3681
  2640  0608  2E0A               	goto	u3680
  2641  0609                     u3681:
  2642  0609  2DCB               	goto	l2700
  2643  060A                     u3680:
  2644  060A                     l2706:
  2645                           
  2646                           ;Librerias.c: 224:      x=(a-(int)a)*mu;
  2647  060A  1683               	bsf	3,5	;RP0=1, select bank1
  2648  060B  1303               	bcf	3,6	;RP1=0, select bank1
  2649  060C  085D               	movf	convert@mu^(0+128),w
  2650  060D  1283               	bcf	3,5	;RP0=0, select bank0
  2651  060E  1303               	bcf	3,6	;RP1=0, select bank0
  2652  060F  00A4               	movwf	___xxtofl@val
  2653  0610  1683               	bsf	3,5	;RP0=1, select bank1
  2654  0611  1303               	bcf	3,6	;RP1=0, select bank1
  2655  0612  085E               	movf	(convert@mu+1)^(0+128),w
  2656  0613  1283               	bcf	3,5	;RP0=0, select bank0
  2657  0614  1303               	bcf	3,6	;RP1=0, select bank0
  2658  0615  00A5               	movwf	___xxtofl@val+1
  2659  0616  3000               	movlw	0
  2660  0617  1BA5               	btfsc	___xxtofl@val+1,7
  2661  0618  30FF               	movlw	255
  2662  0619  00A6               	movwf	___xxtofl@val+2
  2663  061A  00A7               	movwf	___xxtofl@val+3
  2664  061B  3001               	movlw	1
  2665  061C  160A  118A  2744  120A  118A  	fcall	___xxtofl
  2666  0621  1283               	bcf	3,5	;RP0=0, select bank0
  2667  0622  1303               	bcf	3,6	;RP1=0, select bank0
  2668  0623  0827               	movf	?___xxtofl+3,w
  2669  0624  00CF               	movwf	___flmul@b+3
  2670  0625  0826               	movf	?___xxtofl+2,w
  2671  0626  00CE               	movwf	___flmul@b+2
  2672  0627  0825               	movf	?___xxtofl+1,w
  2673  0628  00CD               	movwf	___flmul@b+1
  2674  0629  0824               	movf	?___xxtofl,w
  2675  062A  00CC               	movwf	___flmul@b
  2676  062B  0869               	movf	convert@a+3,w
  2677  062C  00F3               	movwf	___fltol@f1+3
  2678  062D  0868               	movf	convert@a+2,w
  2679  062E  00F2               	movwf	___fltol@f1+2
  2680  062F  0867               	movf	convert@a+1,w
  2681  0630  00F1               	movwf	___fltol@f1+1
  2682  0631  0866               	movf	convert@a,w
  2683  0632  00F0               	movwf	___fltol@f1
  2684  0633  120A  118A  2020  120A  118A  	fcall	___fltol
  2685  0638  0870               	movf	?___fltol,w
  2686  0639  1283               	bcf	3,5	;RP0=0, select bank0
  2687  063A  1303               	bcf	3,6	;RP1=0, select bank0
  2688  063B  00A4               	movwf	___xxtofl@val
  2689  063C  0871               	movf	?___fltol+1,w
  2690  063D  00A5               	movwf	___xxtofl@val+1
  2691  063E  3000               	movlw	0
  2692  063F  1BA5               	btfsc	___xxtofl@val+1,7
  2693  0640  30FF               	movlw	255
  2694  0641  00A6               	movwf	___xxtofl@val+2
  2695  0642  00A7               	movwf	___xxtofl@val+3
  2696  0643  3001               	movlw	1
  2697  0644  160A  118A  2744  120A  118A  	fcall	___xxtofl
  2698  0649  1283               	bcf	3,5	;RP0=0, select bank0
  2699  064A  1303               	bcf	3,6	;RP1=0, select bank0
  2700  064B  0827               	movf	?___xxtofl+3,w
  2701  064C  00B5               	movwf	___flsub@a+3
  2702  064D  0826               	movf	?___xxtofl+2,w
  2703  064E  00B4               	movwf	___flsub@a+2
  2704  064F  0825               	movf	?___xxtofl+1,w
  2705  0650  00B3               	movwf	___flsub@a+1
  2706  0651  0824               	movf	?___xxtofl,w
  2707  0652  00B2               	movwf	___flsub@a
  2708  0653  0869               	movf	convert@a+3,w
  2709  0654  00B9               	movwf	___flsub@b+3
  2710  0655  0868               	movf	convert@a+2,w
  2711  0656  00B8               	movwf	___flsub@b+2
  2712  0657  0867               	movf	convert@a+1,w
  2713  0658  00B7               	movwf	___flsub@b+1
  2714  0659  0866               	movf	convert@a,w
  2715  065A  00B6               	movwf	___flsub@b
  2716  065B  160A  118A  2518  120A  118A  	fcall	___flsub
  2717  0660  1283               	bcf	3,5	;RP0=0, select bank0
  2718  0661  1303               	bcf	3,6	;RP1=0, select bank0
  2719  0662  0835               	movf	?___flsub+3,w
  2720  0663  00D3               	movwf	___flmul@a+3
  2721  0664  0834               	movf	?___flsub+2,w
  2722  0665  00D2               	movwf	___flmul@a+2
  2723  0666  0833               	movf	?___flsub+1,w
  2724  0667  00D1               	movwf	___flmul@a+1
  2725  0668  0832               	movf	?___flsub,w
  2726  0669  00D0               	movwf	___flmul@a
  2727  066A  120A  118A  209A  120A  118A  	fcall	___flmul
  2728  066F  1283               	bcf	3,5	;RP0=0, select bank0
  2729  0670  1303               	bcf	3,6	;RP1=0, select bank0
  2730  0671  084F               	movf	?___flmul+3,w
  2731  0672  1683               	bsf	3,5	;RP0=1, select bank1
  2732  0673  1303               	bcf	3,6	;RP1=0, select bank1
  2733  0674  00D7               	movwf	(convert@x+3)^(0+128)
  2734  0675  1283               	bcf	3,5	;RP0=0, select bank0
  2735  0676  1303               	bcf	3,6	;RP1=0, select bank0
  2736  0677  084E               	movf	?___flmul+2,w
  2737  0678  1683               	bsf	3,5	;RP0=1, select bank1
  2738  0679  1303               	bcf	3,6	;RP1=0, select bank1
  2739  067A  00D6               	movwf	(convert@x+2)^(0+128)
  2740  067B  1283               	bcf	3,5	;RP0=0, select bank0
  2741  067C  1303               	bcf	3,6	;RP1=0, select bank0
  2742  067D  084D               	movf	?___flmul+1,w
  2743  067E  1683               	bsf	3,5	;RP0=1, select bank1
  2744  067F  1303               	bcf	3,6	;RP1=0, select bank1
  2745  0680  00D5               	movwf	(convert@x+1)^(0+128)
  2746  0681  1283               	bcf	3,5	;RP0=0, select bank0
  2747  0682  1303               	bcf	3,6	;RP1=0, select bank0
  2748  0683  084C               	movf	?___flmul,w
  2749  0684  1683               	bsf	3,5	;RP0=1, select bank1
  2750  0685  1303               	bcf	3,6	;RP1=0, select bank1
  2751  0686  00D4               	movwf	convert@x^(0+128)
  2752  0687                     l2708:
  2753                           
  2754                           ;Librerias.c: 225:      a=x;
  2755  0687  0857               	movf	(convert@x+3)^(0+128),w
  2756  0688  1283               	bcf	3,5	;RP0=0, select bank0
  2757  0689  1303               	bcf	3,6	;RP1=0, select bank0
  2758  068A  00E9               	movwf	convert@a+3
  2759  068B  1683               	bsf	3,5	;RP0=1, select bank1
  2760  068C  1303               	bcf	3,6	;RP1=0, select bank1
  2761  068D  0856               	movf	(convert@x+2)^(0+128),w
  2762  068E  1283               	bcf	3,5	;RP0=0, select bank0
  2763  068F  1303               	bcf	3,6	;RP1=0, select bank0
  2764  0690  00E8               	movwf	convert@a+2
  2765  0691  1683               	bsf	3,5	;RP0=1, select bank1
  2766  0692  1303               	bcf	3,6	;RP1=0, select bank1
  2767  0693  0855               	movf	(convert@x+1)^(0+128),w
  2768  0694  1283               	bcf	3,5	;RP0=0, select bank0
  2769  0695  1303               	bcf	3,6	;RP1=0, select bank0
  2770  0696  00E7               	movwf	convert@a+1
  2771  0697  1683               	bsf	3,5	;RP0=1, select bank1
  2772  0698  1303               	bcf	3,6	;RP1=0, select bank1
  2773  0699  0854               	movf	convert@x^(0+128),w
  2774  069A  1283               	bcf	3,5	;RP0=0, select bank0
  2775  069B  1303               	bcf	3,6	;RP1=0, select bank0
  2776  069C  00E6               	movwf	convert@a
  2777  069D                     l2710:
  2778  069D  0869               	movf	convert@a+3,w
  2779  069E  00F3               	movwf	___fltol@f1+3
  2780  069F  0868               	movf	convert@a+2,w
  2781  06A0  00F2               	movwf	___fltol@f1+2
  2782  06A1  0867               	movf	convert@a+1,w
  2783  06A2  00F1               	movwf	___fltol@f1+1
  2784  06A3  0866               	movf	convert@a,w
  2785  06A4  00F0               	movwf	___fltol@f1
  2786  06A5  120A  118A  2020  120A  118A  	fcall	___fltol
  2787  06AA                     l2712:
  2788  06AA                     l2714:
  2789                           
  2790                           ;Librerias.c: 228:      mu=1;
  2791  06AA  3001               	movlw	1
  2792  06AB  1683               	bsf	3,5	;RP0=1, select bank1
  2793  06AC  1303               	bcf	3,6	;RP1=0, select bank1
  2794  06AD  00DD               	movwf	convert@mu^(0+128)
  2795  06AE  3000               	movlw	0
  2796  06AF  00DE               	movwf	(convert@mu^(0+128)+1)
  2797  06B0                     l2716:
  2798                           
  2799                           ;Librerias.c: 229:      digits=place;
  2800  06B0  1283               	bcf	3,5	;RP0=0, select bank0
  2801  06B1  1303               	bcf	3,6	;RP1=0, select bank0
  2802  06B2  086B               	movf	convert@place+1,w
  2803  06B3  1683               	bsf	3,5	;RP0=1, select bank1
  2804  06B4  1303               	bcf	3,6	;RP1=0, select bank1
  2805  06B5  00DC               	movwf	(convert@digits+1)^(0+128)
  2806  06B6  1283               	bcf	3,5	;RP0=0, select bank0
  2807  06B7  1303               	bcf	3,6	;RP1=0, select bank0
  2808  06B8  086A               	movf	convert@place,w
  2809  06B9  1683               	bsf	3,5	;RP0=1, select bank1
  2810  06BA  1303               	bcf	3,6	;RP1=0, select bank1
  2811  06BB  00DB               	movwf	convert@digits^(0+128)
  2812                           
  2813                           ;Librerias.c: 230:      while(digits!=0)
  2814  06BC  2FD8               	goto	l2740
  2815  06BD                     l2718:
  2816                           
  2817                           ;Librerias.c: 231:      {;Librerias.c: 232:          if(digits==1)mu=1;
  2818  06BD  035B               	decf	convert@digits^(0+128),w
  2819  06BE  045C               	iorwf	(convert@digits+1)^(0+128),w
  2820  06BF  1D03               	btfss	3,2
  2821  06C0  2EC2               	goto	u3691
  2822  06C1  2EC3               	goto	u3690
  2823  06C2                     u3691:
  2824  06C2  2EC8               	goto	l2722
  2825  06C3                     u3690:
  2826  06C3                     l2720:
  2827  06C3  3001               	movlw	1
  2828  06C4  00DD               	movwf	convert@mu^(0+128)
  2829  06C5  3000               	movlw	0
  2830  06C6  00DE               	movwf	(convert@mu^(0+128)+1)
  2831  06C7  2F0A               	goto	l2730
  2832  06C8                     l2722:
  2833  06C8  3002               	movlw	2
  2834  06C9  00D2               	movwf	convert@j^(0+128)
  2835  06CA  3000               	movlw	0
  2836  06CB  00D3               	movwf	(convert@j^(0+128)+1)
  2837  06CC  2EF4               	goto	l2728
  2838  06CD                     l2724:
  2839  06CD  1683               	bsf	3,5	;RP0=1, select bank1
  2840  06CE  1303               	bcf	3,6	;RP1=0, select bank1
  2841  06CF  085E               	movf	(convert@mu+1)^(0+128),w
  2842  06D0  1283               	bcf	3,5	;RP0=0, select bank0
  2843  06D1  1303               	bcf	3,6	;RP1=0, select bank0
  2844  06D2  00A1               	movwf	___wmul@multiplier+1
  2845  06D3  1683               	bsf	3,5	;RP0=1, select bank1
  2846  06D4  1303               	bcf	3,6	;RP1=0, select bank1
  2847  06D5  085D               	movf	convert@mu^(0+128),w
  2848  06D6  1283               	bcf	3,5	;RP0=0, select bank0
  2849  06D7  1303               	bcf	3,6	;RP1=0, select bank0
  2850  06D8  00A0               	movwf	___wmul@multiplier
  2851  06D9  300A               	movlw	10
  2852  06DA  00A2               	movwf	___wmul@multiplicand
  2853  06DB  3000               	movlw	0
  2854  06DC  00A3               	movwf	___wmul@multiplicand+1
  2855  06DD  160A  118A  2563  120A  118A  	fcall	___wmul
  2856  06E2  1283               	bcf	3,5	;RP0=0, select bank0
  2857  06E3  1303               	bcf	3,6	;RP1=0, select bank0
  2858  06E4  0821               	movf	?___wmul+1,w
  2859  06E5  1683               	bsf	3,5	;RP0=1, select bank1
  2860  06E6  1303               	bcf	3,6	;RP1=0, select bank1
  2861  06E7  00DE               	movwf	(convert@mu+1)^(0+128)
  2862  06E8  1283               	bcf	3,5	;RP0=0, select bank0
  2863  06E9  1303               	bcf	3,6	;RP1=0, select bank0
  2864  06EA  0820               	movf	?___wmul,w
  2865  06EB  1683               	bsf	3,5	;RP0=1, select bank1
  2866  06EC  1303               	bcf	3,6	;RP1=0, select bank1
  2867  06ED  00DD               	movwf	convert@mu^(0+128)
  2868  06EE                     l2726:
  2869  06EE  3001               	movlw	1
  2870  06EF  07D2               	addwf	convert@j^(0+128),f
  2871  06F0  1803               	skipnc
  2872  06F1  0AD3               	incf	(convert@j+1)^(0+128),f
  2873  06F2  3000               	movlw	0
  2874  06F3  07D3               	addwf	(convert@j+1)^(0+128),f
  2875  06F4                     l2728:
  2876  06F4  085C               	movf	(convert@digits+1)^(0+128),w
  2877  06F5  3A80               	xorlw	128
  2878  06F6  1283               	bcf	3,5	;RP0=0, select bank0
  2879  06F7  1303               	bcf	3,6	;RP1=0, select bank0
  2880  06F8  00EC               	movwf	??_convert
  2881  06F9  1683               	bsf	3,5	;RP0=1, select bank1
  2882  06FA  1303               	bcf	3,6	;RP1=0, select bank1
  2883  06FB  0853               	movf	(convert@j+1)^(0+128),w
  2884  06FC  3A80               	xorlw	128
  2885  06FD  1283               	bcf	3,5	;RP0=0, select bank0
  2886  06FE  1303               	bcf	3,6	;RP1=0, select bank0
  2887  06FF  026C               	subwf	??_convert,w
  2888  0700  1D03               	skipz
  2889  0701  2F06               	goto	u3705
  2890  0702  1683               	bsf	3,5	;RP0=1, select bank1
  2891  0703  1303               	bcf	3,6	;RP1=0, select bank1
  2892  0704  0852               	movf	convert@j^(0+128),w
  2893  0705  025B               	subwf	convert@digits^(0+128),w
  2894  0706                     u3705:
  2895  0706  1803               	skipnc
  2896  0707  2F09               	goto	u3701
  2897  0708  2F0A               	goto	u3700
  2898  0709                     u3701:
  2899  0709  2ECD               	goto	l2724
  2900  070A                     u3700:
  2901  070A                     l2730:
  2902                           
  2903                           ;Librerias.c: 235:          x=a/mu;
  2904  070A  1683               	bsf	3,5	;RP0=1, select bank1
  2905  070B  1303               	bcf	3,6	;RP1=0, select bank1
  2906  070C  085D               	movf	convert@mu^(0+128),w
  2907  070D  1283               	bcf	3,5	;RP0=0, select bank0
  2908  070E  1303               	bcf	3,6	;RP1=0, select bank0
  2909  070F  00A4               	movwf	___xxtofl@val
  2910  0710  1683               	bsf	3,5	;RP0=1, select bank1
  2911  0711  1303               	bcf	3,6	;RP1=0, select bank1
  2912  0712  085E               	movf	(convert@mu+1)^(0+128),w
  2913  0713  1283               	bcf	3,5	;RP0=0, select bank0
  2914  0714  1303               	bcf	3,6	;RP1=0, select bank0
  2915  0715  00A5               	movwf	___xxtofl@val+1
  2916  0716  3000               	movlw	0
  2917  0717  1BA5               	btfsc	___xxtofl@val+1,7
  2918  0718  30FF               	movlw	255
  2919  0719  00A6               	movwf	___xxtofl@val+2
  2920  071A  00A7               	movwf	___xxtofl@val+3
  2921  071B  3001               	movlw	1
  2922  071C  160A  118A  2744  120A  118A  	fcall	___xxtofl
  2923  0721  1283               	bcf	3,5	;RP0=0, select bank0
  2924  0722  1303               	bcf	3,6	;RP1=0, select bank0
  2925  0723  0827               	movf	?___xxtofl+3,w
  2926  0724  00B5               	movwf	___fldiv@a+3
  2927  0725  0826               	movf	?___xxtofl+2,w
  2928  0726  00B4               	movwf	___fldiv@a+2
  2929  0727  0825               	movf	?___xxtofl+1,w
  2930  0728  00B3               	movwf	___fldiv@a+1
  2931  0729  0824               	movf	?___xxtofl,w
  2932  072A  00B2               	movwf	___fldiv@a
  2933  072B  0869               	movf	convert@a+3,w
  2934  072C  00B9               	movwf	___fldiv@b+3
  2935  072D  0868               	movf	convert@a+2,w
  2936  072E  00B8               	movwf	___fldiv@b+2
  2937  072F  0867               	movf	convert@a+1,w
  2938  0730  00B7               	movwf	___fldiv@b+1
  2939  0731  0866               	movf	convert@a,w
  2940  0732  00B6               	movwf	___fldiv@b
  2941  0733  120A  158A  20B0  120A  118A  	fcall	___fldiv
  2942  0738  1283               	bcf	3,5	;RP0=0, select bank0
  2943  0739  1303               	bcf	3,6	;RP1=0, select bank0
  2944  073A  0835               	movf	?___fldiv+3,w
  2945  073B  1683               	bsf	3,5	;RP0=1, select bank1
  2946  073C  1303               	bcf	3,6	;RP1=0, select bank1
  2947  073D  00D7               	movwf	(convert@x+3)^(0+128)
  2948  073E  1283               	bcf	3,5	;RP0=0, select bank0
  2949  073F  1303               	bcf	3,6	;RP1=0, select bank0
  2950  0740  0834               	movf	?___fldiv+2,w
  2951  0741  1683               	bsf	3,5	;RP0=1, select bank1
  2952  0742  1303               	bcf	3,6	;RP1=0, select bank1
  2953  0743  00D6               	movwf	(convert@x+2)^(0+128)
  2954  0744  1283               	bcf	3,5	;RP0=0, select bank0
  2955  0745  1303               	bcf	3,6	;RP1=0, select bank0
  2956  0746  0833               	movf	?___fldiv+1,w
  2957  0747  1683               	bsf	3,5	;RP0=1, select bank1
  2958  0748  1303               	bcf	3,6	;RP1=0, select bank1
  2959  0749  00D5               	movwf	(convert@x+1)^(0+128)
  2960  074A  1283               	bcf	3,5	;RP0=0, select bank0
  2961  074B  1303               	bcf	3,6	;RP1=0, select bank0
  2962  074C  0832               	movf	?___fldiv,w
  2963  074D  1683               	bsf	3,5	;RP0=1, select bank1
  2964  074E  1303               	bcf	3,6	;RP1=0, select bank1
  2965  074F  00D4               	movwf	convert@x^(0+128)
  2966                           
  2967                           ;Librerias.c: 236:          a=a-((int)x*mu);
  2968  0750  085E               	movf	(convert@mu+1)^(0+128),w
  2969  0751  1283               	bcf	3,5	;RP0=0, select bank0
  2970  0752  1303               	bcf	3,6	;RP1=0, select bank0
  2971  0753  00A3               	movwf	___wmul@multiplicand+1
  2972  0754  1683               	bsf	3,5	;RP0=1, select bank1
  2973  0755  1303               	bcf	3,6	;RP1=0, select bank1
  2974  0756  085D               	movf	convert@mu^(0+128),w
  2975  0757  1283               	bcf	3,5	;RP0=0, select bank0
  2976  0758  1303               	bcf	3,6	;RP1=0, select bank0
  2977  0759  00A2               	movwf	___wmul@multiplicand
  2978  075A  1683               	bsf	3,5	;RP0=1, select bank1
  2979  075B  1303               	bcf	3,6	;RP1=0, select bank1
  2980  075C  0857               	movf	(convert@x+3)^(0+128),w
  2981  075D  00F3               	movwf	___fltol@f1+3
  2982  075E  0856               	movf	(convert@x+2)^(0+128),w
  2983  075F  00F2               	movwf	___fltol@f1+2
  2984  0760  0855               	movf	(convert@x+1)^(0+128),w
  2985  0761  00F1               	movwf	___fltol@f1+1
  2986  0762  0854               	movf	convert@x^(0+128),w
  2987  0763  00F0               	movwf	___fltol@f1
  2988  0764  120A  118A  2020  120A  118A  	fcall	___fltol
  2989  0769  0871               	movf	?___fltol+1,w
  2990  076A  1283               	bcf	3,5	;RP0=0, select bank0
  2991  076B  1303               	bcf	3,6	;RP1=0, select bank0
  2992  076C  00A1               	movwf	___wmul@multiplier+1
  2993  076D  0870               	movf	?___fltol,w
  2994  076E  00A0               	movwf	___wmul@multiplier
  2995  076F  160A  118A  2563  120A  118A  	fcall	___wmul
  2996  0774  1283               	bcf	3,5	;RP0=0, select bank0
  2997  0775  1303               	bcf	3,6	;RP1=0, select bank0
  2998  0776  0820               	movf	?___wmul,w
  2999  0777  00A4               	movwf	___xxtofl@val
  3000  0778  0821               	movf	?___wmul+1,w
  3001  0779  00A5               	movwf	___xxtofl@val+1
  3002  077A  3000               	movlw	0
  3003  077B  1BA5               	btfsc	___xxtofl@val+1,7
  3004  077C  30FF               	movlw	255
  3005  077D  00A6               	movwf	___xxtofl@val+2
  3006  077E  00A7               	movwf	___xxtofl@val+3
  3007  077F  3001               	movlw	1
  3008  0780  160A  118A  2744  120A  118A  	fcall	___xxtofl
  3009  0785  1283               	bcf	3,5	;RP0=0, select bank0
  3010  0786  1303               	bcf	3,6	;RP1=0, select bank0
  3011  0787  0827               	movf	?___xxtofl+3,w
  3012  0788  00B5               	movwf	___flsub@a+3
  3013  0789  0826               	movf	?___xxtofl+2,w
  3014  078A  00B4               	movwf	___flsub@a+2
  3015  078B  0825               	movf	?___xxtofl+1,w
  3016  078C  00B3               	movwf	___flsub@a+1
  3017  078D  0824               	movf	?___xxtofl,w
  3018  078E  00B2               	movwf	___flsub@a
  3019  078F  0869               	movf	convert@a+3,w
  3020  0790  00B9               	movwf	___flsub@b+3
  3021  0791  0868               	movf	convert@a+2,w
  3022  0792  00B8               	movwf	___flsub@b+2
  3023  0793  0867               	movf	convert@a+1,w
  3024  0794  00B7               	movwf	___flsub@b+1
  3025  0795  0866               	movf	convert@a,w
  3026  0796  00B6               	movwf	___flsub@b
  3027  0797  160A  118A  2518  120A  118A  	fcall	___flsub
  3028  079C  1283               	bcf	3,5	;RP0=0, select bank0
  3029  079D  1303               	bcf	3,6	;RP1=0, select bank0
  3030  079E  0835               	movf	?___flsub+3,w
  3031  079F  00E9               	movwf	convert@a+3
  3032  07A0  0834               	movf	?___flsub+2,w
  3033  07A1  00E8               	movwf	convert@a+2
  3034  07A2  0833               	movf	?___flsub+1,w
  3035  07A3  00E7               	movwf	convert@a+1
  3036  07A4  0832               	movf	?___flsub,w
  3037  07A5  00E6               	movwf	convert@a
  3038  07A6                     l2732:
  3039                           
  3040                           ;Librerias.c: 237:          data[i]=0x30+((int)x);
  3041  07A6  1683               	bsf	3,5	;RP0=1, select bank1
  3042  07A7  1303               	bcf	3,6	;RP1=0, select bank1
  3043  07A8  0857               	movf	(convert@x+3)^(0+128),w
  3044  07A9  00F3               	movwf	___fltol@f1+3
  3045  07AA  0856               	movf	(convert@x+2)^(0+128),w
  3046  07AB  00F2               	movwf	___fltol@f1+2
  3047  07AC  0855               	movf	(convert@x+1)^(0+128),w
  3048  07AD  00F1               	movwf	___fltol@f1+1
  3049  07AE  0854               	movf	convert@x^(0+128),w
  3050  07AF  00F0               	movwf	___fltol@f1
  3051  07B0  120A  118A  2020  120A  118A  	fcall	___fltol
  3052  07B5  0870               	movf	?___fltol,w
  3053  07B6  3E30               	addlw	48
  3054  07B7  1283               	bcf	3,5	;RP0=0, select bank0
  3055  07B8  1303               	bcf	3,6	;RP1=0, select bank0
  3056  07B9  00EC               	movwf	??_convert
  3057  07BA  1683               	bsf	3,5	;RP0=1, select bank1
  3058  07BB  1303               	bcf	3,6	;RP1=0, select bank1
  3059  07BC  0858               	movf	convert@i^(0+128),w
  3060  07BD  075A               	addwf	convert@data^(0+128),w
  3061  07BE  1283               	bcf	3,5	;RP0=0, select bank0
  3062  07BF  1303               	bcf	3,6	;RP1=0, select bank0
  3063  07C0  00ED               	movwf	??_convert+1
  3064  07C1  086D               	movf	??_convert+1,w
  3065  07C2  0084               	movwf	4
  3066  07C3  086C               	movf	??_convert,w
  3067  07C4  1383               	bcf	3,7	;select IRP bank0
  3068  07C5  0080               	movwf	0
  3069  07C6                     l2734:
  3070                           
  3071                           ;Librerias.c: 238:          i++;
  3072  07C6  3001               	movlw	1
  3073  07C7  1683               	bsf	3,5	;RP0=1, select bank1
  3074  07C8  1303               	bcf	3,6	;RP1=0, select bank1
  3075  07C9  07D8               	addwf	convert@i^(0+128),f
  3076  07CA  1803               	skipnc
  3077  07CB  0AD9               	incf	(convert@i+1)^(0+128),f
  3078  07CC  3000               	movlw	0
  3079  07CD  07D9               	addwf	(convert@i+1)^(0+128),f
  3080  07CE                     l2736:
  3081                           
  3082                           ;Librerias.c: 239:          digits--;
  3083  07CE  30FF               	movlw	255
  3084  07CF  07DB               	addwf	convert@digits^(0+128),f
  3085  07D0  1803               	skipnc
  3086  07D1  0ADC               	incf	(convert@digits+1)^(0+128),f
  3087  07D2  30FF               	movlw	255
  3088  07D3  07DC               	addwf	(convert@digits+1)^(0+128),f
  3089  07D4                     l2738:
  3090                           
  3091                           ;Librerias.c: 240:          mu=1;
  3092  07D4  3001               	movlw	1
  3093  07D5  00DD               	movwf	convert@mu^(0+128)
  3094  07D6  3000               	movlw	0
  3095  07D7  00DE               	movwf	(convert@mu^(0+128)+1)
  3096  07D8                     l2740:
  3097                           
  3098                           ;Librerias.c: 230:      while(digits!=0)
  3099  07D8  085B               	movf	convert@digits^(0+128),w
  3100  07D9  045C               	iorwf	(convert@digits+1)^(0+128),w
  3101  07DA  1D03               	btfss	3,2
  3102  07DB  2FDD               	goto	u3711
  3103  07DC  2FDE               	goto	u3710
  3104  07DD                     u3711:
  3105  07DD  2EBD               	goto	l2718
  3106  07DE                     u3710:
  3107  07DE                     l2742:
  3108                           
  3109                           ;Librerias.c: 243:     data[i]='\n';
  3110  07DE  300A               	movlw	10
  3111  07DF  1283               	bcf	3,5	;RP0=0, select bank0
  3112  07E0  1303               	bcf	3,6	;RP1=0, select bank0
  3113  07E1  00EC               	movwf	??_convert
  3114  07E2  1683               	bsf	3,5	;RP0=1, select bank1
  3115  07E3  1303               	bcf	3,6	;RP1=0, select bank1
  3116  07E4  0858               	movf	convert@i^(0+128),w
  3117  07E5  075A               	addwf	convert@data^(0+128),w
  3118  07E6  1283               	bcf	3,5	;RP0=0, select bank0
  3119  07E7  1303               	bcf	3,6	;RP1=0, select bank0
  3120  07E8  00ED               	movwf	??_convert+1
  3121  07E9  086D               	movf	??_convert+1,w
  3122  07EA  0084               	movwf	4
  3123  07EB  086C               	movf	??_convert,w
  3124  07EC  1383               	bcf	3,7	;select IRP bank0
  3125  07ED  0080               	movwf	0
  3126  07EE                     l212:
  3127  07EE  0008               	return
  3128  07EF                     __end_of_convert:
  3129                           
  3130                           	psect	text5
  3131  1744                     __ptext5:	
  3132 ;; *************** function ___xxtofl *****************
  3133 ;; Defined at:
  3134 ;;		line 10 in file "C:\Program Files\Microchip\xc8\v2.31\pic\sources\c90\common\xxtofl.c"
  3135 ;; Parameters:    Size  Location     Type
  3136 ;;  sign            1    wreg     unsigned char 
  3137 ;;  val             4    4[BANK0 ] long 
  3138 ;; Auto vars:     Size  Location     Type
  3139 ;;  sign            1   12[BANK0 ] unsigned char 
  3140 ;;  arg             4   14[BANK0 ] unsigned long 
  3141 ;;  exp             1   13[BANK0 ] unsigned char 
  3142 ;; Return value:  Size  Location     Type
  3143 ;;                  4    4[BANK0 ] unsigned char 
  3144 ;; Registers used:
  3145 ;;		wreg, status,2, status,0
  3146 ;; Tracked objects:
  3147 ;;		On entry : 0/0
  3148 ;;		On exit  : 0/0
  3149 ;;		Unchanged: 0/0
  3150 ;; Data sizes:     COMMON   BANK0   BANK1   BANK3   BANK2
  3151 ;;      Params:         0       4       0       0       0
  3152 ;;      Locals:         0       6       0       0       0
  3153 ;;      Temps:          0       4       0       0       0
  3154 ;;      Totals:         0      14       0       0       0
  3155 ;;Total ram usage:       14 bytes
  3156 ;; Hardware stack levels used:    1
  3157 ;; This function calls:
  3158 ;;		Nothing
  3159 ;; This function is called by:
  3160 ;;		_main
  3161 ;;		_convert
  3162 ;; This function uses a non-reentrant model
  3163 ;;
  3164                           
  3165                           
  3166                           ;psect for function ___xxtofl
  3167  1744                     ___xxtofl:
  3168                           
  3169                           ;incstack = 0
  3170                           ; Regs used in ___xxtofl: [wreg+status,2+status,0]
  3171                           ;___xxtofl@sign stored from wreg
  3172  1744  1283               	bcf	3,5	;RP0=0, select bank0
  3173  1745  1303               	bcf	3,6	;RP1=0, select bank0
  3174  1746  00AC               	movwf	___xxtofl@sign
  3175  1747                     l2522:
  3176  1747  082C               	movf	___xxtofl@sign,w
  3177  1748  1903               	btfsc	3,2
  3178  1749  2F4B               	goto	u3431
  3179  174A  2F4C               	goto	u3430
  3180  174B                     u3431:
  3181  174B  2F60               	goto	l2528
  3182  174C                     u3430:
  3183  174C                     l2524:
  3184  174C  1FA7               	btfss	___xxtofl@val+3,7
  3185  174D  2F4F               	goto	u3441
  3186  174E  2F50               	goto	u3440
  3187  174F                     u3441:
  3188  174F  2F60               	goto	l2528
  3189  1750                     u3440:
  3190  1750                     l2526:
  3191  1750  0924               	comf	___xxtofl@val,w
  3192  1751  00AE               	movwf	___xxtofl@arg
  3193  1752  0925               	comf	___xxtofl@val+1,w
  3194  1753  00AF               	movwf	___xxtofl@arg+1
  3195  1754  0926               	comf	___xxtofl@val+2,w
  3196  1755  00B0               	movwf	___xxtofl@arg+2
  3197  1756  0927               	comf	___xxtofl@val+3,w
  3198  1757  00B1               	movwf	___xxtofl@arg+3
  3199  1758  0AAE               	incf	___xxtofl@arg,f
  3200  1759  1903               	skipnz
  3201  175A  0AAF               	incf	___xxtofl@arg+1,f
  3202  175B  1903               	skipnz
  3203  175C  0AB0               	incf	___xxtofl@arg+2,f
  3204  175D  1903               	skipnz
  3205  175E  0AB1               	incf	___xxtofl@arg+3,f
  3206  175F  2F68               	goto	l731
  3207  1760                     l2528:
  3208  1760  0827               	movf	___xxtofl@val+3,w
  3209  1761  00B1               	movwf	___xxtofl@arg+3
  3210  1762  0826               	movf	___xxtofl@val+2,w
  3211  1763  00B0               	movwf	___xxtofl@arg+2
  3212  1764  0825               	movf	___xxtofl@val+1,w
  3213  1765  00AF               	movwf	___xxtofl@arg+1
  3214  1766  0824               	movf	___xxtofl@val,w
  3215  1767  00AE               	movwf	___xxtofl@arg
  3216  1768                     l731:
  3217  1768  0827               	movf	___xxtofl@val+3,w
  3218  1769  0426               	iorwf	___xxtofl@val+2,w
  3219  176A  0425               	iorwf	___xxtofl@val+1,w
  3220  176B  0424               	iorwf	___xxtofl@val,w
  3221  176C  1D03               	skipz
  3222  176D  2F6F               	goto	u3451
  3223  176E  2F70               	goto	u3450
  3224  176F                     u3451:
  3225  176F  2F79               	goto	l2534
  3226  1770                     u3450:
  3227  1770                     l2530:
  3228  1770  3000               	movlw	0
  3229  1771  00A7               	movwf	?___xxtofl+3
  3230  1772  3000               	movlw	0
  3231  1773  00A6               	movwf	?___xxtofl+2
  3232  1774  3000               	movlw	0
  3233  1775  00A5               	movwf	?___xxtofl+1
  3234  1776  3000               	movlw	0
  3235  1777  00A4               	movwf	?___xxtofl
  3236  1778  2FFF               	goto	l733
  3237  1779                     l2534:
  3238  1779  3096               	movlw	150
  3239  177A  00A8               	movwf	??___xxtofl
  3240  177B  0828               	movf	??___xxtofl,w
  3241  177C  00AD               	movwf	___xxtofl@exp
  3242  177D  2F8B               	goto	l2538
  3243  177E                     l2536:
  3244  177E  3001               	movlw	1
  3245  177F  00A8               	movwf	??___xxtofl
  3246  1780  0828               	movf	??___xxtofl,w
  3247  1781  07AD               	addwf	___xxtofl@exp,f
  3248  1782  3001               	movlw	1
  3249  1783                     u3465:
  3250  1783  1003               	clrc
  3251  1784  0CB1               	rrf	___xxtofl@arg+3,f
  3252  1785  0CB0               	rrf	___xxtofl@arg+2,f
  3253  1786  0CAF               	rrf	___xxtofl@arg+1,f
  3254  1787  0CAE               	rrf	___xxtofl@arg,f
  3255  1788  3EFF               	addlw	-1
  3256  1789  1D03               	skipz
  3257  178A  2F83               	goto	u3465
  3258  178B                     l2538:
  3259  178B  30FE               	movlw	254
  3260  178C  0531               	andwf	___xxtofl@arg+3,w
  3261  178D  1D03               	btfss	3,2
  3262  178E  2F90               	goto	u3471
  3263  178F  2F91               	goto	u3470
  3264  1790                     u3471:
  3265  1790  2F7E               	goto	l2536
  3266  1791                     u3470:
  3267  1791  2FAD               	goto	l737
  3268  1792                     l2540:
  3269  1792  3001               	movlw	1
  3270  1793  00A8               	movwf	??___xxtofl
  3271  1794  0828               	movf	??___xxtofl,w
  3272  1795  07AD               	addwf	___xxtofl@exp,f
  3273  1796                     l2542:
  3274  1796  3001               	movlw	1
  3275  1797  07AE               	addwf	___xxtofl@arg,f
  3276  1798  3000               	movlw	0
  3277  1799  1803               	skipnc
  3278  179A  3001               	movlw	1
  3279  179B  07AF               	addwf	___xxtofl@arg+1,f
  3280  179C  3000               	movlw	0
  3281  179D  1803               	skipnc
  3282  179E  3001               	movlw	1
  3283  179F  07B0               	addwf	___xxtofl@arg+2,f
  3284  17A0  3000               	movlw	0
  3285  17A1  1803               	skipnc
  3286  17A2  3001               	movlw	1
  3287  17A3  07B1               	addwf	___xxtofl@arg+3,f
  3288  17A4                     l2544:
  3289  17A4  3001               	movlw	1
  3290  17A5                     u3485:
  3291  17A5  1003               	clrc
  3292  17A6  0CB1               	rrf	___xxtofl@arg+3,f
  3293  17A7  0CB0               	rrf	___xxtofl@arg+2,f
  3294  17A8  0CAF               	rrf	___xxtofl@arg+1,f
  3295  17A9  0CAE               	rrf	___xxtofl@arg,f
  3296  17AA  3EFF               	addlw	-1
  3297  17AB  1D03               	skipz
  3298  17AC  2FA5               	goto	u3485
  3299  17AD                     l737:
  3300  17AD  30FF               	movlw	255
  3301  17AE  0531               	andwf	___xxtofl@arg+3,w
  3302  17AF  1D03               	btfss	3,2
  3303  17B0  2FB2               	goto	u3491
  3304  17B1  2FB3               	goto	u3490
  3305  17B2                     u3491:
  3306  17B2  2F92               	goto	l2540
  3307  17B3                     u3490:
  3308  17B3  2FBF               	goto	l2548
  3309  17B4                     l2546:
  3310  17B4  3001               	movlw	1
  3311  17B5  02AD               	subwf	___xxtofl@exp,f
  3312  17B6  3001               	movlw	1
  3313  17B7  00A8               	movwf	??___xxtofl
  3314  17B8                     u3505:
  3315  17B8  1003               	clrc
  3316  17B9  0DAE               	rlf	___xxtofl@arg,f
  3317  17BA  0DAF               	rlf	___xxtofl@arg+1,f
  3318  17BB  0DB0               	rlf	___xxtofl@arg+2,f
  3319  17BC  0DB1               	rlf	___xxtofl@arg+3,f
  3320  17BD  0BA8               	decfsz	??___xxtofl,f
  3321  17BE  2FB8               	goto	u3505
  3322  17BF                     l2548:
  3323  17BF  1BB0               	btfsc	___xxtofl@arg+2,7
  3324  17C0  2FC2               	goto	u3511
  3325  17C1  2FC3               	goto	u3510
  3326  17C2                     u3511:
  3327  17C2  2FC9               	goto	l744
  3328  17C3                     u3510:
  3329  17C3                     l2550:
  3330  17C3  3002               	movlw	2
  3331  17C4  022D               	subwf	___xxtofl@exp,w
  3332  17C5  1803               	skipnc
  3333  17C6  2FC8               	goto	u3521
  3334  17C7  2FC9               	goto	u3520
  3335  17C8                     u3521:
  3336  17C8  2FB4               	goto	l2546
  3337  17C9                     u3520:
  3338  17C9                     l744:
  3339  17C9  182D               	btfsc	___xxtofl@exp,0
  3340  17CA  2FCC               	goto	u3531
  3341  17CB  2FCD               	goto	u3530
  3342  17CC                     u3531:
  3343  17CC  2FD5               	goto	l745
  3344  17CD                     u3530:
  3345  17CD                     l2552:
  3346  17CD  30FF               	movlw	255
  3347  17CE  05AE               	andwf	___xxtofl@arg,f
  3348  17CF  30FF               	movlw	255
  3349  17D0  05AF               	andwf	___xxtofl@arg+1,f
  3350  17D1  307F               	movlw	127
  3351  17D2  05B0               	andwf	___xxtofl@arg+2,f
  3352  17D3  30FF               	movlw	255
  3353  17D4  05B1               	andwf	___xxtofl@arg+3,f
  3354  17D5                     l745:
  3355  17D5  1003               	clrc
  3356  17D6  0CAD               	rrf	___xxtofl@exp,f
  3357  17D7                     l2554:
  3358  17D7  082D               	movf	___xxtofl@exp,w
  3359  17D8  00A8               	movwf	??___xxtofl
  3360  17D9  01A9               	clrf	??___xxtofl+1
  3361  17DA  01AA               	clrf	??___xxtofl+2
  3362  17DB  01AB               	clrf	??___xxtofl+3
  3363  17DC  3018               	movlw	24
  3364  17DD                     u3545:
  3365  17DD  1003               	clrc
  3366  17DE  0DA8               	rlf	??___xxtofl,f
  3367  17DF  0DA9               	rlf	??___xxtofl+1,f
  3368  17E0  0DAA               	rlf	??___xxtofl+2,f
  3369  17E1  0DAB               	rlf	??___xxtofl+3,f
  3370  17E2                     u3540:
  3371  17E2  3EFF               	addlw	-1
  3372  17E3  1D03               	skipz
  3373  17E4  2FDD               	goto	u3545
  3374  17E5  0828               	movf	??___xxtofl,w
  3375  17E6  04AE               	iorwf	___xxtofl@arg,f
  3376  17E7  0829               	movf	??___xxtofl+1,w
  3377  17E8  04AF               	iorwf	___xxtofl@arg+1,f
  3378  17E9  082A               	movf	??___xxtofl+2,w
  3379  17EA  04B0               	iorwf	___xxtofl@arg+2,f
  3380  17EB  082B               	movf	??___xxtofl+3,w
  3381  17EC  04B1               	iorwf	___xxtofl@arg+3,f
  3382  17ED                     l2556:
  3383  17ED  082C               	movf	___xxtofl@sign,w
  3384  17EE  1903               	btfsc	3,2
  3385  17EF  2FF1               	goto	u3551
  3386  17F0  2FF2               	goto	u3550
  3387  17F1                     u3551:
  3388  17F1  2FF7               	goto	l2562
  3389  17F2                     u3550:
  3390  17F2                     l2558:
  3391  17F2  1FA7               	btfss	___xxtofl@val+3,7
  3392  17F3  2FF5               	goto	u3561
  3393  17F4  2FF6               	goto	u3560
  3394  17F5                     u3561:
  3395  17F5  2FF7               	goto	l2562
  3396  17F6                     u3560:
  3397  17F6                     l2560:
  3398  17F6  17B1               	bsf	___xxtofl@arg+3,7
  3399  17F7                     l2562:
  3400  17F7  0831               	movf	___xxtofl@arg+3,w
  3401  17F8  00A7               	movwf	?___xxtofl+3
  3402  17F9  0830               	movf	___xxtofl@arg+2,w
  3403  17FA  00A6               	movwf	?___xxtofl+2
  3404  17FB  082F               	movf	___xxtofl@arg+1,w
  3405  17FC  00A5               	movwf	?___xxtofl+1
  3406  17FD  082E               	movf	___xxtofl@arg,w
  3407  17FE  00A4               	movwf	?___xxtofl
  3408  17FF                     l733:
  3409  17FF  0008               	return
  3410  1800                     __end_of___xxtofl:
  3411                           
  3412                           	psect	text6
  3413  1563                     __ptext6:	
  3414 ;; *************** function ___wmul *****************
  3415 ;; Defined at:
  3416 ;;		line 15 in file "C:\Program Files\Microchip\xc8\v2.31\pic\sources\c90\common\Umul16.c"
  3417 ;; Parameters:    Size  Location     Type
  3418 ;;  multiplier      2    0[BANK0 ] unsigned int 
  3419 ;;  multiplicand    2    2[BANK0 ] unsigned int 
  3420 ;; Auto vars:     Size  Location     Type
  3421 ;;  product         2   11[COMMON] unsigned int 
  3422 ;; Return value:  Size  Location     Type
  3423 ;;                  2    0[BANK0 ] unsigned int 
  3424 ;; Registers used:
  3425 ;;		wreg, status,2, status,0
  3426 ;; Tracked objects:
  3427 ;;		On entry : 0/0
  3428 ;;		On exit  : 0/0
  3429 ;;		Unchanged: 0/0
  3430 ;; Data sizes:     COMMON   BANK0   BANK1   BANK3   BANK2
  3431 ;;      Params:         0       4       0       0       0
  3432 ;;      Locals:         2       0       0       0       0
  3433 ;;      Temps:          0       0       0       0       0
  3434 ;;      Totals:         2       4       0       0       0
  3435 ;;Total ram usage:        6 bytes
  3436 ;; Hardware stack levels used:    1
  3437 ;; This function calls:
  3438 ;;		Nothing
  3439 ;; This function is called by:
  3440 ;;		_convert
  3441 ;; This function uses a non-reentrant model
  3442 ;;
  3443                           
  3444                           
  3445                           ;psect for function ___wmul
  3446  1563                     ___wmul:
  3447  1563                     l2120:	
  3448                           ;incstack = 0
  3449                           ; Regs used in ___wmul: [wreg+status,2+status,0]
  3450                           
  3451  1563  01FB               	clrf	___wmul@product
  3452  1564  01FC               	clrf	___wmul@product+1
  3453  1565                     l2122:
  3454  1565  1283               	bcf	3,5	;RP0=0, select bank0
  3455  1566  1303               	bcf	3,6	;RP1=0, select bank0
  3456  1567  1C20               	btfss	___wmul@multiplier,0
  3457  1568  2D6A               	goto	u2461
  3458  1569  2D6B               	goto	u2460
  3459  156A                     u2461:
  3460  156A  2D71               	goto	l298
  3461  156B                     u2460:
  3462  156B                     l2124:
  3463  156B  0822               	movf	___wmul@multiplicand,w
  3464  156C  07FB               	addwf	___wmul@product,f
  3465  156D  1803               	skipnc
  3466  156E  0AFC               	incf	___wmul@product+1,f
  3467  156F  0823               	movf	___wmul@multiplicand+1,w
  3468  1570  07FC               	addwf	___wmul@product+1,f
  3469  1571                     l298:
  3470  1571  3001               	movlw	1
  3471  1572                     u2475:
  3472  1572  1003               	clrc
  3473  1573  0DA2               	rlf	___wmul@multiplicand,f
  3474  1574  0DA3               	rlf	___wmul@multiplicand+1,f
  3475  1575  3EFF               	addlw	-1
  3476  1576  1D03               	skipz
  3477  1577  2D72               	goto	u2475
  3478  1578                     l2126:
  3479  1578  3001               	movlw	1
  3480  1579                     u2485:
  3481  1579  1003               	clrc
  3482  157A  0CA1               	rrf	___wmul@multiplier+1,f
  3483  157B  0CA0               	rrf	___wmul@multiplier,f
  3484  157C  3EFF               	addlw	-1
  3485  157D  1D03               	skipz
  3486  157E  2D79               	goto	u2485
  3487  157F                     l2128:
  3488  157F  0820               	movf	___wmul@multiplier,w
  3489  1580  0421               	iorwf	___wmul@multiplier+1,w
  3490  1581  1D03               	btfss	3,2
  3491  1582  2D84               	goto	u2491
  3492  1583  2D85               	goto	u2490
  3493  1584                     u2491:
  3494  1584  2D65               	goto	l2122
  3495  1585                     u2490:
  3496  1585                     l2130:
  3497  1585  087C               	movf	___wmul@product+1,w
  3498  1586  00A1               	movwf	?___wmul+1
  3499  1587  087B               	movf	___wmul@product,w
  3500  1588  00A0               	movwf	?___wmul
  3501  1589                     l300:
  3502  1589  0008               	return
  3503  158A                     __end_of___wmul:
  3504                           
  3505                           	psect	text7
  3506  0020                     __ptext7:	
  3507 ;; *************** function ___fltol *****************
  3508 ;; Defined at:
  3509 ;;		line 43 in file "C:\Program Files\Microchip\xc8\v2.31\pic\sources\c90\common\fltol.c"
  3510 ;; Parameters:    Size  Location     Type
  3511 ;;  f1              4    0[COMMON] unsigned int 
  3512 ;; Auto vars:     Size  Location     Type
  3513 ;;  exp1            1   10[COMMON] unsigned char 
  3514 ;;  sign1           1    9[COMMON] unsigned char 
  3515 ;; Return value:  Size  Location     Type
  3516 ;;                  4    0[COMMON] long 
  3517 ;; Registers used:
  3518 ;;		wreg, status,2, status,0
  3519 ;; Tracked objects:
  3520 ;;		On entry : 0/0
  3521 ;;		On exit  : 0/0
  3522 ;;		Unchanged: 0/0
  3523 ;; Data sizes:     COMMON   BANK0   BANK1   BANK3   BANK2
  3524 ;;      Params:         4       0       0       0       0
  3525 ;;      Locals:         2       0       0       0       0
  3526 ;;      Temps:          5       0       0       0       0
  3527 ;;      Totals:        11       0       0       0       0
  3528 ;;Total ram usage:       11 bytes
  3529 ;; Hardware stack levels used:    1
  3530 ;; This function calls:
  3531 ;;		Nothing
  3532 ;; This function is called by:
  3533 ;;		_convert
  3534 ;; This function uses a non-reentrant model
  3535 ;;
  3536                           
  3537                           
  3538                           ;psect for function ___fltol
  3539  0020                     ___fltol:
  3540  0020                     l2198:	
  3541                           ;incstack = 0
  3542                           ; Regs used in ___fltol: [wreg+status,2+status,0]
  3543                           
  3544  0020  1003               	clrc
  3545  0021  0D72               	rlf	___fltol@f1+2,w
  3546  0022  0D73               	rlf	___fltol@f1+3,w
  3547  0023  00F4               	movwf	??___fltol
  3548  0024  0874               	movf	??___fltol,w
  3549  0025  00FA               	movwf	___fltol@exp1
  3550  0026  087A               	movf	___fltol@exp1,w
  3551  0027  1D03               	btfss	3,2
  3552  0028  282A               	goto	u2671
  3553  0029  282B               	goto	u2670
  3554  002A                     u2671:
  3555  002A  2834               	goto	l2204
  3556  002B                     u2670:
  3557  002B                     l2200:
  3558  002B  3000               	movlw	0
  3559  002C  00F3               	movwf	?___fltol+3
  3560  002D  3000               	movlw	0
  3561  002E  00F2               	movwf	?___fltol+2
  3562  002F  3000               	movlw	0
  3563  0030  00F1               	movwf	?___fltol+1
  3564  0031  3000               	movlw	0
  3565  0032  00F0               	movwf	?___fltol
  3566  0033  2899               	goto	l484
  3567  0034                     l2204:
  3568  0034  0870               	movf	___fltol@f1,w
  3569  0035  00F4               	movwf	??___fltol
  3570  0036  0871               	movf	___fltol@f1+1,w
  3571  0037  00F5               	movwf	??___fltol+1
  3572  0038  0872               	movf	___fltol@f1+2,w
  3573  0039  00F6               	movwf	??___fltol+2
  3574  003A  0873               	movf	___fltol@f1+3,w
  3575  003B  00F7               	movwf	??___fltol+3
  3576  003C  301F               	movlw	31
  3577  003D                     u2685:
  3578  003D  1003               	clrc
  3579  003E  0CF7               	rrf	??___fltol+3,f
  3580  003F  0CF6               	rrf	??___fltol+2,f
  3581  0040  0CF5               	rrf	??___fltol+1,f
  3582  0041  0CF4               	rrf	??___fltol,f
  3583  0042                     u2680:
  3584  0042  3EFF               	addlw	-1
  3585  0043  1D03               	skipz
  3586  0044  283D               	goto	u2685
  3587  0045  0874               	movf	??___fltol,w
  3588  0046  00F8               	movwf	??___fltol+4
  3589  0047  0878               	movf	??___fltol+4,w
  3590  0048  00F9               	movwf	___fltol@sign1
  3591  0049                     l2206:
  3592  0049  17F2               	bsf	___fltol@f1+2,7
  3593  004A                     l2208:
  3594  004A  30FF               	movlw	255
  3595  004B  05F0               	andwf	___fltol@f1,f
  3596  004C  30FF               	movlw	255
  3597  004D  05F1               	andwf	___fltol@f1+1,f
  3598  004E  30FF               	movlw	255
  3599  004F  05F2               	andwf	___fltol@f1+2,f
  3600  0050  3000               	movlw	0
  3601  0051  05F3               	andwf	___fltol@f1+3,f
  3602  0052                     l2210:
  3603  0052  3096               	movlw	150
  3604  0053  02FA               	subwf	___fltol@exp1,f
  3605  0054                     l2212:
  3606  0054  1FFA               	btfss	___fltol@exp1,7
  3607  0055  2857               	goto	u2691
  3608  0056  2858               	goto	u2690
  3609  0057                     u2691:
  3610  0057  2872               	goto	l2222
  3611  0058                     u2690:
  3612  0058                     l2214:
  3613  0058  087A               	movf	___fltol@exp1,w
  3614  0059  3A80               	xorlw	128
  3615  005A  3E97               	addlw	151
  3616  005B  1803               	skipnc
  3617  005C  285E               	goto	u2701
  3618  005D  285F               	goto	u2700
  3619  005E                     u2701:
  3620  005E  2860               	goto	l2220
  3621  005F                     u2700:
  3622  005F  282B               	goto	l2200
  3623  0060                     l2220:
  3624  0060  3001               	movlw	1
  3625  0061                     u2715:
  3626  0061  1003               	clrc
  3627  0062  0CF3               	rrf	___fltol@f1+3,f
  3628  0063  0CF2               	rrf	___fltol@f1+2,f
  3629  0064  0CF1               	rrf	___fltol@f1+1,f
  3630  0065  0CF0               	rrf	___fltol@f1,f
  3631  0066  3EFF               	addlw	-1
  3632  0067  1D03               	skipz
  3633  0068  2861               	goto	u2715
  3634  0069  3001               	movlw	1
  3635  006A  00F4               	movwf	??___fltol
  3636  006B  0874               	movf	??___fltol,w
  3637  006C  07FA               	addwf	___fltol@exp1,f
  3638  006D  1D03               	btfss	3,2
  3639  006E  2870               	goto	u2721
  3640  006F  2871               	goto	u2720
  3641  0070                     u2721:
  3642  0070  2860               	goto	l2220
  3643  0071                     u2720:
  3644  0071  2889               	goto	l2230
  3645  0072                     l2222:
  3646  0072  3020               	movlw	32
  3647  0073  027A               	subwf	___fltol@exp1,w
  3648  0074  1C03               	skipc
  3649  0075  2877               	goto	u2731
  3650  0076  2878               	goto	u2730
  3651  0077                     u2731:
  3652  0077  2884               	goto	l491
  3653  0078                     u2730:
  3654  0078  282B               	goto	l2200
  3655  0079                     l2228:
  3656  0079  3001               	movlw	1
  3657  007A  00F4               	movwf	??___fltol
  3658  007B                     u2745:
  3659  007B  1003               	clrc
  3660  007C  0DF0               	rlf	___fltol@f1,f
  3661  007D  0DF1               	rlf	___fltol@f1+1,f
  3662  007E  0DF2               	rlf	___fltol@f1+2,f
  3663  007F  0DF3               	rlf	___fltol@f1+3,f
  3664  0080  0BF4               	decfsz	??___fltol,f
  3665  0081  287B               	goto	u2745
  3666  0082  3001               	movlw	1
  3667  0083  02FA               	subwf	___fltol@exp1,f
  3668  0084                     l491:
  3669  0084  087A               	movf	___fltol@exp1,w
  3670  0085  1D03               	btfss	3,2
  3671  0086  2888               	goto	u2751
  3672  0087  2889               	goto	u2750
  3673  0088                     u2751:
  3674  0088  2879               	goto	l2228
  3675  0089                     u2750:
  3676  0089                     l2230:
  3677  0089  0879               	movf	___fltol@sign1,w
  3678  008A  1903               	btfsc	3,2
  3679  008B  288D               	goto	u2761
  3680  008C  288E               	goto	u2760
  3681  008D                     u2761:
  3682  008D  2899               	goto	l494
  3683  008E                     u2760:
  3684  008E                     l2232:
  3685  008E  09F0               	comf	___fltol@f1,f
  3686  008F  09F1               	comf	___fltol@f1+1,f
  3687  0090  09F2               	comf	___fltol@f1+2,f
  3688  0091  09F3               	comf	___fltol@f1+3,f
  3689  0092  0AF0               	incf	___fltol@f1,f
  3690  0093  1903               	skipnz
  3691  0094  0AF1               	incf	___fltol@f1+1,f
  3692  0095  1903               	skipnz
  3693  0096  0AF2               	incf	___fltol@f1+2,f
  3694  0097  1903               	skipnz
  3695  0098  0AF3               	incf	___fltol@f1+3,f
  3696  0099                     l494:
  3697  0099                     l484:
  3698  0099  0008               	return
  3699  009A                     __end_of___fltol:
  3700                           
  3701                           	psect	text8
  3702  1518                     __ptext8:	
  3703 ;; *************** function ___flsub *****************
  3704 ;; Defined at:
  3705 ;;		line 242 in file "C:\Program Files\Microchip\xc8\v2.31\pic\sources\c90\common\sprcadd.c"
  3706 ;; Parameters:    Size  Location     Type
  3707 ;;  a               4   18[BANK0 ] long 
  3708 ;;  b               4   22[BANK0 ] long 
  3709 ;; Auto vars:     Size  Location     Type
  3710 ;;		None
  3711 ;; Return value:  Size  Location     Type
  3712 ;;                  4   18[BANK0 ] long 
  3713 ;; Registers used:
  3714 ;;		wreg, status,2, status,0, btemp+1, pclath, cstack
  3715 ;; Tracked objects:
  3716 ;;		On entry : 0/0
  3717 ;;		On exit  : 0/0
  3718 ;;		Unchanged: 0/0
  3719 ;; Data sizes:     COMMON   BANK0   BANK1   BANK3   BANK2
  3720 ;;      Params:         0       8       0       0       0
  3721 ;;      Locals:         0       0       0       0       0
  3722 ;;      Temps:          0       0       0       0       0
  3723 ;;      Totals:         0       8       0       0       0
  3724 ;;Total ram usage:        8 bytes
  3725 ;; Hardware stack levels used:    1
  3726 ;; Hardware stack levels required when called:    1
  3727 ;; This function calls:
  3728 ;;		___fladd
  3729 ;; This function is called by:
  3730 ;;		_convert
  3731 ;; This function uses a non-reentrant model
  3732 ;;
  3733                           
  3734                           
  3735                           ;psect for function ___flsub
  3736  1518                     ___flsub:
  3737  1518                     l2234:	
  3738                           ;incstack = 0
  3739                           ; Regs used in ___flsub: [wreg+status,2+status,0+btemp+1+pclath+cstack]
  3740                           
  3741  1518  3080               	movlw	128
  3742  1519  1283               	bcf	3,5	;RP0=0, select bank0
  3743  151A  1303               	bcf	3,6	;RP1=0, select bank0
  3744  151B  06B5               	xorwf	___flsub@a+3,f
  3745  151C                     l2236:
  3746  151C  0839               	movf	___flsub@b+3,w
  3747  151D  00F3               	movwf	___fladd@b+3
  3748  151E  0838               	movf	___flsub@b+2,w
  3749  151F  00F2               	movwf	___fladd@b+2
  3750  1520  0837               	movf	___flsub@b+1,w
  3751  1521  00F1               	movwf	___fladd@b+1
  3752  1522  0836               	movf	___flsub@b,w
  3753  1523  00F0               	movwf	___fladd@b
  3754  1524  0835               	movf	___flsub@a+3,w
  3755  1525  00F7               	movwf	___fladd@a+3
  3756  1526  0834               	movf	___flsub@a+2,w
  3757  1527  00F6               	movwf	___fladd@a+2
  3758  1528  0833               	movf	___flsub@a+1,w
  3759  1529  00F5               	movwf	___fladd@a+1
  3760  152A  0832               	movf	___flsub@a,w
  3761  152B  00F4               	movwf	___fladd@a
  3762  152C  120A  158A  228D  160A  118A  	fcall	___fladd
  3763  1531  0873               	movf	?___fladd+3,w
  3764  1532  1283               	bcf	3,5	;RP0=0, select bank0
  3765  1533  1303               	bcf	3,6	;RP1=0, select bank0
  3766  1534  00B5               	movwf	?___flsub+3
  3767  1535  0872               	movf	?___fladd+2,w
  3768  1536  00B4               	movwf	?___flsub+2
  3769  1537  0871               	movf	?___fladd+1,w
  3770  1538  00B3               	movwf	?___flsub+1
  3771  1539  0870               	movf	?___fladd,w
  3772  153A  00B2               	movwf	?___flsub
  3773  153B                     l637:
  3774  153B  0008               	return
  3775  153C                     __end_of___flsub:
  3776                           
  3777                           	psect	text9
  3778  0A8D                     __ptext9:	
  3779 ;; *************** function ___fladd *****************
  3780 ;; Defined at:
  3781 ;;		line 10 in file "C:\Program Files\Microchip\xc8\v2.31\pic\sources\c90\common\sprcadd.c"
  3782 ;; Parameters:    Size  Location     Type
  3783 ;;  b               4    0[COMMON] long 
  3784 ;;  a               4    4[COMMON] long 
  3785 ;; Auto vars:     Size  Location     Type
  3786 ;;  grs             1   11[COMMON] unsigned char 
  3787 ;;  bexp            1   10[COMMON] unsigned char 
  3788 ;;  aexp            1    9[COMMON] unsigned char 
  3789 ;;  signs           1    8[COMMON] unsigned char 
  3790 ;; Return value:  Size  Location     Type
  3791 ;;                  4    0[COMMON] unsigned char 
  3792 ;; Registers used:
  3793 ;;		wreg, status,2, status,0, btemp+1
  3794 ;; Tracked objects:
  3795 ;;		On entry : 0/0
  3796 ;;		On exit  : 0/0
  3797 ;;		Unchanged: 0/0
  3798 ;; Data sizes:     COMMON   BANK0   BANK1   BANK3   BANK2
  3799 ;;      Params:         8       0       0       0       0
  3800 ;;      Locals:         4       0       0       0       0
  3801 ;;      Temps:          0       8       0       0       0
  3802 ;;      Totals:        12       8       0       0       0
  3803 ;;Total ram usage:       20 bytes
  3804 ;; Hardware stack levels used:    1
  3805 ;; This function calls:
  3806 ;;		Nothing
  3807 ;; This function is called by:
  3808 ;;		___flsub
  3809 ;; This function uses a non-reentrant model
  3810 ;;
  3811                           
  3812                           
  3813                           ;psect for function ___fladd
  3814  0A8D                     ___fladd:
  3815  0A8D                     l1876:	
  3816                           ;incstack = 0
  3817                           ; Regs used in ___fladd: [wreg+status,2+status,0+btemp+1]
  3818                           
  3819  0A8D  0873               	movf	___fladd@b+3,w
  3820  0A8E  3980               	andlw	128
  3821  0A8F  1283               	bcf	3,5	;RP0=0, select bank0
  3822  0A90  1303               	bcf	3,6	;RP1=0, select bank0
  3823  0A91  00A0               	movwf	??___fladd
  3824  0A92  0820               	movf	??___fladd,w
  3825  0A93  00F8               	movwf	___fladd@signs
  3826  0A94                     l1878:
  3827  0A94  0873               	movf	___fladd@b+3,w
  3828  0A95  00A0               	movwf	??___fladd
  3829  0A96  0720               	addwf	??___fladd,w
  3830  0A97  00A1               	movwf	??___fladd+1
  3831  0A98  0821               	movf	??___fladd+1,w
  3832  0A99  00FA               	movwf	___fladd@bexp
  3833  0A9A                     l1880:
  3834  0A9A  1FF2               	btfss	___fladd@b+2,7
  3835  0A9B  2A9D               	goto	u1941
  3836  0A9C  2A9E               	goto	u1940
  3837  0A9D                     u1941:
  3838  0A9D  2A9F               	goto	l1884
  3839  0A9E                     u1940:
  3840  0A9E                     l1882:
  3841  0A9E  147A               	bsf	___fladd@bexp,0
  3842  0A9F                     l1884:
  3843  0A9F  087A               	movf	___fladd@bexp,w
  3844  0AA0  1903               	btfsc	3,2
  3845  0AA1  2AA3               	goto	u1951
  3846  0AA2  2AA4               	goto	u1950
  3847  0AA3                     u1951:
  3848  0AA3  2AB4               	goto	l1894
  3849  0AA4                     u1950:
  3850  0AA4                     l1886:
  3851  0AA4  0A7A               	incf	___fladd@bexp,w
  3852  0AA5  1D03               	btfss	3,2
  3853  0AA6  2AA8               	goto	u1961
  3854  0AA7  2AA9               	goto	u1960
  3855  0AA8                     u1961:
  3856  0AA8  2AB1               	goto	l1890
  3857  0AA9                     u1960:
  3858  0AA9                     l1888:
  3859  0AA9  3000               	movlw	0
  3860  0AAA  00F3               	movwf	___fladd@b+3
  3861  0AAB  3000               	movlw	0
  3862  0AAC  00F2               	movwf	___fladd@b+2
  3863  0AAD  3000               	movlw	0
  3864  0AAE  00F1               	movwf	___fladd@b+1
  3865  0AAF  3000               	movlw	0
  3866  0AB0  00F0               	movwf	___fladd@b
  3867  0AB1                     l1890:
  3868  0AB1  17F2               	bsf	___fladd@b+2,7
  3869  0AB2                     l1892:
  3870  0AB2  01F3               	clrf	___fladd@b+3
  3871  0AB3  2ABC               	goto	l1896
  3872  0AB4                     l1894:
  3873  0AB4  3000               	movlw	0
  3874  0AB5  00F3               	movwf	___fladd@b+3
  3875  0AB6  3000               	movlw	0
  3876  0AB7  00F2               	movwf	___fladd@b+2
  3877  0AB8  3000               	movlw	0
  3878  0AB9  00F1               	movwf	___fladd@b+1
  3879  0ABA  3000               	movlw	0
  3880  0ABB  00F0               	movwf	___fladd@b
  3881  0ABC                     l1896:
  3882  0ABC  0877               	movf	___fladd@a+3,w
  3883  0ABD  3980               	andlw	128
  3884  0ABE  00A0               	movwf	??___fladd
  3885  0ABF  0820               	movf	??___fladd,w
  3886  0AC0  00F9               	movwf	___fladd@aexp
  3887  0AC1                     l1898:
  3888  0AC1  0879               	movf	___fladd@aexp,w
  3889  0AC2  0678               	xorwf	___fladd@signs,w
  3890  0AC3  1903               	skipnz
  3891  0AC4  2AC6               	goto	u1971
  3892  0AC5  2AC7               	goto	u1970
  3893  0AC6                     u1971:
  3894  0AC6  2AC8               	goto	l1902
  3895  0AC7                     u1970:
  3896  0AC7                     l1900:
  3897  0AC7  1778               	bsf	___fladd@signs,6
  3898  0AC8                     l1902:
  3899  0AC8  0877               	movf	___fladd@a+3,w
  3900  0AC9  00A0               	movwf	??___fladd
  3901  0ACA  0720               	addwf	??___fladd,w
  3902  0ACB  00A1               	movwf	??___fladd+1
  3903  0ACC  0821               	movf	??___fladd+1,w
  3904  0ACD  00F9               	movwf	___fladd@aexp
  3905  0ACE                     l1904:
  3906  0ACE  1FF6               	btfss	___fladd@a+2,7
  3907  0ACF  2AD1               	goto	u1981
  3908  0AD0  2AD2               	goto	u1980
  3909  0AD1                     u1981:
  3910  0AD1  2AD3               	goto	l1908
  3911  0AD2                     u1980:
  3912  0AD2                     l1906:
  3913  0AD2  1479               	bsf	___fladd@aexp,0
  3914  0AD3                     l1908:
  3915  0AD3  0879               	movf	___fladd@aexp,w
  3916  0AD4  1903               	btfsc	3,2
  3917  0AD5  2AD7               	goto	u1991
  3918  0AD6  2AD8               	goto	u1990
  3919  0AD7                     u1991:
  3920  0AD7  2AE8               	goto	l1918
  3921  0AD8                     u1990:
  3922  0AD8                     l1910:
  3923  0AD8  0A79               	incf	___fladd@aexp,w
  3924  0AD9  1D03               	btfss	3,2
  3925  0ADA  2ADC               	goto	u2001
  3926  0ADB  2ADD               	goto	u2000
  3927  0ADC                     u2001:
  3928  0ADC  2AE5               	goto	l1914
  3929  0ADD                     u2000:
  3930  0ADD                     l1912:
  3931  0ADD  3000               	movlw	0
  3932  0ADE  00F7               	movwf	___fladd@a+3
  3933  0ADF  3000               	movlw	0
  3934  0AE0  00F6               	movwf	___fladd@a+2
  3935  0AE1  3000               	movlw	0
  3936  0AE2  00F5               	movwf	___fladd@a+1
  3937  0AE3  3000               	movlw	0
  3938  0AE4  00F4               	movwf	___fladd@a
  3939  0AE5                     l1914:
  3940  0AE5  17F6               	bsf	___fladd@a+2,7
  3941  0AE6                     l1916:
  3942  0AE6  01F7               	clrf	___fladd@a+3
  3943  0AE7  2AF0               	goto	l591
  3944  0AE8                     l1918:
  3945  0AE8  3000               	movlw	0
  3946  0AE9  00F7               	movwf	___fladd@a+3
  3947  0AEA  3000               	movlw	0
  3948  0AEB  00F6               	movwf	___fladd@a+2
  3949  0AEC  3000               	movlw	0
  3950  0AED  00F5               	movwf	___fladd@a+1
  3951  0AEE  3000               	movlw	0
  3952  0AEF  00F4               	movwf	___fladd@a
  3953  0AF0                     l591:
  3954  0AF0  087A               	movf	___fladd@bexp,w
  3955  0AF1  0279               	subwf	___fladd@aexp,w
  3956  0AF2  1803               	skipnc
  3957  0AF3  2AF5               	goto	u2011
  3958  0AF4  2AF6               	goto	u2010
  3959  0AF5                     u2011:
  3960  0AF5  2B3A               	goto	l1954
  3961  0AF6                     u2010:
  3962  0AF6                     l1920:
  3963  0AF6  1F78               	btfss	___fladd@signs,6
  3964  0AF7  2AF9               	goto	u2021
  3965  0AF8  2AFA               	goto	u2020
  3966  0AF9                     u2021:
  3967  0AF9  2AFE               	goto	l1924
  3968  0AFA                     u2020:
  3969  0AFA                     l1922:
  3970  0AFA  3080               	movlw	128
  3971  0AFB  00A0               	movwf	??___fladd
  3972  0AFC  0820               	movf	??___fladd,w
  3973  0AFD  06F8               	xorwf	___fladd@signs,f
  3974  0AFE                     l1924:
  3975  0AFE  087A               	movf	___fladd@bexp,w
  3976  0AFF  00A0               	movwf	??___fladd
  3977  0B00  0820               	movf	??___fladd,w
  3978  0B01  00FB               	movwf	___fladd@grs
  3979  0B02                     l1926:
  3980  0B02  0879               	movf	___fladd@aexp,w
  3981  0B03  00A0               	movwf	??___fladd
  3982  0B04  0820               	movf	??___fladd,w
  3983  0B05  00FA               	movwf	___fladd@bexp
  3984  0B06                     l1928:
  3985  0B06  087B               	movf	___fladd@grs,w
  3986  0B07  00A0               	movwf	??___fladd
  3987  0B08  0820               	movf	??___fladd,w
  3988  0B09  00F9               	movwf	___fladd@aexp
  3989  0B0A                     l1930:
  3990  0B0A  0870               	movf	___fladd@b,w
  3991  0B0B  00A0               	movwf	??___fladd
  3992  0B0C  0820               	movf	??___fladd,w
  3993  0B0D  00FB               	movwf	___fladd@grs
  3994  0B0E                     l1932:
  3995  0B0E  0874               	movf	___fladd@a,w
  3996  0B0F  00A0               	movwf	??___fladd
  3997  0B10  0820               	movf	??___fladd,w
  3998  0B11  00F0               	movwf	___fladd@b
  3999  0B12                     l1934:
  4000  0B12  087B               	movf	___fladd@grs,w
  4001  0B13  00A0               	movwf	??___fladd
  4002  0B14  0820               	movf	??___fladd,w
  4003  0B15  00F4               	movwf	___fladd@a
  4004  0B16                     l1936:
  4005  0B16  0871               	movf	___fladd@b+1,w
  4006  0B17  00A0               	movwf	??___fladd
  4007  0B18  0820               	movf	??___fladd,w
  4008  0B19  00FB               	movwf	___fladd@grs
  4009  0B1A                     l1938:
  4010  0B1A  0875               	movf	___fladd@a+1,w
  4011  0B1B  00A0               	movwf	??___fladd
  4012  0B1C  0820               	movf	??___fladd,w
  4013  0B1D  00F1               	movwf	___fladd@b+1
  4014  0B1E                     l1940:
  4015  0B1E  087B               	movf	___fladd@grs,w
  4016  0B1F  00A0               	movwf	??___fladd
  4017  0B20  0820               	movf	??___fladd,w
  4018  0B21  00F5               	movwf	___fladd@a+1
  4019  0B22                     l1942:
  4020  0B22  0872               	movf	___fladd@b+2,w
  4021  0B23  00A0               	movwf	??___fladd
  4022  0B24  0820               	movf	??___fladd,w
  4023  0B25  00FB               	movwf	___fladd@grs
  4024  0B26                     l1944:
  4025  0B26  0876               	movf	___fladd@a+2,w
  4026  0B27  00A0               	movwf	??___fladd
  4027  0B28  0820               	movf	??___fladd,w
  4028  0B29  00F2               	movwf	___fladd@b+2
  4029  0B2A                     l1946:
  4030  0B2A  087B               	movf	___fladd@grs,w
  4031  0B2B  00A0               	movwf	??___fladd
  4032  0B2C  0820               	movf	??___fladd,w
  4033  0B2D  00F6               	movwf	___fladd@a+2
  4034  0B2E                     l1948:
  4035  0B2E  0873               	movf	___fladd@b+3,w
  4036  0B2F  00A0               	movwf	??___fladd
  4037  0B30  0820               	movf	??___fladd,w
  4038  0B31  00FB               	movwf	___fladd@grs
  4039  0B32                     l1950:
  4040  0B32  0877               	movf	___fladd@a+3,w
  4041  0B33  00A0               	movwf	??___fladd
  4042  0B34  0820               	movf	??___fladd,w
  4043  0B35  00F3               	movwf	___fladd@b+3
  4044  0B36                     l1952:
  4045  0B36  087B               	movf	___fladd@grs,w
  4046  0B37  00A0               	movwf	??___fladd
  4047  0B38  0820               	movf	??___fladd,w
  4048  0B39  00F7               	movwf	___fladd@a+3
  4049  0B3A                     l1954:
  4050  0B3A  01FB               	clrf	___fladd@grs
  4051  0B3B                     l1956:
  4052  0B3B  0879               	movf	___fladd@aexp,w
  4053  0B3C  00A0               	movwf	??___fladd
  4054  0B3D  01A1               	clrf	??___fladd+1
  4055  0B3E  0821               	movf	??___fladd+1,w
  4056  0B3F  00A3               	movwf	??___fladd+3
  4057  0B40  087A               	movf	___fladd@bexp,w
  4058  0B41  0220               	subwf	??___fladd,w
  4059  0B42  00A2               	movwf	??___fladd+2
  4060  0B43  1C03               	skipc
  4061  0B44  03A3               	decf	??___fladd+3,f
  4062  0B45  0823               	movf	??___fladd+3,w
  4063  0B46  3A80               	xorlw	128
  4064  0B47  00FF               	movwf	btemp+1
  4065  0B48  3080               	movlw	128
  4066  0B49  027F               	subwf	btemp+1,w
  4067  0B4A  1D03               	skipz
  4068  0B4B  2B4E               	goto	u2035
  4069  0B4C  301A               	movlw	26
  4070  0B4D  0222               	subwf	??___fladd+2,w
  4071  0B4E                     u2035:
  4072  0B4E  1C03               	skipc
  4073  0B4F  2B51               	goto	u2031
  4074  0B50  2B52               	goto	u2030
  4075  0B51                     u2031:
  4076  0B51  2B93               	goto	l1972
  4077  0B52                     u2030:
  4078  0B52                     l1958:
  4079  0B52  0873               	movf	___fladd@b+3,w
  4080  0B53  0472               	iorwf	___fladd@b+2,w
  4081  0B54  0471               	iorwf	___fladd@b+1,w
  4082  0B55  0470               	iorwf	___fladd@b,w
  4083  0B56  1D03               	skipz
  4084  0B57  2B59               	goto	u2041
  4085  0B58  2B5B               	goto	u2040
  4086  0B59                     u2041:
  4087  0B59  3001               	movlw	1
  4088  0B5A  2B5C               	goto	u2050
  4089  0B5B                     u2040:
  4090  0B5B  3000               	movlw	0
  4091  0B5C                     u2050:
  4092  0B5C  1283               	bcf	3,5	;RP0=0, select bank0
  4093  0B5D  1303               	bcf	3,6	;RP1=0, select bank0
  4094  0B5E  00A0               	movwf	??___fladd
  4095  0B5F  0820               	movf	??___fladd,w
  4096  0B60  00FB               	movwf	___fladd@grs
  4097  0B61  3000               	movlw	0
  4098  0B62  00F3               	movwf	___fladd@b+3
  4099  0B63  3000               	movlw	0
  4100  0B64  00F2               	movwf	___fladd@b+2
  4101  0B65  3000               	movlw	0
  4102  0B66  00F1               	movwf	___fladd@b+1
  4103  0B67  3000               	movlw	0
  4104  0B68  00F0               	movwf	___fladd@b
  4105  0B69  0879               	movf	___fladd@aexp,w
  4106  0B6A  00A0               	movwf	??___fladd
  4107  0B6B  0820               	movf	??___fladd,w
  4108  0B6C  00FA               	movwf	___fladd@bexp
  4109  0B6D  2B99               	goto	l595
  4110  0B6E                     l597:
  4111  0B6E  1C7B               	btfss	___fladd@grs,0
  4112  0B6F  2B71               	goto	u2061
  4113  0B70  2B72               	goto	u2060
  4114  0B71                     u2061:
  4115  0B71  2B7D               	goto	l1962
  4116  0B72                     u2060:
  4117  0B72                     l1960:
  4118  0B72  087B               	movf	___fladd@grs,w
  4119  0B73  1283               	bcf	3,5	;RP0=0, select bank0
  4120  0B74  1303               	bcf	3,6	;RP1=0, select bank0
  4121  0B75  00A0               	movwf	??___fladd
  4122  0B76  1003               	clrc
  4123  0B77  0C20               	rrf	??___fladd,w
  4124  0B78  3801               	iorlw	1
  4125  0B79  00A1               	movwf	??___fladd+1
  4126  0B7A  0821               	movf	??___fladd+1,w
  4127  0B7B  00FB               	movwf	___fladd@grs
  4128  0B7C  2B7F               	goto	l1964
  4129  0B7D                     l1962:
  4130  0B7D  1003               	clrc
  4131  0B7E  0CFB               	rrf	___fladd@grs,f
  4132  0B7F                     l1964:
  4133  0B7F  1C70               	btfss	___fladd@b,0
  4134  0B80  2B82               	goto	u2071
  4135  0B81  2B83               	goto	u2070
  4136  0B82                     u2071:
  4137  0B82  2B84               	goto	l1968
  4138  0B83                     u2070:
  4139  0B83                     l1966:
  4140  0B83  17FB               	bsf	___fladd@grs,7
  4141  0B84                     l1968:
  4142  0B84  3001               	movlw	1
  4143  0B85  1283               	bcf	3,5	;RP0=0, select bank0
  4144  0B86  1303               	bcf	3,6	;RP1=0, select bank0
  4145  0B87  00A0               	movwf	??___fladd
  4146  0B88                     u2085:
  4147  0B88  0D73               	rlf	___fladd@b+3,w
  4148  0B89  0CF3               	rrf	___fladd@b+3,f
  4149  0B8A  0CF2               	rrf	___fladd@b+2,f
  4150  0B8B  0CF1               	rrf	___fladd@b+1,f
  4151  0B8C  0CF0               	rrf	___fladd@b,f
  4152  0B8D  0BA0               	decfsz	??___fladd& (0+127),f
  4153  0B8E  2B88               	goto	u2085
  4154  0B8F                     l1970:
  4155  0B8F  3001               	movlw	1
  4156  0B90  00A0               	movwf	??___fladd
  4157  0B91  0820               	movf	??___fladd,w
  4158  0B92  07FA               	addwf	___fladd@bexp,f
  4159  0B93                     l1972:
  4160  0B93  0879               	movf	___fladd@aexp,w
  4161  0B94  027A               	subwf	___fladd@bexp,w
  4162  0B95  1C03               	skipc
  4163  0B96  2B98               	goto	u2091
  4164  0B97  2B99               	goto	u2090
  4165  0B98                     u2091:
  4166  0B98  2B6E               	goto	l597
  4167  0B99                     u2090:
  4168  0B99                     l595:
  4169  0B99  1B78               	btfsc	___fladd@signs,6
  4170  0B9A  2B9C               	goto	u2101
  4171  0B9B  2B9D               	goto	u2100
  4172  0B9C                     u2101:
  4173  0B9C  2BEC               	goto	l1998
  4174  0B9D                     u2100:
  4175  0B9D                     l1974:
  4176  0B9D  087A               	movf	___fladd@bexp,w
  4177  0B9E  1D03               	btfss	3,2
  4178  0B9F  2BA1               	goto	u2111
  4179  0BA0  2BA2               	goto	u2110
  4180  0BA1                     u2111:
  4181  0BA1  2BAB               	goto	l1980
  4182  0BA2                     u2110:
  4183  0BA2                     l1976:
  4184  0BA2  3000               	movlw	0
  4185  0BA3  00F3               	movwf	?___fladd+3
  4186  0BA4  3000               	movlw	0
  4187  0BA5  00F2               	movwf	?___fladd+2
  4188  0BA6  3000               	movlw	0
  4189  0BA7  00F1               	movwf	?___fladd+1
  4190  0BA8  3000               	movlw	0
  4191  0BA9  00F0               	movwf	?___fladd
  4192  0BAA  2D24               	goto	l604
  4193  0BAB                     l1980:
  4194  0BAB  0874               	movf	___fladd@a,w
  4195  0BAC  07F0               	addwf	___fladd@b,f
  4196  0BAD  0875               	movf	___fladd@a+1,w
  4197  0BAE  1103               	clrz
  4198  0BAF  1803               	skipnc
  4199  0BB0  3E01               	addlw	1
  4200  0BB1  1903               	skipnz
  4201  0BB2  2BB4               	goto	u2121
  4202  0BB3  07F1               	addwf	___fladd@b+1,f
  4203  0BB4                     u2121:
  4204  0BB4  0876               	movf	___fladd@a+2,w
  4205  0BB5  1103               	clrz
  4206  0BB6  1803               	skipnc
  4207  0BB7  3E01               	addlw	1
  4208  0BB8  1903               	skipnz
  4209  0BB9  2BBB               	goto	u2122
  4210  0BBA  07F2               	addwf	___fladd@b+2,f
  4211  0BBB                     u2122:
  4212  0BBB  0877               	movf	___fladd@a+3,w
  4213  0BBC  1103               	clrz
  4214  0BBD  1803               	skipnc
  4215  0BBE  3E01               	addlw	1
  4216  0BBF  1903               	skipnz
  4217  0BC0  2BC2               	goto	u2123
  4218  0BC1  07F3               	addwf	___fladd@b+3,f
  4219  0BC2                     u2123:
  4220  0BC2                     l1982:
  4221  0BC2  1C73               	btfss	___fladd@b+3,0
  4222  0BC3  2BC5               	goto	u2131
  4223  0BC4  2BC6               	goto	u2130
  4224  0BC5                     u2131:
  4225  0BC5  2CA4               	goto	l2032
  4226  0BC6                     u2130:
  4227  0BC6                     l1984:
  4228  0BC6  1C7B               	btfss	___fladd@grs,0
  4229  0BC7  2BC9               	goto	u2141
  4230  0BC8  2BCA               	goto	u2140
  4231  0BC9                     u2141:
  4232  0BC9  2BD5               	goto	l1988
  4233  0BCA                     u2140:
  4234  0BCA                     l1986:
  4235  0BCA  087B               	movf	___fladd@grs,w
  4236  0BCB  1283               	bcf	3,5	;RP0=0, select bank0
  4237  0BCC  1303               	bcf	3,6	;RP1=0, select bank0
  4238  0BCD  00A0               	movwf	??___fladd
  4239  0BCE  1003               	clrc
  4240  0BCF  0C20               	rrf	??___fladd,w
  4241  0BD0  3801               	iorlw	1
  4242  0BD1  00A1               	movwf	??___fladd+1
  4243  0BD2  0821               	movf	??___fladd+1,w
  4244  0BD3  00FB               	movwf	___fladd@grs
  4245  0BD4  2BD7               	goto	l1990
  4246  0BD5                     l1988:
  4247  0BD5  1003               	clrc
  4248  0BD6  0CFB               	rrf	___fladd@grs,f
  4249  0BD7                     l1990:
  4250  0BD7  1C70               	btfss	___fladd@b,0
  4251  0BD8  2BDA               	goto	u2151
  4252  0BD9  2BDB               	goto	u2150
  4253  0BDA                     u2151:
  4254  0BDA  2BDC               	goto	l1994
  4255  0BDB                     u2150:
  4256  0BDB                     l1992:
  4257  0BDB  17FB               	bsf	___fladd@grs,7
  4258  0BDC                     l1994:
  4259  0BDC  3001               	movlw	1
  4260  0BDD  1283               	bcf	3,5	;RP0=0, select bank0
  4261  0BDE  1303               	bcf	3,6	;RP1=0, select bank0
  4262  0BDF  00A0               	movwf	??___fladd
  4263  0BE0                     u2165:
  4264  0BE0  0D73               	rlf	___fladd@b+3,w
  4265  0BE1  0CF3               	rrf	___fladd@b+3,f
  4266  0BE2  0CF2               	rrf	___fladd@b+2,f
  4267  0BE3  0CF1               	rrf	___fladd@b+1,f
  4268  0BE4  0CF0               	rrf	___fladd@b,f
  4269  0BE5  0BA0               	decfsz	??___fladd& (0+127),f
  4270  0BE6  2BE0               	goto	u2165
  4271  0BE7                     l1996:
  4272  0BE7  3001               	movlw	1
  4273  0BE8  00A0               	movwf	??___fladd
  4274  0BE9  0820               	movf	??___fladd,w
  4275  0BEA  07FA               	addwf	___fladd@bexp,f
  4276  0BEB  2CA4               	goto	l2032
  4277  0BEC                     l1998:
  4278  0BEC  0873               	movf	___fladd@b+3,w
  4279  0BED  3A80               	xorlw	128
  4280  0BEE  00FF               	movwf	btemp+1
  4281  0BEF  0877               	movf	___fladd@a+3,w
  4282  0BF0  3A80               	xorlw	128
  4283  0BF1  027F               	subwf	btemp+1,w
  4284  0BF2  1D03               	skipz
  4285  0BF3  2BFE               	goto	u2173
  4286  0BF4  0876               	movf	___fladd@a+2,w
  4287  0BF5  0272               	subwf	___fladd@b+2,w
  4288  0BF6  1D03               	skipz
  4289  0BF7  2BFE               	goto	u2173
  4290  0BF8  0875               	movf	___fladd@a+1,w
  4291  0BF9  0271               	subwf	___fladd@b+1,w
  4292  0BFA  1D03               	skipz
  4293  0BFB  2BFE               	goto	u2173
  4294  0BFC  0874               	movf	___fladd@a,w
  4295  0BFD  0270               	subwf	___fladd@b,w
  4296  0BFE                     u2173:
  4297  0BFE  1803               	skipnc
  4298  0BFF  2C01               	goto	u2171
  4299  0C00  2C02               	goto	u2170
  4300  0C01                     u2171:
  4301  0C01  2C5C               	goto	l2008
  4302  0C02                     u2170:
  4303  0C02                     l2000:
  4304  0C02  30FF               	movlw	255
  4305  0C03  1283               	bcf	3,5	;RP0=0, select bank0
  4306  0C04  1303               	bcf	3,6	;RP1=0, select bank0
  4307  0C05  00A0               	movwf	??___fladd
  4308  0C06  30FF               	movlw	255
  4309  0C07  00A1               	movwf	??___fladd+1
  4310  0C08  30FF               	movlw	255
  4311  0C09  00A2               	movwf	??___fladd+2
  4312  0C0A  30FF               	movlw	255
  4313  0C0B  00A3               	movwf	??___fladd+3
  4314  0C0C  0874               	movf	___fladd@a,w
  4315  0C0D  00A4               	movwf	??___fladd+4
  4316  0C0E  0875               	movf	___fladd@a+1,w
  4317  0C0F  00A5               	movwf	??___fladd+5
  4318  0C10  0876               	movf	___fladd@a+2,w
  4319  0C11  00A6               	movwf	??___fladd+6
  4320  0C12  0877               	movf	___fladd@a+3,w
  4321  0C13  00A7               	movwf	??___fladd+7
  4322  0C14  0870               	movf	___fladd@b,w
  4323  0C15  02A4               	subwf	??___fladd+4,f
  4324  0C16  0871               	movf	___fladd@b+1,w
  4325  0C17  1C03               	skipc
  4326  0C18  0F71               	incfsz	___fladd@b+1,w
  4327  0C19  2C1B               	goto	u2181
  4328  0C1A  2C1C               	goto	u2182
  4329  0C1B                     u2181:
  4330  0C1B  02A5               	subwf	??___fladd+5,f
  4331  0C1C                     u2182:
  4332  0C1C  0872               	movf	___fladd@b+2,w
  4333  0C1D  1C03               	skipc
  4334  0C1E  0F72               	incfsz	___fladd@b+2,w
  4335  0C1F  2C21               	goto	u2183
  4336  0C20  2C22               	goto	u2184
  4337  0C21                     u2183:
  4338  0C21  02A6               	subwf	??___fladd+6,f
  4339  0C22                     u2184:
  4340  0C22  0873               	movf	___fladd@b+3,w
  4341  0C23  1C03               	skipc
  4342  0C24  0F73               	incfsz	___fladd@b+3,w
  4343  0C25  2C27               	goto	u2185
  4344  0C26  2C28               	goto	u2186
  4345  0C27                     u2185:
  4346  0C27  02A7               	subwf	??___fladd+7,f
  4347  0C28                     u2186:
  4348  0C28  0824               	movf	??___fladd+4,w
  4349  0C29  07A0               	addwf	??___fladd,f
  4350  0C2A  0825               	movf	??___fladd+5,w
  4351  0C2B  1803               	skipnc
  4352  0C2C  0F25               	incfsz	??___fladd+5,w
  4353  0C2D  2C2F               	goto	u2190
  4354  0C2E  2C30               	goto	u2191
  4355  0C2F                     u2190:
  4356  0C2F  07A1               	addwf	??___fladd+1,f
  4357  0C30                     u2191:
  4358  0C30  0826               	movf	??___fladd+6,w
  4359  0C31  1803               	skipnc
  4360  0C32  0F26               	incfsz	??___fladd+6,w
  4361  0C33  2C35               	goto	u2192
  4362  0C34  2C36               	goto	u2193
  4363  0C35                     u2192:
  4364  0C35  07A2               	addwf	??___fladd+2,f
  4365  0C36                     u2193:
  4366  0C36  0827               	movf	??___fladd+7,w
  4367  0C37  1803               	skipnc
  4368  0C38  0A27               	incf	??___fladd+7,w
  4369  0C39  07A3               	addwf	??___fladd+3,f
  4370  0C3A  0823               	movf	??___fladd+3,w
  4371  0C3B  00F3               	movwf	___fladd@b+3
  4372  0C3C  0822               	movf	??___fladd+2,w
  4373  0C3D  00F2               	movwf	___fladd@b+2
  4374  0C3E  0821               	movf	??___fladd+1,w
  4375  0C3F  00F1               	movwf	___fladd@b+1
  4376  0C40  0820               	movf	??___fladd,w
  4377  0C41  00F0               	movwf	___fladd@b
  4378  0C42                     l2002:
  4379  0C42  3080               	movlw	128
  4380  0C43  00A0               	movwf	??___fladd
  4381  0C44  0820               	movf	??___fladd,w
  4382  0C45  06F8               	xorwf	___fladd@signs,f
  4383  0C46  09FB               	comf	___fladd@grs,f
  4384  0C47  0AFB               	incf	___fladd@grs,f
  4385  0C48                     l2004:
  4386  0C48  087B               	movf	___fladd@grs,w
  4387  0C49  1D03               	btfss	3,2
  4388  0C4A  2C4C               	goto	u2201
  4389  0C4B  2C4D               	goto	u2200
  4390  0C4C                     u2201:
  4391  0C4C  2C6A               	goto	l612
  4392  0C4D                     u2200:
  4393  0C4D                     l2006:
  4394  0C4D  3001               	movlw	1
  4395  0C4E  07F0               	addwf	___fladd@b,f
  4396  0C4F  3000               	movlw	0
  4397  0C50  1803               	skipnc
  4398  0C51  3001               	movlw	1
  4399  0C52  07F1               	addwf	___fladd@b+1,f
  4400  0C53  3000               	movlw	0
  4401  0C54  1803               	skipnc
  4402  0C55  3001               	movlw	1
  4403  0C56  07F2               	addwf	___fladd@b+2,f
  4404  0C57  3000               	movlw	0
  4405  0C58  1803               	skipnc
  4406  0C59  3001               	movlw	1
  4407  0C5A  07F3               	addwf	___fladd@b+3,f
  4408  0C5B  2C6A               	goto	l612
  4409  0C5C                     l2008:
  4410  0C5C  0874               	movf	___fladd@a,w
  4411  0C5D  02F0               	subwf	___fladd@b,f
  4412  0C5E  0875               	movf	___fladd@a+1,w
  4413  0C5F  1C03               	skipc
  4414  0C60  0F75               	incfsz	___fladd@a+1,w
  4415  0C61  02F1               	subwf	___fladd@b+1,f
  4416  0C62  0876               	movf	___fladd@a+2,w
  4417  0C63  1C03               	skipc
  4418  0C64  0F76               	incfsz	___fladd@a+2,w
  4419  0C65  02F2               	subwf	___fladd@b+2,f
  4420  0C66  0877               	movf	___fladd@a+3,w
  4421  0C67  1C03               	skipc
  4422  0C68  0F77               	incfsz	___fladd@a+3,w
  4423  0C69  02F3               	subwf	___fladd@b+3,f
  4424  0C6A                     l612:
  4425  0C6A  0873               	movf	___fladd@b+3,w
  4426  0C6B  0472               	iorwf	___fladd@b+2,w
  4427  0C6C  0471               	iorwf	___fladd@b+1,w
  4428  0C6D  0470               	iorwf	___fladd@b,w
  4429  0C6E  1D03               	skipz
  4430  0C6F  2C71               	goto	u2211
  4431  0C70  2C72               	goto	u2210
  4432  0C71                     u2211:
  4433  0C71  2CA0               	goto	l2030
  4434  0C72                     u2210:
  4435  0C72                     l2010:
  4436  0C72  087B               	movf	___fladd@grs,w
  4437  0C73  1D03               	btfss	3,2
  4438  0C74  2C76               	goto	u2221
  4439  0C75  2C77               	goto	u2220
  4440  0C76                     u2221:
  4441  0C76  2CA0               	goto	l2030
  4442  0C77                     u2220:
  4443  0C77                     l2012:
  4444  0C77  3000               	movlw	0
  4445  0C78  00F3               	movwf	?___fladd+3
  4446  0C79  3000               	movlw	0
  4447  0C7A  00F2               	movwf	?___fladd+2
  4448  0C7B  3000               	movlw	0
  4449  0C7C  00F1               	movwf	?___fladd+1
  4450  0C7D  3000               	movlw	0
  4451  0C7E  00F0               	movwf	?___fladd
  4452  0C7F  2D24               	goto	l604
  4453  0C80                     l2016:
  4454  0C80  3001               	movlw	1
  4455  0C81  1283               	bcf	3,5	;RP0=0, select bank0
  4456  0C82  1303               	bcf	3,6	;RP1=0, select bank0
  4457  0C83  00A0               	movwf	??___fladd
  4458  0C84                     u2235:
  4459  0C84  1003               	clrc
  4460  0C85  0DF0               	rlf	___fladd@b,f
  4461  0C86  0DF1               	rlf	___fladd@b+1,f
  4462  0C87  0DF2               	rlf	___fladd@b+2,f
  4463  0C88  0DF3               	rlf	___fladd@b+3,f
  4464  0C89  0BA0               	decfsz	??___fladd,f
  4465  0C8A  2C84               	goto	u2235
  4466  0C8B                     l2018:
  4467  0C8B  1FFB               	btfss	___fladd@grs,7
  4468  0C8C  2C8E               	goto	u2241
  4469  0C8D  2C8F               	goto	u2240
  4470  0C8E                     u2241:
  4471  0C8E  2C90               	goto	l616
  4472  0C8F                     u2240:
  4473  0C8F                     l2020:
  4474  0C8F  1470               	bsf	___fladd@b,0
  4475  0C90                     l616:
  4476  0C90  1C7B               	btfss	___fladd@grs,0
  4477  0C91  2C93               	goto	u2251
  4478  0C92  2C94               	goto	u2250
  4479  0C93                     u2251:
  4480  0C93  2C97               	goto	l2024
  4481  0C94                     u2250:
  4482  0C94                     l2022:
  4483  0C94  1403               	setc
  4484  0C95  0DFB               	rlf	___fladd@grs,f
  4485  0C96  2C99               	goto	l2026
  4486  0C97                     l2024:
  4487  0C97  1003               	clrc
  4488  0C98  0DFB               	rlf	___fladd@grs,f
  4489  0C99                     l2026:
  4490  0C99  087A               	movf	___fladd@bexp,w
  4491  0C9A  1903               	btfsc	3,2
  4492  0C9B  2C9D               	goto	u2261
  4493  0C9C  2C9E               	goto	u2260
  4494  0C9D                     u2261:
  4495  0C9D  2CA0               	goto	l2030
  4496  0C9E                     u2260:
  4497  0C9E                     l2028:
  4498  0C9E  3001               	movlw	1
  4499  0C9F  02FA               	subwf	___fladd@bexp,f
  4500  0CA0                     l2030:
  4501  0CA0  1FF2               	btfss	___fladd@b+2,7
  4502  0CA1  2CA3               	goto	u2271
  4503  0CA2  2CA4               	goto	u2270
  4504  0CA3                     u2271:
  4505  0CA3  2C80               	goto	l2016
  4506  0CA4                     u2270:
  4507  0CA4                     l2032:
  4508  0CA4  01F9               	clrf	___fladd@aexp
  4509  0CA5                     l2034:
  4510  0CA5  1FFB               	btfss	___fladd@grs,7
  4511  0CA6  2CA8               	goto	u2281
  4512  0CA7  2CA9               	goto	u2280
  4513  0CA8                     u2281:
  4514  0CA8  2CB7               	goto	l2042
  4515  0CA9                     u2280:
  4516  0CA9                     l2036:
  4517  0CA9  087B               	movf	___fladd@grs,w
  4518  0CAA  397F               	andlw	127
  4519  0CAB  1903               	btfsc	3,2
  4520  0CAC  2CAE               	goto	u2291
  4521  0CAD  2CAF               	goto	u2290
  4522  0CAE                     u2291:
  4523  0CAE  2CB2               	goto	l622
  4524  0CAF                     u2290:
  4525  0CAF                     l2038:
  4526  0CAF  01F9               	clrf	___fladd@aexp
  4527  0CB0  0AF9               	incf	___fladd@aexp,f
  4528  0CB1  2CB7               	goto	l2042
  4529  0CB2                     l622:
  4530  0CB2  1C70               	btfss	___fladd@b,0
  4531  0CB3  2CB5               	goto	u2301
  4532  0CB4  2CB6               	goto	u2300
  4533  0CB5                     u2301:
  4534  0CB5  2CB7               	goto	l2042
  4535  0CB6                     u2300:
  4536  0CB6  2CAF               	goto	l2038
  4537  0CB7                     l2042:
  4538  0CB7  0879               	movf	___fladd@aexp,w
  4539  0CB8  1903               	btfsc	3,2
  4540  0CB9  2CBB               	goto	u2311
  4541  0CBA  2CBC               	goto	u2310
  4542  0CBB                     u2311:
  4543  0CBB  2CF2               	goto	l625
  4544  0CBC                     u2310:
  4545  0CBC                     l2044:
  4546  0CBC  3001               	movlw	1
  4547  0CBD  07F0               	addwf	___fladd@b,f
  4548  0CBE  3000               	movlw	0
  4549  0CBF  1803               	skipnc
  4550  0CC0  3001               	movlw	1
  4551  0CC1  07F1               	addwf	___fladd@b+1,f
  4552  0CC2  3000               	movlw	0
  4553  0CC3  1803               	skipnc
  4554  0CC4  3001               	movlw	1
  4555  0CC5  07F2               	addwf	___fladd@b+2,f
  4556  0CC6  3000               	movlw	0
  4557  0CC7  1803               	skipnc
  4558  0CC8  3001               	movlw	1
  4559  0CC9  07F3               	addwf	___fladd@b+3,f
  4560  0CCA                     l2046:
  4561  0CCA  1C73               	btfss	___fladd@b+3,0
  4562  0CCB  2CCD               	goto	u2321
  4563  0CCC  2CCE               	goto	u2320
  4564  0CCD                     u2321:
  4565  0CCD  2CF2               	goto	l625
  4566  0CCE                     u2320:
  4567  0CCE                     l2048:
  4568  0CCE  0870               	movf	___fladd@b,w
  4569  0CCF  1283               	bcf	3,5	;RP0=0, select bank0
  4570  0CD0  1303               	bcf	3,6	;RP1=0, select bank0
  4571  0CD1  00A0               	movwf	??___fladd
  4572  0CD2  0871               	movf	___fladd@b+1,w
  4573  0CD3  00A1               	movwf	??___fladd+1
  4574  0CD4  0872               	movf	___fladd@b+2,w
  4575  0CD5  00A2               	movwf	??___fladd+2
  4576  0CD6  0873               	movf	___fladd@b+3,w
  4577  0CD7  00A3               	movwf	??___fladd+3
  4578  0CD8  3001               	movlw	1
  4579  0CD9  00A4               	movwf	??___fladd+4
  4580  0CDA                     u2335:
  4581  0CDA  0D23               	rlf	??___fladd+3,w
  4582  0CDB  0CA3               	rrf	??___fladd+3,f
  4583  0CDC  0CA2               	rrf	??___fladd+2,f
  4584  0CDD  0CA1               	rrf	??___fladd+1,f
  4585  0CDE  0CA0               	rrf	??___fladd,f
  4586  0CDF                     u2330:
  4587  0CDF  0BA4               	decfsz	??___fladd+4,f
  4588  0CE0  2CDA               	goto	u2335
  4589  0CE1  0823               	movf	??___fladd+3,w
  4590  0CE2  00F3               	movwf	___fladd@b+3
  4591  0CE3  0822               	movf	??___fladd+2,w
  4592  0CE4  00F2               	movwf	___fladd@b+2
  4593  0CE5  0821               	movf	??___fladd+1,w
  4594  0CE6  00F1               	movwf	___fladd@b+1
  4595  0CE7  0820               	movf	??___fladd,w
  4596  0CE8  00F0               	movwf	___fladd@b
  4597  0CE9  0A7A               	incf	___fladd@bexp,w
  4598  0CEA  1903               	btfsc	3,2
  4599  0CEB  2CED               	goto	u2341
  4600  0CEC  2CEE               	goto	u2340
  4601  0CED                     u2341:
  4602  0CED  2CF2               	goto	l625
  4603  0CEE                     u2340:
  4604  0CEE                     l2050:
  4605  0CEE  3001               	movlw	1
  4606  0CEF  00A0               	movwf	??___fladd
  4607  0CF0  0820               	movf	??___fladd,w
  4608  0CF1  07FA               	addwf	___fladd@bexp,f
  4609  0CF2                     l625:
  4610  0CF2  0A7A               	incf	___fladd@bexp,w
  4611  0CF3  1903               	btfsc	3,2
  4612  0CF4  2CF6               	goto	u2351
  4613  0CF5  2CF7               	goto	u2350
  4614  0CF6                     u2351:
  4615  0CF6  2CFC               	goto	l2054
  4616  0CF7                     u2350:
  4617  0CF7                     l2052:
  4618  0CF7  087A               	movf	___fladd@bexp,w
  4619  0CF8  1D03               	btfss	3,2
  4620  0CF9  2CFB               	goto	u2361
  4621  0CFA  2CFC               	goto	u2360
  4622  0CFB                     u2361:
  4623  0CFB  2D0A               	goto	l2060
  4624  0CFC                     u2360:
  4625  0CFC                     l2054:
  4626  0CFC  3000               	movlw	0
  4627  0CFD  00F3               	movwf	___fladd@b+3
  4628  0CFE  3000               	movlw	0
  4629  0CFF  00F2               	movwf	___fladd@b+2
  4630  0D00  3000               	movlw	0
  4631  0D01  00F1               	movwf	___fladd@b+1
  4632  0D02  3000               	movlw	0
  4633  0D03  00F0               	movwf	___fladd@b
  4634  0D04                     l2056:
  4635  0D04  087A               	movf	___fladd@bexp,w
  4636  0D05  1D03               	btfss	3,2
  4637  0D06  2D08               	goto	u2371
  4638  0D07  2D09               	goto	u2370
  4639  0D08                     u2371:
  4640  0D08  2D0A               	goto	l2060
  4641  0D09                     u2370:
  4642  0D09                     l2058:
  4643  0D09  01F8               	clrf	___fladd@signs
  4644  0D0A                     l2060:
  4645  0D0A  1C7A               	btfss	___fladd@bexp,0
  4646  0D0B  2D0D               	goto	u2381
  4647  0D0C  2D0E               	goto	u2380
  4648  0D0D                     u2381:
  4649  0D0D  2D10               	goto	l2064
  4650  0D0E                     u2380:
  4651  0D0E                     l2062:
  4652  0D0E  17F2               	bsf	___fladd@b+2,7
  4653  0D0F  2D16               	goto	l633
  4654  0D10                     l2064:
  4655  0D10  307F               	movlw	127
  4656  0D11  1283               	bcf	3,5	;RP0=0, select bank0
  4657  0D12  1303               	bcf	3,6	;RP1=0, select bank0
  4658  0D13  00A0               	movwf	??___fladd
  4659  0D14  0820               	movf	??___fladd,w
  4660  0D15  05F2               	andwf	___fladd@b+2,f
  4661  0D16                     l633:
  4662  0D16  087A               	movf	___fladd@bexp,w
  4663  0D17  1283               	bcf	3,5	;RP0=0, select bank0
  4664  0D18  1303               	bcf	3,6	;RP1=0, select bank0
  4665  0D19  00A0               	movwf	??___fladd
  4666  0D1A  1003               	clrc
  4667  0D1B  0C20               	rrf	??___fladd,w
  4668  0D1C  00A1               	movwf	??___fladd+1
  4669  0D1D  0821               	movf	??___fladd+1,w
  4670  0D1E  00F3               	movwf	___fladd@b+3
  4671  0D1F                     l2066:
  4672  0D1F  1FF8               	btfss	___fladd@signs,7
  4673  0D20  2D22               	goto	u2391
  4674  0D21  2D23               	goto	u2390
  4675  0D22                     u2391:
  4676  0D22  2D24               	goto	l634
  4677  0D23                     u2390:
  4678  0D23                     l2068:
  4679  0D23  17F3               	bsf	___fladd@b+3,7
  4680  0D24                     l634:
  4681  0D24                     l604:
  4682  0D24  0008               	return
  4683  0D25                     __end_of___fladd:
  4684                           
  4685                           	psect	text10
  4686  009A                     __ptext10:	
  4687 ;; *************** function ___flmul *****************
  4688 ;; Defined at:
  4689 ;;		line 8 in file "C:\Program Files\Microchip\xc8\v2.31\pic\sources\c90\common\sprcmul.c"
  4690 ;; Parameters:    Size  Location     Type
  4691 ;;  b               4   44[BANK0 ] unsigned char 
  4692 ;;  a               4   48[BANK0 ] unsigned char 
  4693 ;; Auto vars:     Size  Location     Type
  4694 ;;  prod            4   64[BANK0 ] struct .
  4695 ;;  grs             4   58[BANK0 ] unsigned long 
  4696 ;;  temp            2   68[BANK0 ] struct .
  4697 ;;  bexp            1   63[BANK0 ] unsigned char 
  4698 ;;  aexp            1   62[BANK0 ] unsigned char 
  4699 ;;  sign            1   57[BANK0 ] unsigned char 
  4700 ;; Return value:  Size  Location     Type
  4701 ;;                  4   44[BANK0 ] unsigned char 
  4702 ;; Registers used:
  4703 ;;		wreg, status,2, status,0, btemp+1, pclath, cstack
  4704 ;; Tracked objects:
  4705 ;;		On entry : 0/0
  4706 ;;		On exit  : 0/0
  4707 ;;		Unchanged: 0/0
  4708 ;; Data sizes:     COMMON   BANK0   BANK1   BANK3   BANK2
  4709 ;;      Params:         0       8       0       0       0
  4710 ;;      Locals:         0      13       0       0       0
  4711 ;;      Temps:          0       5       0       0       0
  4712 ;;      Totals:         0      26       0       0       0
  4713 ;;Total ram usage:       26 bytes
  4714 ;; Hardware stack levels used:    1
  4715 ;; Hardware stack levels required when called:    1
  4716 ;; This function calls:
  4717 ;;		__Umul8_16
  4718 ;; This function is called by:
  4719 ;;		_main
  4720 ;;		_convert
  4721 ;; This function uses a non-reentrant model
  4722 ;;
  4723                           
  4724                           
  4725                           ;psect for function ___flmul
  4726  009A                     ___flmul:
  4727  009A                     l2382:	
  4728                           ;incstack = 0
  4729                           ; Regs used in ___flmul: [wreg+status,2+status,0+btemp+1+pclath+cstack]
  4730                           
  4731  009A  1283               	bcf	3,5	;RP0=0, select bank0
  4732  009B  1303               	bcf	3,6	;RP1=0, select bank0
  4733  009C  084F               	movf	___flmul@b+3,w
  4734  009D  3980               	andlw	128
  4735  009E  00D4               	movwf	??___flmul
  4736  009F  0854               	movf	??___flmul,w
  4737  00A0  00D9               	movwf	___flmul@sign
  4738  00A1                     l2384:
  4739  00A1  084F               	movf	___flmul@b+3,w
  4740  00A2  00D4               	movwf	??___flmul
  4741  00A3  0754               	addwf	??___flmul,w
  4742  00A4  00D5               	movwf	??___flmul+1
  4743  00A5  0855               	movf	??___flmul+1,w
  4744  00A6  00DF               	movwf	___flmul@bexp
  4745  00A7                     l2386:
  4746  00A7  1FCE               	btfss	___flmul@b+2,7
  4747  00A8  28AA               	goto	u3061
  4748  00A9  28AB               	goto	u3060
  4749  00AA                     u3061:
  4750  00AA  28AC               	goto	l2390
  4751  00AB                     u3060:
  4752  00AB                     l2388:
  4753  00AB  145F               	bsf	___flmul@bexp,0
  4754  00AC                     l2390:
  4755  00AC  085F               	movf	___flmul@bexp,w
  4756  00AD  1903               	btfsc	3,2
  4757  00AE  28B0               	goto	u3071
  4758  00AF  28B1               	goto	u3070
  4759  00B0                     u3071:
  4760  00B0  28C0               	goto	l2398
  4761  00B1                     u3070:
  4762  00B1                     l2392:
  4763  00B1  0A5F               	incf	___flmul@bexp,w
  4764  00B2  1D03               	btfss	3,2
  4765  00B3  28B5               	goto	u3081
  4766  00B4  28B6               	goto	u3080
  4767  00B5                     u3081:
  4768  00B5  28BE               	goto	l2396
  4769  00B6                     u3080:
  4770  00B6                     l2394:
  4771  00B6  3000               	movlw	0
  4772  00B7  00CF               	movwf	___flmul@b+3
  4773  00B8  3000               	movlw	0
  4774  00B9  00CE               	movwf	___flmul@b+2
  4775  00BA  3000               	movlw	0
  4776  00BB  00CD               	movwf	___flmul@b+1
  4777  00BC  3000               	movlw	0
  4778  00BD  00CC               	movwf	___flmul@b
  4779  00BE                     l2396:
  4780  00BE  17CE               	bsf	___flmul@b+2,7
  4781  00BF  28C8               	goto	l2400
  4782  00C0                     l2398:
  4783  00C0  3000               	movlw	0
  4784  00C1  00CF               	movwf	___flmul@b+3
  4785  00C2  3000               	movlw	0
  4786  00C3  00CE               	movwf	___flmul@b+2
  4787  00C4  3000               	movlw	0
  4788  00C5  00CD               	movwf	___flmul@b+1
  4789  00C6  3000               	movlw	0
  4790  00C7  00CC               	movwf	___flmul@b
  4791  00C8                     l2400:
  4792  00C8  0853               	movf	___flmul@a+3,w
  4793  00C9  3980               	andlw	128
  4794  00CA  00D4               	movwf	??___flmul
  4795  00CB  0854               	movf	??___flmul,w
  4796  00CC  06D9               	xorwf	___flmul@sign,f
  4797  00CD                     l2402:
  4798  00CD  0853               	movf	___flmul@a+3,w
  4799  00CE  00D4               	movwf	??___flmul
  4800  00CF  0754               	addwf	??___flmul,w
  4801  00D0  00D5               	movwf	??___flmul+1
  4802  00D1  0855               	movf	??___flmul+1,w
  4803  00D2  00DE               	movwf	___flmul@aexp
  4804  00D3                     l2404:
  4805  00D3  1FD2               	btfss	___flmul@a+2,7
  4806  00D4  28D6               	goto	u3091
  4807  00D5  28D7               	goto	u3090
  4808  00D6                     u3091:
  4809  00D6  28D8               	goto	l2408
  4810  00D7                     u3090:
  4811  00D7                     l2406:
  4812  00D7  145E               	bsf	___flmul@aexp,0
  4813  00D8                     l2408:
  4814  00D8  085E               	movf	___flmul@aexp,w
  4815  00D9  1903               	btfsc	3,2
  4816  00DA  28DC               	goto	u3101
  4817  00DB  28DD               	goto	u3100
  4818  00DC                     u3101:
  4819  00DC  28EC               	goto	l2416
  4820  00DD                     u3100:
  4821  00DD                     l2410:
  4822  00DD  0A5E               	incf	___flmul@aexp,w
  4823  00DE  1D03               	btfss	3,2
  4824  00DF  28E1               	goto	u3111
  4825  00E0  28E2               	goto	u3110
  4826  00E1                     u3111:
  4827  00E1  28EA               	goto	l2414
  4828  00E2                     u3110:
  4829  00E2                     l2412:
  4830  00E2  3000               	movlw	0
  4831  00E3  00D3               	movwf	___flmul@a+3
  4832  00E4  3000               	movlw	0
  4833  00E5  00D2               	movwf	___flmul@a+2
  4834  00E6  3000               	movlw	0
  4835  00E7  00D1               	movwf	___flmul@a+1
  4836  00E8  3000               	movlw	0
  4837  00E9  00D0               	movwf	___flmul@a
  4838  00EA                     l2414:
  4839  00EA  17D2               	bsf	___flmul@a+2,7
  4840  00EB  28F4               	goto	l2418
  4841  00EC                     l2416:
  4842  00EC  3000               	movlw	0
  4843  00ED  00D3               	movwf	___flmul@a+3
  4844  00EE  3000               	movlw	0
  4845  00EF  00D2               	movwf	___flmul@a+2
  4846  00F0  3000               	movlw	0
  4847  00F1  00D1               	movwf	___flmul@a+1
  4848  00F2  3000               	movlw	0
  4849  00F3  00D0               	movwf	___flmul@a
  4850  00F4                     l2418:
  4851  00F4  085E               	movf	___flmul@aexp,w
  4852  00F5  1903               	btfsc	3,2
  4853  00F6  28F8               	goto	u3121
  4854  00F7  28F9               	goto	u3120
  4855  00F8                     u3121:
  4856  00F8  28FE               	goto	l2422
  4857  00F9                     u3120:
  4858  00F9                     l2420:
  4859  00F9  085F               	movf	___flmul@bexp,w
  4860  00FA  1D03               	btfss	3,2
  4861  00FB  28FD               	goto	u3131
  4862  00FC  28FE               	goto	u3130
  4863  00FD                     u3131:
  4864  00FD  2907               	goto	l2426
  4865  00FE                     u3130:
  4866  00FE                     l2422:
  4867  00FE  3000               	movlw	0
  4868  00FF  00CF               	movwf	?___flmul+3
  4869  0100  3000               	movlw	0
  4870  0101  00CE               	movwf	?___flmul+2
  4871  0102  3000               	movlw	0
  4872  0103  00CD               	movwf	?___flmul+1
  4873  0104  3000               	movlw	0
  4874  0105  00CC               	movwf	?___flmul
  4875  0106  2BFA               	goto	l687
  4876  0107                     l2426:
  4877  0107  084C               	movf	___flmul@b,w
  4878  0108  00D4               	movwf	??___flmul
  4879  0109  0854               	movf	??___flmul,w
  4880  010A  00F0               	movwf	__Umul8_16@multiplicand
  4881  010B  0852               	movf	___flmul@a+2,w
  4882  010C  160A  118A  253C  120A  118A  	fcall	__Umul8_16
  4883  0111  0871               	movf	?__Umul8_16+1,w
  4884  0112  1283               	bcf	3,5	;RP0=0, select bank0
  4885  0113  1303               	bcf	3,6	;RP1=0, select bank0
  4886  0114  00E5               	movwf	___flmul@temp+1
  4887  0115  0870               	movf	?__Umul8_16,w
  4888  0116  00E4               	movwf	___flmul@temp
  4889  0117                     l2428:
  4890  0117  0864               	movf	___flmul@temp,w
  4891  0118  00D4               	movwf	??___flmul
  4892  0119  01D5               	clrf	??___flmul+1
  4893  011A  01D6               	clrf	??___flmul+2
  4894  011B  01D7               	clrf	??___flmul+3
  4895  011C  0857               	movf	??___flmul+3,w
  4896  011D  00DD               	movwf	___flmul@grs+3
  4897  011E  0856               	movf	??___flmul+2,w
  4898  011F  00DC               	movwf	___flmul@grs+2
  4899  0120  0855               	movf	??___flmul+1,w
  4900  0121  00DB               	movwf	___flmul@grs+1
  4901  0122  0854               	movf	??___flmul,w
  4902  0123  00DA               	movwf	___flmul@grs
  4903  0124                     l2430:
  4904  0124  0865               	movf	___flmul@temp+1,w
  4905  0125  00D4               	movwf	??___flmul
  4906  0126  01D5               	clrf	??___flmul+1
  4907  0127  01D6               	clrf	??___flmul+2
  4908  0128  01D7               	clrf	??___flmul+3
  4909  0129  0857               	movf	??___flmul+3,w
  4910  012A  00E3               	movwf	___flmul@prod+3
  4911  012B  0856               	movf	??___flmul+2,w
  4912  012C  00E2               	movwf	___flmul@prod+2
  4913  012D  0855               	movf	??___flmul+1,w
  4914  012E  00E1               	movwf	___flmul@prod+1
  4915  012F  0854               	movf	??___flmul,w
  4916  0130  00E0               	movwf	___flmul@prod
  4917  0131  084D               	movf	___flmul@b+1,w
  4918  0132  00D4               	movwf	??___flmul
  4919  0133  0854               	movf	??___flmul,w
  4920  0134  00F0               	movwf	__Umul8_16@multiplicand
  4921  0135  0851               	movf	___flmul@a+1,w
  4922  0136  160A  118A  253C  120A  118A  	fcall	__Umul8_16
  4923  013B  0871               	movf	?__Umul8_16+1,w
  4924  013C  1283               	bcf	3,5	;RP0=0, select bank0
  4925  013D  1303               	bcf	3,6	;RP1=0, select bank0
  4926  013E  00E5               	movwf	___flmul@temp+1
  4927  013F  0870               	movf	?__Umul8_16,w
  4928  0140  00E4               	movwf	___flmul@temp
  4929  0141                     l2432:
  4930  0141  0864               	movf	___flmul@temp,w
  4931  0142  00D4               	movwf	??___flmul
  4932  0143  01D5               	clrf	??___flmul+1
  4933  0144  01D6               	clrf	??___flmul+2
  4934  0145  01D7               	clrf	??___flmul+3
  4935  0146  0854               	movf	??___flmul,w
  4936  0147  07DA               	addwf	___flmul@grs,f
  4937  0148  0855               	movf	??___flmul+1,w
  4938  0149  1103               	clrz
  4939  014A  1803               	skipnc
  4940  014B  3E01               	addlw	1
  4941  014C  1903               	skipnz
  4942  014D  294F               	goto	u3141
  4943  014E  07DB               	addwf	___flmul@grs+1,f
  4944  014F                     u3141:
  4945  014F  0856               	movf	??___flmul+2,w
  4946  0150  1103               	clrz
  4947  0151  1803               	skipnc
  4948  0152  3E01               	addlw	1
  4949  0153  1903               	skipnz
  4950  0154  2956               	goto	u3142
  4951  0155  07DC               	addwf	___flmul@grs+2,f
  4952  0156                     u3142:
  4953  0156  0857               	movf	??___flmul+3,w
  4954  0157  1103               	clrz
  4955  0158  1803               	skipnc
  4956  0159  3E01               	addlw	1
  4957  015A  1903               	skipnz
  4958  015B  295D               	goto	u3143
  4959  015C  07DD               	addwf	___flmul@grs+3,f
  4960  015D                     u3143:
  4961  015D                     l2434:
  4962  015D  0865               	movf	___flmul@temp+1,w
  4963  015E  00D4               	movwf	??___flmul
  4964  015F  01D5               	clrf	??___flmul+1
  4965  0160  01D6               	clrf	??___flmul+2
  4966  0161  01D7               	clrf	??___flmul+3
  4967  0162  0854               	movf	??___flmul,w
  4968  0163  07E0               	addwf	___flmul@prod,f
  4969  0164  0855               	movf	??___flmul+1,w
  4970  0165  1103               	clrz
  4971  0166  1803               	skipnc
  4972  0167  3E01               	addlw	1
  4973  0168  1903               	skipnz
  4974  0169  296B               	goto	u3151
  4975  016A  07E1               	addwf	___flmul@prod+1,f
  4976  016B                     u3151:
  4977  016B  0856               	movf	??___flmul+2,w
  4978  016C  1103               	clrz
  4979  016D  1803               	skipnc
  4980  016E  3E01               	addlw	1
  4981  016F  1903               	skipnz
  4982  0170  2972               	goto	u3152
  4983  0171  07E2               	addwf	___flmul@prod+2,f
  4984  0172                     u3152:
  4985  0172  0857               	movf	??___flmul+3,w
  4986  0173  1103               	clrz
  4987  0174  1803               	skipnc
  4988  0175  3E01               	addlw	1
  4989  0176  1903               	skipnz
  4990  0177  2979               	goto	u3153
  4991  0178  07E3               	addwf	___flmul@prod+3,f
  4992  0179                     u3153:
  4993  0179  084E               	movf	___flmul@b+2,w
  4994  017A  00D4               	movwf	??___flmul
  4995  017B  0854               	movf	??___flmul,w
  4996  017C  00F0               	movwf	__Umul8_16@multiplicand
  4997  017D  0850               	movf	___flmul@a,w
  4998  017E  160A  118A  253C  120A  118A  	fcall	__Umul8_16
  4999  0183  0871               	movf	?__Umul8_16+1,w
  5000  0184  1283               	bcf	3,5	;RP0=0, select bank0
  5001  0185  1303               	bcf	3,6	;RP1=0, select bank0
  5002  0186  00E5               	movwf	___flmul@temp+1
  5003  0187  0870               	movf	?__Umul8_16,w
  5004  0188  00E4               	movwf	___flmul@temp
  5005  0189                     l2436:
  5006  0189  0864               	movf	___flmul@temp,w
  5007  018A  00D4               	movwf	??___flmul
  5008  018B  01D5               	clrf	??___flmul+1
  5009  018C  01D6               	clrf	??___flmul+2
  5010  018D  01D7               	clrf	??___flmul+3
  5011  018E  0854               	movf	??___flmul,w
  5012  018F  07DA               	addwf	___flmul@grs,f
  5013  0190  0855               	movf	??___flmul+1,w
  5014  0191  1103               	clrz
  5015  0192  1803               	skipnc
  5016  0193  3E01               	addlw	1
  5017  0194  1903               	skipnz
  5018  0195  2997               	goto	u3161
  5019  0196  07DB               	addwf	___flmul@grs+1,f
  5020  0197                     u3161:
  5021  0197  0856               	movf	??___flmul+2,w
  5022  0198  1103               	clrz
  5023  0199  1803               	skipnc
  5024  019A  3E01               	addlw	1
  5025  019B  1903               	skipnz
  5026  019C  299E               	goto	u3162
  5027  019D  07DC               	addwf	___flmul@grs+2,f
  5028  019E                     u3162:
  5029  019E  0857               	movf	??___flmul+3,w
  5030  019F  1103               	clrz
  5031  01A0  1803               	skipnc
  5032  01A1  3E01               	addlw	1
  5033  01A2  1903               	skipnz
  5034  01A3  29A5               	goto	u3163
  5035  01A4  07DD               	addwf	___flmul@grs+3,f
  5036  01A5                     u3163:
  5037  01A5                     l2438:
  5038  01A5  0865               	movf	___flmul@temp+1,w
  5039  01A6  00D4               	movwf	??___flmul
  5040  01A7  01D5               	clrf	??___flmul+1
  5041  01A8  01D6               	clrf	??___flmul+2
  5042  01A9  01D7               	clrf	??___flmul+3
  5043  01AA  0854               	movf	??___flmul,w
  5044  01AB  07E0               	addwf	___flmul@prod,f
  5045  01AC  0855               	movf	??___flmul+1,w
  5046  01AD  1103               	clrz
  5047  01AE  1803               	skipnc
  5048  01AF  3E01               	addlw	1
  5049  01B0  1903               	skipnz
  5050  01B1  29B3               	goto	u3171
  5051  01B2  07E1               	addwf	___flmul@prod+1,f
  5052  01B3                     u3171:
  5053  01B3  0856               	movf	??___flmul+2,w
  5054  01B4  1103               	clrz
  5055  01B5  1803               	skipnc
  5056  01B6  3E01               	addlw	1
  5057  01B7  1903               	skipnz
  5058  01B8  29BA               	goto	u3172
  5059  01B9  07E2               	addwf	___flmul@prod+2,f
  5060  01BA                     u3172:
  5061  01BA  0857               	movf	??___flmul+3,w
  5062  01BB  1103               	clrz
  5063  01BC  1803               	skipnc
  5064  01BD  3E01               	addlw	1
  5065  01BE  1903               	skipnz
  5066  01BF  29C1               	goto	u3173
  5067  01C0  07E3               	addwf	___flmul@prod+3,f
  5068  01C1                     u3173:
  5069  01C1                     l2440:
  5070  01C1  3008               	movlw	8
  5071  01C2  00D4               	movwf	??___flmul
  5072  01C3                     u3185:
  5073  01C3  1003               	clrc
  5074  01C4  0DDA               	rlf	___flmul@grs,f
  5075  01C5  0DDB               	rlf	___flmul@grs+1,f
  5076  01C6  0DDC               	rlf	___flmul@grs+2,f
  5077  01C7  0DDD               	rlf	___flmul@grs+3,f
  5078  01C8  0BD4               	decfsz	??___flmul,f
  5079  01C9  29C3               	goto	u3185
  5080  01CA                     l2442:
  5081  01CA  084D               	movf	___flmul@b+1,w
  5082  01CB  00D4               	movwf	??___flmul
  5083  01CC  0854               	movf	??___flmul,w
  5084  01CD  00F0               	movwf	__Umul8_16@multiplicand
  5085  01CE  0850               	movf	___flmul@a,w
  5086  01CF  160A  118A  253C  120A  118A  	fcall	__Umul8_16
  5087  01D4  0871               	movf	?__Umul8_16+1,w
  5088  01D5  1283               	bcf	3,5	;RP0=0, select bank0
  5089  01D6  1303               	bcf	3,6	;RP1=0, select bank0
  5090  01D7  00E5               	movwf	___flmul@temp+1
  5091  01D8  0870               	movf	?__Umul8_16,w
  5092  01D9  00E4               	movwf	___flmul@temp
  5093  01DA                     l2444:
  5094  01DA  0864               	movf	___flmul@temp,w
  5095  01DB  00D4               	movwf	??___flmul
  5096  01DC  0865               	movf	___flmul@temp+1,w
  5097  01DD  00D5               	movwf	??___flmul+1
  5098  01DE  01D6               	clrf	??___flmul+2
  5099  01DF  01D7               	clrf	??___flmul+3
  5100  01E0  0854               	movf	??___flmul,w
  5101  01E1  07DA               	addwf	___flmul@grs,f
  5102  01E2  0855               	movf	??___flmul+1,w
  5103  01E3  1103               	clrz
  5104  01E4  1803               	skipnc
  5105  01E5  3E01               	addlw	1
  5106  01E6  1903               	skipnz
  5107  01E7  29E9               	goto	u3191
  5108  01E8  07DB               	addwf	___flmul@grs+1,f
  5109  01E9                     u3191:
  5110  01E9  0856               	movf	??___flmul+2,w
  5111  01EA  1103               	clrz
  5112  01EB  1803               	skipnc
  5113  01EC  3E01               	addlw	1
  5114  01ED  1903               	skipnz
  5115  01EE  29F0               	goto	u3192
  5116  01EF  07DC               	addwf	___flmul@grs+2,f
  5117  01F0                     u3192:
  5118  01F0  0857               	movf	??___flmul+3,w
  5119  01F1  1103               	clrz
  5120  01F2  1803               	skipnc
  5121  01F3  3E01               	addlw	1
  5122  01F4  1903               	skipnz
  5123  01F5  29F7               	goto	u3193
  5124  01F6  07DD               	addwf	___flmul@grs+3,f
  5125  01F7                     u3193:
  5126  01F7                     l2446:
  5127  01F7  084C               	movf	___flmul@b,w
  5128  01F8  00D4               	movwf	??___flmul
  5129  01F9  0854               	movf	??___flmul,w
  5130  01FA  00F0               	movwf	__Umul8_16@multiplicand
  5131  01FB  0851               	movf	___flmul@a+1,w
  5132  01FC  160A  118A  253C  120A  118A  	fcall	__Umul8_16
  5133  0201  0871               	movf	?__Umul8_16+1,w
  5134  0202  1283               	bcf	3,5	;RP0=0, select bank0
  5135  0203  1303               	bcf	3,6	;RP1=0, select bank0
  5136  0204  00E5               	movwf	___flmul@temp+1
  5137  0205  0870               	movf	?__Umul8_16,w
  5138  0206  00E4               	movwf	___flmul@temp
  5139  0207                     l2448:
  5140  0207  0864               	movf	___flmul@temp,w
  5141  0208  00D4               	movwf	??___flmul
  5142  0209  0865               	movf	___flmul@temp+1,w
  5143  020A  00D5               	movwf	??___flmul+1
  5144  020B  01D6               	clrf	??___flmul+2
  5145  020C  01D7               	clrf	??___flmul+3
  5146  020D  0854               	movf	??___flmul,w
  5147  020E  07DA               	addwf	___flmul@grs,f
  5148  020F  0855               	movf	??___flmul+1,w
  5149  0210  1103               	clrz
  5150  0211  1803               	skipnc
  5151  0212  3E01               	addlw	1
  5152  0213  1903               	skipnz
  5153  0214  2A16               	goto	u3201
  5154  0215  07DB               	addwf	___flmul@grs+1,f
  5155  0216                     u3201:
  5156  0216  0856               	movf	??___flmul+2,w
  5157  0217  1103               	clrz
  5158  0218  1803               	skipnc
  5159  0219  3E01               	addlw	1
  5160  021A  1903               	skipnz
  5161  021B  2A1D               	goto	u3202
  5162  021C  07DC               	addwf	___flmul@grs+2,f
  5163  021D                     u3202:
  5164  021D  0857               	movf	??___flmul+3,w
  5165  021E  1103               	clrz
  5166  021F  1803               	skipnc
  5167  0220  3E01               	addlw	1
  5168  0221  1903               	skipnz
  5169  0222  2A24               	goto	u3203
  5170  0223  07DD               	addwf	___flmul@grs+3,f
  5171  0224                     u3203:
  5172  0224                     l2450:
  5173  0224  3008               	movlw	8
  5174  0225  00D4               	movwf	??___flmul
  5175  0226                     u3215:
  5176  0226  1003               	clrc
  5177  0227  0DDA               	rlf	___flmul@grs,f
  5178  0228  0DDB               	rlf	___flmul@grs+1,f
  5179  0229  0DDC               	rlf	___flmul@grs+2,f
  5180  022A  0DDD               	rlf	___flmul@grs+3,f
  5181  022B  0BD4               	decfsz	??___flmul,f
  5182  022C  2A26               	goto	u3215
  5183  022D  084C               	movf	___flmul@b,w
  5184  022E  00D4               	movwf	??___flmul
  5185  022F  0854               	movf	??___flmul,w
  5186  0230  00F0               	movwf	__Umul8_16@multiplicand
  5187  0231  0850               	movf	___flmul@a,w
  5188  0232  160A  118A  253C  120A  118A  	fcall	__Umul8_16
  5189  0237  0871               	movf	?__Umul8_16+1,w
  5190  0238  1283               	bcf	3,5	;RP0=0, select bank0
  5191  0239  1303               	bcf	3,6	;RP1=0, select bank0
  5192  023A  00E5               	movwf	___flmul@temp+1
  5193  023B  0870               	movf	?__Umul8_16,w
  5194  023C  00E4               	movwf	___flmul@temp
  5195  023D                     l2452:
  5196  023D  0864               	movf	___flmul@temp,w
  5197  023E  00D4               	movwf	??___flmul
  5198  023F  0865               	movf	___flmul@temp+1,w
  5199  0240  00D5               	movwf	??___flmul+1
  5200  0241  01D6               	clrf	??___flmul+2
  5201  0242  01D7               	clrf	??___flmul+3
  5202  0243  0854               	movf	??___flmul,w
  5203  0244  07DA               	addwf	___flmul@grs,f
  5204  0245  0855               	movf	??___flmul+1,w
  5205  0246  1103               	clrz
  5206  0247  1803               	skipnc
  5207  0248  3E01               	addlw	1
  5208  0249  1903               	skipnz
  5209  024A  2A4C               	goto	u3221
  5210  024B  07DB               	addwf	___flmul@grs+1,f
  5211  024C                     u3221:
  5212  024C  0856               	movf	??___flmul+2,w
  5213  024D  1103               	clrz
  5214  024E  1803               	skipnc
  5215  024F  3E01               	addlw	1
  5216  0250  1903               	skipnz
  5217  0251  2A53               	goto	u3222
  5218  0252  07DC               	addwf	___flmul@grs+2,f
  5219  0253                     u3222:
  5220  0253  0857               	movf	??___flmul+3,w
  5221  0254  1103               	clrz
  5222  0255  1803               	skipnc
  5223  0256  3E01               	addlw	1
  5224  0257  1903               	skipnz
  5225  0258  2A5A               	goto	u3223
  5226  0259  07DD               	addwf	___flmul@grs+3,f
  5227  025A                     u3223:
  5228  025A                     l2454:
  5229  025A  084D               	movf	___flmul@b+1,w
  5230  025B  00D4               	movwf	??___flmul
  5231  025C  0854               	movf	??___flmul,w
  5232  025D  00F0               	movwf	__Umul8_16@multiplicand
  5233  025E  0852               	movf	___flmul@a+2,w
  5234  025F  160A  118A  253C  120A  118A  	fcall	__Umul8_16
  5235  0264  0871               	movf	?__Umul8_16+1,w
  5236  0265  1283               	bcf	3,5	;RP0=0, select bank0
  5237  0266  1303               	bcf	3,6	;RP1=0, select bank0
  5238  0267  00E5               	movwf	___flmul@temp+1
  5239  0268  0870               	movf	?__Umul8_16,w
  5240  0269  00E4               	movwf	___flmul@temp
  5241  026A  0864               	movf	___flmul@temp,w
  5242  026B  00D4               	movwf	??___flmul
  5243  026C  0865               	movf	___flmul@temp+1,w
  5244  026D  00D5               	movwf	??___flmul+1
  5245  026E  01D6               	clrf	??___flmul+2
  5246  026F  01D7               	clrf	??___flmul+3
  5247  0270  0854               	movf	??___flmul,w
  5248  0271  07E0               	addwf	___flmul@prod,f
  5249  0272  0855               	movf	??___flmul+1,w
  5250  0273  1103               	clrz
  5251  0274  1803               	skipnc
  5252  0275  3E01               	addlw	1
  5253  0276  1903               	skipnz
  5254  0277  2A79               	goto	u3231
  5255  0278  07E1               	addwf	___flmul@prod+1,f
  5256  0279                     u3231:
  5257  0279  0856               	movf	??___flmul+2,w
  5258  027A  1103               	clrz
  5259  027B  1803               	skipnc
  5260  027C  3E01               	addlw	1
  5261  027D  1903               	skipnz
  5262  027E  2A80               	goto	u3232
  5263  027F  07E2               	addwf	___flmul@prod+2,f
  5264  0280                     u3232:
  5265  0280  0857               	movf	??___flmul+3,w
  5266  0281  1103               	clrz
  5267  0282  1803               	skipnc
  5268  0283  3E01               	addlw	1
  5269  0284  1903               	skipnz
  5270  0285  2A87               	goto	u3233
  5271  0286  07E3               	addwf	___flmul@prod+3,f
  5272  0287                     u3233:
  5273  0287                     l2456:
  5274  0287  084E               	movf	___flmul@b+2,w
  5275  0288  00D4               	movwf	??___flmul
  5276  0289  0854               	movf	??___flmul,w
  5277  028A  00F0               	movwf	__Umul8_16@multiplicand
  5278  028B  0851               	movf	___flmul@a+1,w
  5279  028C  160A  118A  253C  120A  118A  	fcall	__Umul8_16
  5280  0291  0871               	movf	?__Umul8_16+1,w
  5281  0292  1283               	bcf	3,5	;RP0=0, select bank0
  5282  0293  1303               	bcf	3,6	;RP1=0, select bank0
  5283  0294  00E5               	movwf	___flmul@temp+1
  5284  0295  0870               	movf	?__Umul8_16,w
  5285  0296  00E4               	movwf	___flmul@temp
  5286  0297                     l2458:
  5287  0297  0864               	movf	___flmul@temp,w
  5288  0298  00D4               	movwf	??___flmul
  5289  0299  0865               	movf	___flmul@temp+1,w
  5290  029A  00D5               	movwf	??___flmul+1
  5291  029B  01D6               	clrf	??___flmul+2
  5292  029C  01D7               	clrf	??___flmul+3
  5293  029D  0854               	movf	??___flmul,w
  5294  029E  07E0               	addwf	___flmul@prod,f
  5295  029F  0855               	movf	??___flmul+1,w
  5296  02A0  1103               	clrz
  5297  02A1  1803               	skipnc
  5298  02A2  3E01               	addlw	1
  5299  02A3  1903               	skipnz
  5300  02A4  2AA6               	goto	u3241
  5301  02A5  07E1               	addwf	___flmul@prod+1,f
  5302  02A6                     u3241:
  5303  02A6  0856               	movf	??___flmul+2,w
  5304  02A7  1103               	clrz
  5305  02A8  1803               	skipnc
  5306  02A9  3E01               	addlw	1
  5307  02AA  1903               	skipnz
  5308  02AB  2AAD               	goto	u3242
  5309  02AC  07E2               	addwf	___flmul@prod+2,f
  5310  02AD                     u3242:
  5311  02AD  0857               	movf	??___flmul+3,w
  5312  02AE  1103               	clrz
  5313  02AF  1803               	skipnc
  5314  02B0  3E01               	addlw	1
  5315  02B1  1903               	skipnz
  5316  02B2  2AB4               	goto	u3243
  5317  02B3  07E3               	addwf	___flmul@prod+3,f
  5318  02B4                     u3243:
  5319  02B4  084E               	movf	___flmul@b+2,w
  5320  02B5  00D4               	movwf	??___flmul
  5321  02B6  0854               	movf	??___flmul,w
  5322  02B7  00F0               	movwf	__Umul8_16@multiplicand
  5323  02B8  0852               	movf	___flmul@a+2,w
  5324  02B9  160A  118A  253C  120A  118A  	fcall	__Umul8_16
  5325  02BE  0871               	movf	?__Umul8_16+1,w
  5326  02BF  1283               	bcf	3,5	;RP0=0, select bank0
  5327  02C0  1303               	bcf	3,6	;RP1=0, select bank0
  5328  02C1  00E5               	movwf	___flmul@temp+1
  5329  02C2  0870               	movf	?__Umul8_16,w
  5330  02C3  00E4               	movwf	___flmul@temp
  5331  02C4                     l2460:
  5332  02C4  0864               	movf	___flmul@temp,w
  5333  02C5  00D4               	movwf	??___flmul
  5334  02C6  0865               	movf	___flmul@temp+1,w
  5335  02C7  00D5               	movwf	??___flmul+1
  5336  02C8  01D6               	clrf	??___flmul+2
  5337  02C9  01D7               	clrf	??___flmul+3
  5338  02CA  3008               	movlw	8
  5339  02CB                     u3255:
  5340  02CB  1003               	clrc
  5341  02CC  0DD4               	rlf	??___flmul,f
  5342  02CD  0DD5               	rlf	??___flmul+1,f
  5343  02CE  0DD6               	rlf	??___flmul+2,f
  5344  02CF  0DD7               	rlf	??___flmul+3,f
  5345  02D0                     u3250:
  5346  02D0  3EFF               	addlw	-1
  5347  02D1  1D03               	skipz
  5348  02D2  2ACB               	goto	u3255
  5349  02D3  0854               	movf	??___flmul,w
  5350  02D4  07E0               	addwf	___flmul@prod,f
  5351  02D5  0855               	movf	??___flmul+1,w
  5352  02D6  1103               	clrz
  5353  02D7  1803               	skipnc
  5354  02D8  3E01               	addlw	1
  5355  02D9  1903               	skipnz
  5356  02DA  2ADC               	goto	u3261
  5357  02DB  07E1               	addwf	___flmul@prod+1,f
  5358  02DC                     u3261:
  5359  02DC  0856               	movf	??___flmul+2,w
  5360  02DD  1103               	clrz
  5361  02DE  1803               	skipnc
  5362  02DF  3E01               	addlw	1
  5363  02E0  1903               	skipnz
  5364  02E1  2AE3               	goto	u3262
  5365  02E2  07E2               	addwf	___flmul@prod+2,f
  5366  02E3                     u3262:
  5367  02E3  0857               	movf	??___flmul+3,w
  5368  02E4  1103               	clrz
  5369  02E5  1803               	skipnc
  5370  02E6  3E01               	addlw	1
  5371  02E7  1903               	skipnz
  5372  02E8  2AEA               	goto	u3263
  5373  02E9  07E3               	addwf	___flmul@prod+3,f
  5374  02EA                     u3263:
  5375  02EA                     l2462:
  5376  02EA  085A               	movf	___flmul@grs,w
  5377  02EB  00D4               	movwf	??___flmul
  5378  02EC  085B               	movf	___flmul@grs+1,w
  5379  02ED  00D5               	movwf	??___flmul+1
  5380  02EE  085C               	movf	___flmul@grs+2,w
  5381  02EF  00D6               	movwf	??___flmul+2
  5382  02F0  085D               	movf	___flmul@grs+3,w
  5383  02F1  00D7               	movwf	??___flmul+3
  5384  02F2  3018               	movlw	24
  5385  02F3                     u3275:
  5386  02F3  1003               	clrc
  5387  02F4  0CD7               	rrf	??___flmul+3,f
  5388  02F5  0CD6               	rrf	??___flmul+2,f
  5389  02F6  0CD5               	rrf	??___flmul+1,f
  5390  02F7  0CD4               	rrf	??___flmul,f
  5391  02F8                     u3270:
  5392  02F8  3EFF               	addlw	-1
  5393  02F9  1D03               	skipz
  5394  02FA  2AF3               	goto	u3275
  5395  02FB  0854               	movf	??___flmul,w
  5396  02FC  07E0               	addwf	___flmul@prod,f
  5397  02FD  0855               	movf	??___flmul+1,w
  5398  02FE  1103               	clrz
  5399  02FF  1803               	skipnc
  5400  0300  3E01               	addlw	1
  5401  0301  1903               	skipnz
  5402  0302  2B04               	goto	u3281
  5403  0303  07E1               	addwf	___flmul@prod+1,f
  5404  0304                     u3281:
  5405  0304  0856               	movf	??___flmul+2,w
  5406  0305  1103               	clrz
  5407  0306  1803               	skipnc
  5408  0307  3E01               	addlw	1
  5409  0308  1903               	skipnz
  5410  0309  2B0B               	goto	u3282
  5411  030A  07E2               	addwf	___flmul@prod+2,f
  5412  030B                     u3282:
  5413  030B  0857               	movf	??___flmul+3,w
  5414  030C  1103               	clrz
  5415  030D  1803               	skipnc
  5416  030E  3E01               	addlw	1
  5417  030F  1903               	skipnz
  5418  0310  2B12               	goto	u3283
  5419  0311  07E3               	addwf	___flmul@prod+3,f
  5420  0312                     u3283:
  5421  0312                     l2464:
  5422  0312  3008               	movlw	8
  5423  0313  00D4               	movwf	??___flmul
  5424  0314                     u3295:
  5425  0314  1003               	clrc
  5426  0315  0DDA               	rlf	___flmul@grs,f
  5427  0316  0DDB               	rlf	___flmul@grs+1,f
  5428  0317  0DDC               	rlf	___flmul@grs+2,f
  5429  0318  0DDD               	rlf	___flmul@grs+3,f
  5430  0319  0BD4               	decfsz	??___flmul,f
  5431  031A  2B14               	goto	u3295
  5432  031B                     l2466:
  5433  031B  085F               	movf	___flmul@bexp,w
  5434  031C  075E               	addwf	___flmul@aexp,w
  5435  031D  00D4               	movwf	??___flmul
  5436  031E  01D5               	clrf	??___flmul+1
  5437  031F  0DD5               	rlf	??___flmul+1,f
  5438  0320  0854               	movf	??___flmul,w
  5439  0321  3E82               	addlw	130
  5440  0322  00E4               	movwf	___flmul@temp
  5441  0323  0855               	movf	??___flmul+1,w
  5442  0324  1803               	skipnc
  5443  0325  3E01               	addlw	1
  5444  0326  3EFF               	addlw	255
  5445  0327  00E5               	movwf	___flmul@temp+1
  5446  0328  2B46               	goto	l2478
  5447  0329                     l2468:
  5448  0329  3001               	movlw	1
  5449  032A  00D4               	movwf	??___flmul
  5450  032B                     u3305:
  5451  032B  1003               	clrc
  5452  032C  0DE0               	rlf	___flmul@prod,f
  5453  032D  0DE1               	rlf	___flmul@prod+1,f
  5454  032E  0DE2               	rlf	___flmul@prod+2,f
  5455  032F  0DE3               	rlf	___flmul@prod+3,f
  5456  0330  0BD4               	decfsz	??___flmul,f
  5457  0331  2B2B               	goto	u3305
  5458  0332                     l2470:
  5459  0332  1FDD               	btfss	___flmul@grs+3,7
  5460  0333  2B35               	goto	u3311
  5461  0334  2B36               	goto	u3310
  5462  0335                     u3311:
  5463  0335  2B37               	goto	l2474
  5464  0336                     u3310:
  5465  0336                     l2472:
  5466  0336  1460               	bsf	___flmul@prod,0
  5467  0337                     l2474:
  5468  0337  3001               	movlw	1
  5469  0338  00D4               	movwf	??___flmul
  5470  0339                     u3325:
  5471  0339  1003               	clrc
  5472  033A  0DDA               	rlf	___flmul@grs,f
  5473  033B  0DDB               	rlf	___flmul@grs+1,f
  5474  033C  0DDC               	rlf	___flmul@grs+2,f
  5475  033D  0DDD               	rlf	___flmul@grs+3,f
  5476  033E  0BD4               	decfsz	??___flmul,f
  5477  033F  2B39               	goto	u3325
  5478  0340                     l2476:
  5479  0340  30FF               	movlw	255
  5480  0341  07E4               	addwf	___flmul@temp,f
  5481  0342  1803               	skipnc
  5482  0343  0AE5               	incf	___flmul@temp+1,f
  5483  0344  30FF               	movlw	255
  5484  0345  07E5               	addwf	___flmul@temp+1,f
  5485  0346                     l2478:
  5486  0346  1FE2               	btfss	___flmul@prod+2,7
  5487  0347  2B49               	goto	u3331
  5488  0348  2B4A               	goto	u3330
  5489  0349                     u3331:
  5490  0349  2B29               	goto	l2468
  5491  034A                     u3330:
  5492  034A                     l2480:
  5493  034A  01DE               	clrf	___flmul@aexp
  5494  034B                     l2482:
  5495  034B  1FDD               	btfss	___flmul@grs+3,7
  5496  034C  2B4E               	goto	u3341
  5497  034D  2B4F               	goto	u3340
  5498  034E                     u3341:
  5499  034E  2B6B               	goto	l2490
  5500  034F                     u3340:
  5501  034F                     l2484:
  5502  034F  30FF               	movlw	255
  5503  0350  055A               	andwf	___flmul@grs,w
  5504  0351  00D4               	movwf	??___flmul
  5505  0352  30FF               	movlw	255
  5506  0353  055B               	andwf	___flmul@grs+1,w
  5507  0354  00D5               	movwf	??___flmul+1
  5508  0355  30FF               	movlw	255
  5509  0356  055C               	andwf	___flmul@grs+2,w
  5510  0357  00D6               	movwf	??___flmul+2
  5511  0358  307F               	movlw	127
  5512  0359  055D               	andwf	___flmul@grs+3,w
  5513  035A  00D7               	movwf	??___flmul+3
  5514  035B  0857               	movf	??___flmul+3,w
  5515  035C  0456               	iorwf	??___flmul+2,w
  5516  035D  0455               	iorwf	??___flmul+1,w
  5517  035E  0454               	iorwf	??___flmul,w
  5518  035F  1903               	skipnz
  5519  0360  2B62               	goto	u3351
  5520  0361  2B63               	goto	u3350
  5521  0362                     u3351:
  5522  0362  2B66               	goto	l693
  5523  0363                     u3350:
  5524  0363                     l2486:
  5525  0363  01DE               	clrf	___flmul@aexp
  5526  0364  0ADE               	incf	___flmul@aexp,f
  5527  0365  2B6B               	goto	l2490
  5528  0366                     l693:
  5529  0366  1C60               	btfss	___flmul@prod,0
  5530  0367  2B69               	goto	u3361
  5531  0368  2B6A               	goto	u3360
  5532  0369                     u3361:
  5533  0369  2B6B               	goto	l2490
  5534  036A                     u3360:
  5535  036A  2B63               	goto	l2486
  5536  036B                     l2490:
  5537  036B  085E               	movf	___flmul@aexp,w
  5538  036C  1903               	btfsc	3,2
  5539  036D  2B6F               	goto	u3371
  5540  036E  2B70               	goto	u3370
  5541  036F                     u3371:
  5542  036F  2BA1               	goto	l2500
  5543  0370                     u3370:
  5544  0370                     l2492:
  5545  0370  3001               	movlw	1
  5546  0371  07E0               	addwf	___flmul@prod,f
  5547  0372  3000               	movlw	0
  5548  0373  1803               	skipnc
  5549  0374  3001               	movlw	1
  5550  0375  07E1               	addwf	___flmul@prod+1,f
  5551  0376  3000               	movlw	0
  5552  0377  1803               	skipnc
  5553  0378  3001               	movlw	1
  5554  0379  07E2               	addwf	___flmul@prod+2,f
  5555  037A  3000               	movlw	0
  5556  037B  1803               	skipnc
  5557  037C  3001               	movlw	1
  5558  037D  07E3               	addwf	___flmul@prod+3,f
  5559  037E                     l2494:
  5560  037E  1C63               	btfss	___flmul@prod+3,0
  5561  037F  2B81               	goto	u3381
  5562  0380  2B82               	goto	u3380
  5563  0381                     u3381:
  5564  0381  2BA1               	goto	l2500
  5565  0382                     u3380:
  5566  0382                     l2496:
  5567  0382  0860               	movf	___flmul@prod,w
  5568  0383  00D4               	movwf	??___flmul
  5569  0384  0861               	movf	___flmul@prod+1,w
  5570  0385  00D5               	movwf	??___flmul+1
  5571  0386  0862               	movf	___flmul@prod+2,w
  5572  0387  00D6               	movwf	??___flmul+2
  5573  0388  0863               	movf	___flmul@prod+3,w
  5574  0389  00D7               	movwf	??___flmul+3
  5575  038A  3001               	movlw	1
  5576  038B  00D8               	movwf	??___flmul+4
  5577  038C                     u3395:
  5578  038C  0D57               	rlf	??___flmul+3,w
  5579  038D  0CD7               	rrf	??___flmul+3,f
  5580  038E  0CD6               	rrf	??___flmul+2,f
  5581  038F  0CD5               	rrf	??___flmul+1,f
  5582  0390  0CD4               	rrf	??___flmul,f
  5583  0391                     u3390:
  5584  0391  0BD8               	decfsz	??___flmul+4,f
  5585  0392  2B8C               	goto	u3395
  5586  0393  0857               	movf	??___flmul+3,w
  5587  0394  00E3               	movwf	___flmul@prod+3
  5588  0395  0856               	movf	??___flmul+2,w
  5589  0396  00E2               	movwf	___flmul@prod+2
  5590  0397  0855               	movf	??___flmul+1,w
  5591  0398  00E1               	movwf	___flmul@prod+1
  5592  0399  0854               	movf	??___flmul,w
  5593  039A  00E0               	movwf	___flmul@prod
  5594  039B                     l2498:
  5595  039B  3001               	movlw	1
  5596  039C  07E4               	addwf	___flmul@temp,f
  5597  039D  1803               	skipnc
  5598  039E  0AE5               	incf	___flmul@temp+1,f
  5599  039F  3000               	movlw	0
  5600  03A0  07E5               	addwf	___flmul@temp+1,f
  5601  03A1                     l2500:
  5602  03A1  0865               	movf	___flmul@temp+1,w
  5603  03A2  3A80               	xorlw	128
  5604  03A3  00FF               	movwf	btemp+1
  5605  03A4  3080               	movlw	128
  5606  03A5  027F               	subwf	btemp+1,w
  5607  03A6  1D03               	skipz
  5608  03A7  2BAA               	goto	u3405
  5609  03A8  30FF               	movlw	255
  5610  03A9  0264               	subwf	___flmul@temp,w
  5611  03AA                     u3405:
  5612  03AA  1C03               	skipc
  5613  03AB  2BAD               	goto	u3401
  5614  03AC  2BAE               	goto	u3400
  5615  03AD                     u3401:
  5616  03AD  2BB9               	goto	l2504
  5617  03AE                     u3400:
  5618  03AE                     l2502:
  5619  03AE  307F               	movlw	127
  5620  03AF  1283               	bcf	3,5	;RP0=0, select bank0
  5621  03B0  1303               	bcf	3,6	;RP1=0, select bank0
  5622  03B1  00E3               	movwf	___flmul@prod+3
  5623  03B2  3080               	movlw	128
  5624  03B3  00E2               	movwf	___flmul@prod+2
  5625  03B4  3000               	movlw	0
  5626  03B5  00E1               	movwf	___flmul@prod+1
  5627  03B6  3000               	movlw	0
  5628  03B7  00E0               	movwf	___flmul@prod
  5629  03B8  2BEE               	goto	l699
  5630  03B9                     l2504:
  5631  03B9  1283               	bcf	3,5	;RP0=0, select bank0
  5632  03BA  1303               	bcf	3,6	;RP1=0, select bank0
  5633  03BB  0865               	movf	___flmul@temp+1,w
  5634  03BC  3A80               	xorlw	128
  5635  03BD  00FF               	movwf	btemp+1
  5636  03BE  3080               	movlw	128
  5637  03BF  027F               	subwf	btemp+1,w
  5638  03C0  1D03               	skipz
  5639  03C1  2BC4               	goto	u3415
  5640  03C2  3001               	movlw	1
  5641  03C3  0264               	subwf	___flmul@temp,w
  5642  03C4                     u3415:
  5643  03C4  1803               	skipnc
  5644  03C5  2BC7               	goto	u3411
  5645  03C6  2BC8               	goto	u3410
  5646  03C7                     u3411:
  5647  03C7  2BD4               	goto	l2510
  5648  03C8                     u3410:
  5649  03C8                     l2506:
  5650  03C8  3000               	movlw	0
  5651  03C9  1283               	bcf	3,5	;RP0=0, select bank0
  5652  03CA  1303               	bcf	3,6	;RP1=0, select bank0
  5653  03CB  00E3               	movwf	___flmul@prod+3
  5654  03CC  3000               	movlw	0
  5655  03CD  00E2               	movwf	___flmul@prod+2
  5656  03CE  3000               	movlw	0
  5657  03CF  00E1               	movwf	___flmul@prod+1
  5658  03D0  3000               	movlw	0
  5659  03D1  00E0               	movwf	___flmul@prod
  5660  03D2                     l2508:
  5661  03D2  01D9               	clrf	___flmul@sign
  5662  03D3  2BEE               	goto	l699
  5663  03D4                     l2510:
  5664  03D4  1283               	bcf	3,5	;RP0=0, select bank0
  5665  03D5  1303               	bcf	3,6	;RP1=0, select bank0
  5666  03D6  0864               	movf	___flmul@temp,w
  5667  03D7  00D4               	movwf	??___flmul
  5668  03D8  0854               	movf	??___flmul,w
  5669  03D9  00DF               	movwf	___flmul@bexp
  5670  03DA  30FF               	movlw	255
  5671  03DB  05E0               	andwf	___flmul@prod,f
  5672  03DC  30FF               	movlw	255
  5673  03DD  05E1               	andwf	___flmul@prod+1,f
  5674  03DE  307F               	movlw	127
  5675  03DF  05E2               	andwf	___flmul@prod+2,f
  5676  03E0  3000               	movlw	0
  5677  03E1  05E3               	andwf	___flmul@prod+3,f
  5678  03E2                     l2512:
  5679  03E2  1C5F               	btfss	___flmul@bexp,0
  5680  03E3  2BE5               	goto	u3421
  5681  03E4  2BE6               	goto	u3420
  5682  03E5                     u3421:
  5683  03E5  2BE7               	goto	l2516
  5684  03E6                     u3420:
  5685  03E6                     l2514:
  5686  03E6  17E2               	bsf	___flmul@prod+2,7
  5687  03E7                     l2516:
  5688  03E7  085F               	movf	___flmul@bexp,w
  5689  03E8  00D4               	movwf	??___flmul
  5690  03E9  1003               	clrc
  5691  03EA  0C54               	rrf	??___flmul,w
  5692  03EB  00D5               	movwf	??___flmul+1
  5693  03EC  0855               	movf	??___flmul+1,w
  5694  03ED  00E3               	movwf	___flmul@prod+3
  5695  03EE                     l699:
  5696  03EE  0859               	movf	___flmul@sign,w
  5697  03EF  00D4               	movwf	??___flmul
  5698  03F0  0854               	movf	??___flmul,w
  5699  03F1  04E3               	iorwf	___flmul@prod+3,f
  5700  03F2                     l2518:
  5701  03F2  0863               	movf	___flmul@prod+3,w
  5702  03F3  00CF               	movwf	?___flmul+3
  5703  03F4  0862               	movf	___flmul@prod+2,w
  5704  03F5  00CE               	movwf	?___flmul+2
  5705  03F6  0861               	movf	___flmul@prod+1,w
  5706  03F7  00CD               	movwf	?___flmul+1
  5707  03F8  0860               	movf	___flmul@prod,w
  5708  03F9  00CC               	movwf	?___flmul
  5709  03FA                     l687:
  5710  03FA  0008               	return
  5711  03FB                     __end_of___flmul:
  5712                           
  5713                           	psect	text11
  5714  153C                     __ptext11:	
  5715 ;; *************** function __Umul8_16 *****************
  5716 ;; Defined at:
  5717 ;;		line 4 in file "C:\Program Files\Microchip\xc8\v2.31\pic\sources\c90\common\Umul8_16.c"
  5718 ;; Parameters:    Size  Location     Type
  5719 ;;  multiplier      1    wreg     unsigned char 
  5720 ;;  multiplicand    1    0[COMMON] unsigned char 
  5721 ;; Auto vars:     Size  Location     Type
  5722 ;;  multiplier      1    8[COMMON] unsigned char 
  5723 ;;  word_mpld       2    6[COMMON] unsigned int 
  5724 ;;  product         2    4[COMMON] unsigned int 
  5725 ;; Return value:  Size  Location     Type
  5726 ;;                  2    0[COMMON] unsigned int 
  5727 ;; Registers used:
  5728 ;;		wreg, status,2, status,0
  5729 ;; Tracked objects:
  5730 ;;		On entry : 0/0
  5731 ;;		On exit  : 0/0
  5732 ;;		Unchanged: 0/0
  5733 ;; Data sizes:     COMMON   BANK0   BANK1   BANK3   BANK2
  5734 ;;      Params:         2       0       0       0       0
  5735 ;;      Locals:         5       0       0       0       0
  5736 ;;      Temps:          2       0       0       0       0
  5737 ;;      Totals:         9       0       0       0       0
  5738 ;;Total ram usage:        9 bytes
  5739 ;; Hardware stack levels used:    1
  5740 ;; This function calls:
  5741 ;;		Nothing
  5742 ;; This function is called by:
  5743 ;;		___flmul
  5744 ;; This function uses a non-reentrant model
  5745 ;;
  5746                           
  5747                           
  5748                           ;psect for function __Umul8_16
  5749  153C                     __Umul8_16:
  5750                           
  5751                           ;incstack = 0
  5752                           ; Regs used in __Umul8_16: [wreg+status,2+status,0]
  5753                           ;__Umul8_16@multiplier stored from wreg
  5754  153C  00F8               	movwf	__Umul8_16@multiplier
  5755  153D                     l2070:
  5756  153D  01F4               	clrf	__Umul8_16@product
  5757  153E  01F5               	clrf	__Umul8_16@product+1
  5758  153F                     l2072:
  5759  153F  0870               	movf	__Umul8_16@multiplicand,w
  5760  1540  00F2               	movwf	??__Umul8_16
  5761  1541  01F3               	clrf	??__Umul8_16+1
  5762  1542  0872               	movf	??__Umul8_16,w
  5763  1543  00F6               	movwf	__Umul8_16@word_mpld
  5764  1544  0873               	movf	??__Umul8_16+1,w
  5765  1545  00F7               	movwf	__Umul8_16@word_mpld+1
  5766  1546                     l2074:
  5767  1546  1C78               	btfss	__Umul8_16@multiplier,0
  5768  1547  2D49               	goto	u2401
  5769  1548  2D4A               	goto	u2400
  5770  1549                     u2401:
  5771  1549  2D50               	goto	l706
  5772  154A                     u2400:
  5773  154A                     l2076:
  5774  154A  0876               	movf	__Umul8_16@word_mpld,w
  5775  154B  07F4               	addwf	__Umul8_16@product,f
  5776  154C  1803               	skipnc
  5777  154D  0AF5               	incf	__Umul8_16@product+1,f
  5778  154E  0877               	movf	__Umul8_16@word_mpld+1,w
  5779  154F  07F5               	addwf	__Umul8_16@product+1,f
  5780  1550                     l706:
  5781  1550  3001               	movlw	1
  5782  1551                     u2415:
  5783  1551  1003               	clrc
  5784  1552  0DF6               	rlf	__Umul8_16@word_mpld,f
  5785  1553  0DF7               	rlf	__Umul8_16@word_mpld+1,f
  5786  1554  3EFF               	addlw	-1
  5787  1555  1D03               	skipz
  5788  1556  2D51               	goto	u2415
  5789  1557  1003               	clrc
  5790  1558  0CF8               	rrf	__Umul8_16@multiplier,f
  5791  1559                     l2078:
  5792  1559  0878               	movf	__Umul8_16@multiplier,w
  5793  155A  1D03               	btfss	3,2
  5794  155B  2D5D               	goto	u2421
  5795  155C  2D5E               	goto	u2420
  5796  155D                     u2421:
  5797  155D  2D46               	goto	l2074
  5798  155E                     u2420:
  5799  155E                     l2080:
  5800  155E  0875               	movf	__Umul8_16@product+1,w
  5801  155F  00F1               	movwf	?__Umul8_16+1
  5802  1560  0874               	movf	__Umul8_16@product,w
  5803  1561  00F0               	movwf	?__Umul8_16
  5804  1562                     l708:
  5805  1562  0008               	return
  5806  1563                     __end_of__Umul8_16:
  5807                           
  5808                           	psect	text12
  5809  080E                     __ptext12:	
  5810 ;; *************** function ___flge *****************
  5811 ;; Defined at:
  5812 ;;		line 4 in file "C:\Program Files\Microchip\xc8\v2.31\pic\sources\c90\common\flge.c"
  5813 ;; Parameters:    Size  Location     Type
  5814 ;;  ff1             4    0[COMMON] unsigned int 
  5815 ;;  ff2             4    4[COMMON] unsigned int 
  5816 ;; Auto vars:     Size  Location     Type
  5817 ;;		None
  5818 ;; Return value:  Size  Location     Type
  5819 ;;		None               void
  5820 ;; Registers used:
  5821 ;;		wreg, status,2, status,0
  5822 ;; Tracked objects:
  5823 ;;		On entry : 0/0
  5824 ;;		On exit  : 0/0
  5825 ;;		Unchanged: 0/0
  5826 ;; Data sizes:     COMMON   BANK0   BANK1   BANK3   BANK2
  5827 ;;      Params:         8       0       0       0       0
  5828 ;;      Locals:         0       0       0       0       0
  5829 ;;      Temps:          4       0       0       0       0
  5830 ;;      Totals:        12       0       0       0       0
  5831 ;;Total ram usage:       12 bytes
  5832 ;; Hardware stack levels used:    1
  5833 ;; This function calls:
  5834 ;;		Nothing
  5835 ;; This function is called by:
  5836 ;;		_convert
  5837 ;; This function uses a non-reentrant model
  5838 ;;
  5839                           
  5840                           
  5841                           ;psect for function ___flge
  5842  080E                     ___flge:
  5843  080E                     l2178:	
  5844                           ;incstack = 0
  5845                           ; Regs used in ___flge: [wreg+status,2+status,0]
  5846                           
  5847  080E  3000               	movlw	0
  5848  080F  0570               	andwf	___flge@ff1,w
  5849  0810  00F8               	movwf	??___flge
  5850  0811  3000               	movlw	0
  5851  0812  0571               	andwf	___flge@ff1+1,w
  5852  0813  00F9               	movwf	??___flge+1
  5853  0814  3080               	movlw	128
  5854  0815  0572               	andwf	___flge@ff1+2,w
  5855  0816  00FA               	movwf	??___flge+2
  5856  0817  307F               	movlw	127
  5857  0818  0573               	andwf	___flge@ff1+3,w
  5858  0819  00FB               	movwf	??___flge+3
  5859  081A  087B               	movf	??___flge+3,w
  5860  081B  047A               	iorwf	??___flge+2,w
  5861  081C  0479               	iorwf	??___flge+1,w
  5862  081D  0478               	iorwf	??___flge,w
  5863  081E  1D03               	skipz
  5864  081F  2821               	goto	u2601
  5865  0820  2822               	goto	u2600
  5866  0821                     u2601:
  5867  0821  282A               	goto	l472
  5868  0822                     u2600:
  5869  0822                     l2180:
  5870  0822  3000               	movlw	0
  5871  0823  00F3               	movwf	___flge@ff1+3
  5872  0824  3000               	movlw	0
  5873  0825  00F2               	movwf	___flge@ff1+2
  5874  0826  3000               	movlw	0
  5875  0827  00F1               	movwf	___flge@ff1+1
  5876  0828  3000               	movlw	0
  5877  0829  00F0               	movwf	___flge@ff1
  5878  082A                     l472:
  5879  082A  3000               	movlw	0
  5880  082B  0574               	andwf	___flge@ff2,w
  5881  082C  00F8               	movwf	??___flge
  5882  082D  3000               	movlw	0
  5883  082E  0575               	andwf	___flge@ff2+1,w
  5884  082F  00F9               	movwf	??___flge+1
  5885  0830  3080               	movlw	128
  5886  0831  0576               	andwf	___flge@ff2+2,w
  5887  0832  00FA               	movwf	??___flge+2
  5888  0833  307F               	movlw	127
  5889  0834  0577               	andwf	___flge@ff2+3,w
  5890  0835  00FB               	movwf	??___flge+3
  5891  0836  087B               	movf	??___flge+3,w
  5892  0837  047A               	iorwf	??___flge+2,w
  5893  0838  0479               	iorwf	??___flge+1,w
  5894  0839  0478               	iorwf	??___flge,w
  5895  083A  1D03               	skipz
  5896  083B  283D               	goto	u2611
  5897  083C  283E               	goto	u2610
  5898  083D                     u2611:
  5899  083D  2846               	goto	l2184
  5900  083E                     u2610:
  5901  083E                     l2182:
  5902  083E  3000               	movlw	0
  5903  083F  00F7               	movwf	___flge@ff2+3
  5904  0840  3000               	movlw	0
  5905  0841  00F6               	movwf	___flge@ff2+2
  5906  0842  3000               	movlw	0
  5907  0843  00F5               	movwf	___flge@ff2+1
  5908  0844  3000               	movlw	0
  5909  0845  00F4               	movwf	___flge@ff2
  5910  0846                     l2184:
  5911  0846  1FF3               	btfss	___flge@ff1+3,7
  5912  0847  2849               	goto	u2621
  5913  0848  284A               	goto	u2620
  5914  0849                     u2621:
  5915  0849  286E               	goto	l2188
  5916  084A                     u2620:
  5917  084A                     l2186:
  5918  084A  3000               	movlw	0
  5919  084B  00F8               	movwf	??___flge
  5920  084C  3000               	movlw	0
  5921  084D  00F9               	movwf	??___flge+1
  5922  084E  3000               	movlw	0
  5923  084F  00FA               	movwf	??___flge+2
  5924  0850  3080               	movlw	128
  5925  0851  00FB               	movwf	??___flge+3
  5926  0852  0870               	movf	___flge@ff1,w
  5927  0853  02F8               	subwf	??___flge,f
  5928  0854  0871               	movf	___flge@ff1+1,w
  5929  0855  1C03               	skipc
  5930  0856  0F71               	incfsz	___flge@ff1+1,w
  5931  0857  2859               	goto	u2631
  5932  0858  285A               	goto	u2632
  5933  0859                     u2631:
  5934  0859  02F9               	subwf	??___flge+1,f
  5935  085A                     u2632:
  5936  085A  0872               	movf	___flge@ff1+2,w
  5937  085B  1C03               	skipc
  5938  085C  0F72               	incfsz	___flge@ff1+2,w
  5939  085D  285F               	goto	u2633
  5940  085E  2860               	goto	u2634
  5941  085F                     u2633:
  5942  085F  02FA               	subwf	??___flge+2,f
  5943  0860                     u2634:
  5944  0860  0873               	movf	___flge@ff1+3,w
  5945  0861  1C03               	skipc
  5946  0862  0F73               	incfsz	___flge@ff1+3,w
  5947  0863  2865               	goto	u2635
  5948  0864  2866               	goto	u2636
  5949  0865                     u2635:
  5950  0865  02FB               	subwf	??___flge+3,f
  5951  0866                     u2636:
  5952  0866  087B               	movf	??___flge+3,w
  5953  0867  00F3               	movwf	___flge@ff1+3
  5954  0868  087A               	movf	??___flge+2,w
  5955  0869  00F2               	movwf	___flge@ff1+2
  5956  086A  0879               	movf	??___flge+1,w
  5957  086B  00F1               	movwf	___flge@ff1+1
  5958  086C  0878               	movf	??___flge,w
  5959  086D  00F0               	movwf	___flge@ff1
  5960  086E                     l2188:
  5961  086E  1FF7               	btfss	___flge@ff2+3,7
  5962  086F  2871               	goto	u2641
  5963  0870  2872               	goto	u2640
  5964  0871                     u2641:
  5965  0871  2896               	goto	l475
  5966  0872                     u2640:
  5967  0872                     l2190:
  5968  0872  3000               	movlw	0
  5969  0873  00F8               	movwf	??___flge
  5970  0874  3000               	movlw	0
  5971  0875  00F9               	movwf	??___flge+1
  5972  0876  3000               	movlw	0
  5973  0877  00FA               	movwf	??___flge+2
  5974  0878  3080               	movlw	128
  5975  0879  00FB               	movwf	??___flge+3
  5976  087A  0874               	movf	___flge@ff2,w
  5977  087B  02F8               	subwf	??___flge,f
  5978  087C  0875               	movf	___flge@ff2+1,w
  5979  087D  1C03               	skipc
  5980  087E  0F75               	incfsz	___flge@ff2+1,w
  5981  087F  2881               	goto	u2651
  5982  0880  2882               	goto	u2652
  5983  0881                     u2651:
  5984  0881  02F9               	subwf	??___flge+1,f
  5985  0882                     u2652:
  5986  0882  0876               	movf	___flge@ff2+2,w
  5987  0883  1C03               	skipc
  5988  0884  0F76               	incfsz	___flge@ff2+2,w
  5989  0885  2887               	goto	u2653
  5990  0886  2888               	goto	u2654
  5991  0887                     u2653:
  5992  0887  02FA               	subwf	??___flge+2,f
  5993  0888                     u2654:
  5994  0888  0877               	movf	___flge@ff2+3,w
  5995  0889  1C03               	skipc
  5996  088A  0F77               	incfsz	___flge@ff2+3,w
  5997  088B  288D               	goto	u2655
  5998  088C  288E               	goto	u2656
  5999  088D                     u2655:
  6000  088D  02FB               	subwf	??___flge+3,f
  6001  088E                     u2656:
  6002  088E  087B               	movf	??___flge+3,w
  6003  088F  00F7               	movwf	___flge@ff2+3
  6004  0890  087A               	movf	??___flge+2,w
  6005  0891  00F6               	movwf	___flge@ff2+2
  6006  0892  0879               	movf	??___flge+1,w
  6007  0893  00F5               	movwf	___flge@ff2+1
  6008  0894  0878               	movf	??___flge,w
  6009  0895  00F4               	movwf	___flge@ff2
  6010  0896                     l475:
  6011  0896  3080               	movlw	128
  6012  0897  06F3               	xorwf	___flge@ff1+3,f
  6013  0898  3080               	movlw	128
  6014  0899  06F7               	xorwf	___flge@ff2+3,f
  6015  089A  0877               	movf	___flge@ff2+3,w
  6016  089B  0273               	subwf	___flge@ff1+3,w
  6017  089C  1D03               	skipz
  6018  089D  28A8               	goto	u2665
  6019  089E  0876               	movf	___flge@ff2+2,w
  6020  089F  0272               	subwf	___flge@ff1+2,w
  6021  08A0  1D03               	skipz
  6022  08A1  28A8               	goto	u2665
  6023  08A2  0875               	movf	___flge@ff2+1,w
  6024  08A3  0271               	subwf	___flge@ff1+1,w
  6025  08A4  1D03               	skipz
  6026  08A5  28A8               	goto	u2665
  6027  08A6  0874               	movf	___flge@ff2,w
  6028  08A7  0270               	subwf	___flge@ff1,w
  6029  08A8                     u2665:
  6030  08A8  1803               	skipnc
  6031  08A9  28AB               	goto	u2661
  6032  08AA  28AC               	goto	u2660
  6033  08AB                     u2661:
  6034  08AB  28AE               	goto	l2194
  6035  08AC                     u2660:
  6036  08AC                     l2192:
  6037  08AC  1003               	clrc
  6038  08AD  28AF               	goto	l476
  6039  08AE                     l2194:
  6040  08AE  1403               	setc
  6041  08AF                     l476:
  6042  08AF  0008               	return
  6043  08B0                     __end_of___flge:
  6044                           
  6045                           	psect	text13
  6046  08B0                     __ptext13:	
  6047 ;; *************** function ___fldiv *****************
  6048 ;; Defined at:
  6049 ;;		line 8 in file "C:\Program Files\Microchip\xc8\v2.31\pic\sources\c90\common\sprcdiv.c"
  6050 ;; Parameters:    Size  Location     Type
  6051 ;;  a               4   18[BANK0 ] unsigned int 
  6052 ;;  b               4   22[BANK0 ] unsigned int 
  6053 ;; Auto vars:     Size  Location     Type
  6054 ;;  grs             4   38[BANK0 ] unsigned long 
  6055 ;;  rem             4   31[BANK0 ] unsigned long 
  6056 ;;  new_exp         2   36[BANK0 ] int 
  6057 ;;  aexp            1   43[BANK0 ] unsigned char 
  6058 ;;  bexp            1   42[BANK0 ] unsigned char 
  6059 ;;  sign            1   35[BANK0 ] unsigned char 
  6060 ;; Return value:  Size  Location     Type
  6061 ;;                  4   18[BANK0 ] unsigned char 
  6062 ;; Registers used:
  6063 ;;		wreg, status,2, status,0, btemp+1
  6064 ;; Tracked objects:
  6065 ;;		On entry : 0/0
  6066 ;;		On exit  : 0/0
  6067 ;;		Unchanged: 0/0
  6068 ;; Data sizes:     COMMON   BANK0   BANK1   BANK3   BANK2
  6069 ;;      Params:         0       8       0       0       0
  6070 ;;      Locals:         0      13       0       0       0
  6071 ;;      Temps:          0       5       0       0       0
  6072 ;;      Totals:         0      26       0       0       0
  6073 ;;Total ram usage:       26 bytes
  6074 ;; Hardware stack levels used:    1
  6075 ;; This function calls:
  6076 ;;		Nothing
  6077 ;; This function is called by:
  6078 ;;		_main
  6079 ;;		_convert
  6080 ;; This function uses a non-reentrant model
  6081 ;;
  6082                           
  6083                           
  6084                           ;psect for function ___fldiv
  6085  08B0                     ___fldiv:
  6086  08B0                     l2240:	
  6087                           ;incstack = 0
  6088                           ; Regs used in ___fldiv: [wreg+status,2+status,0+btemp+1]
  6089                           
  6090  08B0  1283               	bcf	3,5	;RP0=0, select bank0
  6091  08B1  1303               	bcf	3,6	;RP1=0, select bank0
  6092  08B2  0839               	movf	___fldiv@b+3,w
  6093  08B3  3980               	andlw	128
  6094  08B4  00BA               	movwf	??___fldiv
  6095  08B5  083A               	movf	??___fldiv,w
  6096  08B6  00C3               	movwf	___fldiv@sign
  6097  08B7                     l2242:
  6098  08B7  0839               	movf	___fldiv@b+3,w
  6099  08B8  00BA               	movwf	??___fldiv
  6100  08B9  073A               	addwf	??___fldiv,w
  6101  08BA  00BB               	movwf	??___fldiv+1
  6102  08BB  083B               	movf	??___fldiv+1,w
  6103  08BC  00CA               	movwf	___fldiv@bexp
  6104  08BD                     l2244:
  6105  08BD  1FB8               	btfss	___fldiv@b+2,7
  6106  08BE  28C0               	goto	u2771
  6107  08BF  28C1               	goto	u2770
  6108  08C0                     u2771:
  6109  08C0  28C2               	goto	l2248
  6110  08C1                     u2770:
  6111  08C1                     l2246:
  6112  08C1  144A               	bsf	___fldiv@bexp,0
  6113  08C2                     l2248:
  6114  08C2  084A               	movf	___fldiv@bexp,w
  6115  08C3  1903               	btfsc	3,2
  6116  08C4  28C6               	goto	u2781
  6117  08C5  28C7               	goto	u2780
  6118  08C6                     u2781:
  6119  08C6  28D7               	goto	l2258
  6120  08C7                     u2780:
  6121  08C7                     l2250:
  6122  08C7  0A4A               	incf	___fldiv@bexp,w
  6123  08C8  1D03               	btfss	3,2
  6124  08C9  28CB               	goto	u2791
  6125  08CA  28CC               	goto	u2790
  6126  08CB                     u2791:
  6127  08CB  28D4               	goto	l2254
  6128  08CC                     u2790:
  6129  08CC                     l2252:
  6130  08CC  3000               	movlw	0
  6131  08CD  00B9               	movwf	___fldiv@b+3
  6132  08CE  3000               	movlw	0
  6133  08CF  00B8               	movwf	___fldiv@b+2
  6134  08D0  3000               	movlw	0
  6135  08D1  00B7               	movwf	___fldiv@b+1
  6136  08D2  3000               	movlw	0
  6137  08D3  00B6               	movwf	___fldiv@b
  6138  08D4                     l2254:
  6139  08D4  17B8               	bsf	___fldiv@b+2,7
  6140  08D5                     l2256:
  6141  08D5  01B9               	clrf	___fldiv@b+3
  6142  08D6  28DF               	goto	l2260
  6143  08D7                     l2258:
  6144  08D7  3000               	movlw	0
  6145  08D8  00B9               	movwf	___fldiv@b+3
  6146  08D9  3000               	movlw	0
  6147  08DA  00B8               	movwf	___fldiv@b+2
  6148  08DB  3000               	movlw	0
  6149  08DC  00B7               	movwf	___fldiv@b+1
  6150  08DD  3000               	movlw	0
  6151  08DE  00B6               	movwf	___fldiv@b
  6152  08DF                     l2260:
  6153  08DF  0835               	movf	___fldiv@a+3,w
  6154  08E0  3980               	andlw	128
  6155  08E1  00BA               	movwf	??___fldiv
  6156  08E2  083A               	movf	??___fldiv,w
  6157  08E3  06C3               	xorwf	___fldiv@sign,f
  6158  08E4                     l2262:
  6159  08E4  0835               	movf	___fldiv@a+3,w
  6160  08E5  00BA               	movwf	??___fldiv
  6161  08E6  073A               	addwf	??___fldiv,w
  6162  08E7  00BB               	movwf	??___fldiv+1
  6163  08E8  083B               	movf	??___fldiv+1,w
  6164  08E9  00CB               	movwf	___fldiv@aexp
  6165  08EA                     l2264:
  6166  08EA  1FB4               	btfss	___fldiv@a+2,7
  6167  08EB  28ED               	goto	u2801
  6168  08EC  28EE               	goto	u2800
  6169  08ED                     u2801:
  6170  08ED  28EF               	goto	l2268
  6171  08EE                     u2800:
  6172  08EE                     l2266:
  6173  08EE  144B               	bsf	___fldiv@aexp,0
  6174  08EF                     l2268:
  6175  08EF  084B               	movf	___fldiv@aexp,w
  6176  08F0  1903               	btfsc	3,2
  6177  08F1  28F3               	goto	u2811
  6178  08F2  28F4               	goto	u2810
  6179  08F3                     u2811:
  6180  08F3  2904               	goto	l2278
  6181  08F4                     u2810:
  6182  08F4                     l2270:
  6183  08F4  0A4B               	incf	___fldiv@aexp,w
  6184  08F5  1D03               	btfss	3,2
  6185  08F6  28F8               	goto	u2821
  6186  08F7  28F9               	goto	u2820
  6187  08F8                     u2821:
  6188  08F8  2901               	goto	l2274
  6189  08F9                     u2820:
  6190  08F9                     l2272:
  6191  08F9  3000               	movlw	0
  6192  08FA  00B5               	movwf	___fldiv@a+3
  6193  08FB  3000               	movlw	0
  6194  08FC  00B4               	movwf	___fldiv@a+2
  6195  08FD  3000               	movlw	0
  6196  08FE  00B3               	movwf	___fldiv@a+1
  6197  08FF  3000               	movlw	0
  6198  0900  00B2               	movwf	___fldiv@a
  6199  0901                     l2274:
  6200  0901  17B4               	bsf	___fldiv@a+2,7
  6201  0902                     l2276:
  6202  0902  01B5               	clrf	___fldiv@a+3
  6203  0903  290C               	goto	l647
  6204  0904                     l2278:
  6205  0904  3000               	movlw	0
  6206  0905  00B5               	movwf	___fldiv@a+3
  6207  0906  3000               	movlw	0
  6208  0907  00B4               	movwf	___fldiv@a+2
  6209  0908  3000               	movlw	0
  6210  0909  00B3               	movwf	___fldiv@a+1
  6211  090A  3000               	movlw	0
  6212  090B  00B2               	movwf	___fldiv@a
  6213  090C                     l647:
  6214  090C  0835               	movf	___fldiv@a+3,w
  6215  090D  0434               	iorwf	___fldiv@a+2,w
  6216  090E  0433               	iorwf	___fldiv@a+1,w
  6217  090F  0432               	iorwf	___fldiv@a,w
  6218  0910  1D03               	skipz
  6219  0911  2913               	goto	u2831
  6220  0912  2914               	goto	u2830
  6221  0913                     u2831:
  6222  0913  292D               	goto	l2288
  6223  0914                     u2830:
  6224  0914                     l2280:
  6225  0914  3000               	movlw	0
  6226  0915  00B9               	movwf	___fldiv@b+3
  6227  0916  3000               	movlw	0
  6228  0917  00B8               	movwf	___fldiv@b+2
  6229  0918  3000               	movlw	0
  6230  0919  00B7               	movwf	___fldiv@b+1
  6231  091A  3000               	movlw	0
  6232  091B  00B6               	movwf	___fldiv@b
  6233  091C  3080               	movlw	128
  6234  091D  04B8               	iorwf	___fldiv@b+2,f
  6235  091E  307F               	movlw	127
  6236  091F  04B9               	iorwf	___fldiv@b+3,f
  6237  0920                     l2282:
  6238  0920  0843               	movf	___fldiv@sign,w
  6239  0921  00BA               	movwf	??___fldiv
  6240  0922  083A               	movf	??___fldiv,w
  6241  0923  04B9               	iorwf	___fldiv@b+3,f
  6242  0924                     l2284:
  6243  0924  0839               	movf	___fldiv@b+3,w
  6244  0925  00B5               	movwf	?___fldiv+3
  6245  0926  0838               	movf	___fldiv@b+2,w
  6246  0927  00B4               	movwf	?___fldiv+2
  6247  0928  0837               	movf	___fldiv@b+1,w
  6248  0929  00B3               	movwf	?___fldiv+1
  6249  092A  0836               	movf	___fldiv@b,w
  6250  092B  00B2               	movwf	?___fldiv
  6251  092C  2A8C               	goto	l649
  6252  092D                     l2288:
  6253  092D  084A               	movf	___fldiv@bexp,w
  6254  092E  1D03               	btfss	3,2
  6255  092F  2931               	goto	u2841
  6256  0930  2932               	goto	u2840
  6257  0931                     u2841:
  6258  0931  293B               	goto	l2294
  6259  0932                     u2840:
  6260  0932                     l2290:
  6261  0932  3000               	movlw	0
  6262  0933  00B5               	movwf	?___fldiv+3
  6263  0934  3000               	movlw	0
  6264  0935  00B4               	movwf	?___fldiv+2
  6265  0936  3000               	movlw	0
  6266  0937  00B3               	movwf	?___fldiv+1
  6267  0938  3000               	movlw	0
  6268  0939  00B2               	movwf	?___fldiv
  6269  093A  2A8C               	goto	l649
  6270  093B                     l2294:
  6271  093B  084A               	movf	___fldiv@bexp,w
  6272  093C  00BA               	movwf	??___fldiv
  6273  093D  01BB               	clrf	??___fldiv+1
  6274  093E  083B               	movf	??___fldiv+1,w
  6275  093F  00BD               	movwf	??___fldiv+3
  6276  0940  084B               	movf	___fldiv@aexp,w
  6277  0941  023A               	subwf	??___fldiv,w
  6278  0942  00BC               	movwf	??___fldiv+2
  6279  0943  1C03               	skipc
  6280  0944  03BD               	decf	??___fldiv+3,f
  6281  0945  083C               	movf	??___fldiv+2,w
  6282  0946  3E7F               	addlw	127
  6283  0947  00C4               	movwf	___fldiv@new_exp
  6284  0948  083D               	movf	??___fldiv+3,w
  6285  0949  1803               	skipnc
  6286  094A  3E01               	addlw	1
  6287  094B  3E00               	addlw	0
  6288  094C  00C5               	movwf	___fldiv@new_exp+1
  6289  094D                     l2296:
  6290  094D  0839               	movf	___fldiv@b+3,w
  6291  094E  00C2               	movwf	___fldiv@rem+3
  6292  094F  0838               	movf	___fldiv@b+2,w
  6293  0950  00C1               	movwf	___fldiv@rem+2
  6294  0951  0837               	movf	___fldiv@b+1,w
  6295  0952  00C0               	movwf	___fldiv@rem+1
  6296  0953  0836               	movf	___fldiv@b,w
  6297  0954  00BF               	movwf	___fldiv@rem
  6298  0955                     l2298:
  6299  0955  3000               	movlw	0
  6300  0956  00B9               	movwf	___fldiv@b+3
  6301  0957  3000               	movlw	0
  6302  0958  00B8               	movwf	___fldiv@b+2
  6303  0959  3000               	movlw	0
  6304  095A  00B7               	movwf	___fldiv@b+1
  6305  095B  3000               	movlw	0
  6306  095C  00B6               	movwf	___fldiv@b
  6307  095D                     l2300:
  6308  095D  3000               	movlw	0
  6309  095E  00C9               	movwf	___fldiv@grs+3
  6310  095F  3000               	movlw	0
  6311  0960  00C8               	movwf	___fldiv@grs+2
  6312  0961  3000               	movlw	0
  6313  0962  00C7               	movwf	___fldiv@grs+1
  6314  0963  3000               	movlw	0
  6315  0964  00C6               	movwf	___fldiv@grs
  6316  0965                     l2302:
  6317  0965  01CB               	clrf	___fldiv@aexp
  6318  0966  29B1               	goto	l2322
  6319  0967                     l2304:
  6320  0967  084B               	movf	___fldiv@aexp,w
  6321  0968  1903               	btfsc	3,2
  6322  0969  296B               	goto	u2851
  6323  096A  296C               	goto	u2850
  6324  096B                     u2851:
  6325  096B  298C               	goto	l2314
  6326  096C                     u2850:
  6327  096C                     l2306:
  6328  096C  3001               	movlw	1
  6329  096D  00BA               	movwf	??___fldiv
  6330  096E                     u2865:
  6331  096E  1003               	clrc
  6332  096F  0DBF               	rlf	___fldiv@rem,f
  6333  0970  0DC0               	rlf	___fldiv@rem+1,f
  6334  0971  0DC1               	rlf	___fldiv@rem+2,f
  6335  0972  0DC2               	rlf	___fldiv@rem+3,f
  6336  0973  0BBA               	decfsz	??___fldiv,f
  6337  0974  296E               	goto	u2865
  6338  0975  3001               	movlw	1
  6339  0976  00BA               	movwf	??___fldiv
  6340  0977                     u2875:
  6341  0977  1003               	clrc
  6342  0978  0DB6               	rlf	___fldiv@b,f
  6343  0979  0DB7               	rlf	___fldiv@b+1,f
  6344  097A  0DB8               	rlf	___fldiv@b+2,f
  6345  097B  0DB9               	rlf	___fldiv@b+3,f
  6346  097C  0BBA               	decfsz	??___fldiv,f
  6347  097D  2977               	goto	u2875
  6348  097E                     l2308:
  6349  097E  1FC9               	btfss	___fldiv@grs+3,7
  6350  097F  2981               	goto	u2881
  6351  0980  2982               	goto	u2880
  6352  0981                     u2881:
  6353  0981  2983               	goto	l2312
  6354  0982                     u2880:
  6355  0982                     l2310:
  6356  0982  1436               	bsf	___fldiv@b,0
  6357  0983                     l2312:
  6358  0983  3001               	movlw	1
  6359  0984  00BA               	movwf	??___fldiv
  6360  0985                     u2895:
  6361  0985  1003               	clrc
  6362  0986  0DC6               	rlf	___fldiv@grs,f
  6363  0987  0DC7               	rlf	___fldiv@grs+1,f
  6364  0988  0DC8               	rlf	___fldiv@grs+2,f
  6365  0989  0DC9               	rlf	___fldiv@grs+3,f
  6366  098A  0BBA               	decfsz	??___fldiv,f
  6367  098B  2985               	goto	u2895
  6368  098C                     l2314:
  6369  098C  0835               	movf	___fldiv@a+3,w
  6370  098D  0242               	subwf	___fldiv@rem+3,w
  6371  098E  1D03               	skipz
  6372  098F  299A               	goto	u2905
  6373  0990  0834               	movf	___fldiv@a+2,w
  6374  0991  0241               	subwf	___fldiv@rem+2,w
  6375  0992  1D03               	skipz
  6376  0993  299A               	goto	u2905
  6377  0994  0833               	movf	___fldiv@a+1,w
  6378  0995  0240               	subwf	___fldiv@rem+1,w
  6379  0996  1D03               	skipz
  6380  0997  299A               	goto	u2905
  6381  0998  0832               	movf	___fldiv@a,w
  6382  0999  023F               	subwf	___fldiv@rem,w
  6383  099A                     u2905:
  6384  099A  1C03               	skipc
  6385  099B  299D               	goto	u2901
  6386  099C  299E               	goto	u2900
  6387  099D                     u2901:
  6388  099D  29AD               	goto	l2320
  6389  099E                     u2900:
  6390  099E                     l2316:
  6391  099E  1749               	bsf	___fldiv@grs+3,6
  6392  099F                     l2318:
  6393  099F  0832               	movf	___fldiv@a,w
  6394  09A0  02BF               	subwf	___fldiv@rem,f
  6395  09A1  0833               	movf	___fldiv@a+1,w
  6396  09A2  1C03               	skipc
  6397  09A3  0F33               	incfsz	___fldiv@a+1,w
  6398  09A4  02C0               	subwf	___fldiv@rem+1,f
  6399  09A5  0834               	movf	___fldiv@a+2,w
  6400  09A6  1C03               	skipc
  6401  09A7  0F34               	incfsz	___fldiv@a+2,w
  6402  09A8  02C1               	subwf	___fldiv@rem+2,f
  6403  09A9  0835               	movf	___fldiv@a+3,w
  6404  09AA  1C03               	skipc
  6405  09AB  0F35               	incfsz	___fldiv@a+3,w
  6406  09AC  02C2               	subwf	___fldiv@rem+3,f
  6407  09AD                     l2320:
  6408  09AD  3001               	movlw	1
  6409  09AE  00BA               	movwf	??___fldiv
  6410  09AF  083A               	movf	??___fldiv,w
  6411  09B0  07CB               	addwf	___fldiv@aexp,f
  6412  09B1                     l2322:
  6413  09B1  301A               	movlw	26
  6414  09B2  024B               	subwf	___fldiv@aexp,w
  6415  09B3  1C03               	skipc
  6416  09B4  29B6               	goto	u2911
  6417  09B5  29B7               	goto	u2910
  6418  09B6                     u2911:
  6419  09B6  2967               	goto	l2304
  6420  09B7                     u2910:
  6421  09B7                     l2324:
  6422  09B7  0842               	movf	___fldiv@rem+3,w
  6423  09B8  0441               	iorwf	___fldiv@rem+2,w
  6424  09B9  0440               	iorwf	___fldiv@rem+1,w
  6425  09BA  043F               	iorwf	___fldiv@rem,w
  6426  09BB  1903               	skipnz
  6427  09BC  29BE               	goto	u2921
  6428  09BD  29BF               	goto	u2920
  6429  09BE                     u2921:
  6430  09BE  29DE               	goto	l2338
  6431  09BF                     u2920:
  6432  09BF                     l2326:
  6433  09BF  1446               	bsf	___fldiv@grs,0
  6434  09C0  29DE               	goto	l2338
  6435  09C1                     l2328:
  6436  09C1  3001               	movlw	1
  6437  09C2  00BA               	movwf	??___fldiv
  6438  09C3                     u2935:
  6439  09C3  1003               	clrc
  6440  09C4  0DB6               	rlf	___fldiv@b,f
  6441  09C5  0DB7               	rlf	___fldiv@b+1,f
  6442  09C6  0DB8               	rlf	___fldiv@b+2,f
  6443  09C7  0DB9               	rlf	___fldiv@b+3,f
  6444  09C8  0BBA               	decfsz	??___fldiv,f
  6445  09C9  29C3               	goto	u2935
  6446  09CA                     l2330:
  6447  09CA  1FC9               	btfss	___fldiv@grs+3,7
  6448  09CB  29CD               	goto	u2941
  6449  09CC  29CE               	goto	u2940
  6450  09CD                     u2941:
  6451  09CD  29CF               	goto	l2334
  6452  09CE                     u2940:
  6453  09CE                     l2332:
  6454  09CE  1436               	bsf	___fldiv@b,0
  6455  09CF                     l2334:
  6456  09CF  3001               	movlw	1
  6457  09D0  00BA               	movwf	??___fldiv
  6458  09D1                     u2955:
  6459  09D1  1003               	clrc
  6460  09D2  0DC6               	rlf	___fldiv@grs,f
  6461  09D3  0DC7               	rlf	___fldiv@grs+1,f
  6462  09D4  0DC8               	rlf	___fldiv@grs+2,f
  6463  09D5  0DC9               	rlf	___fldiv@grs+3,f
  6464  09D6  0BBA               	decfsz	??___fldiv,f
  6465  09D7  29D1               	goto	u2955
  6466  09D8                     l2336:
  6467  09D8  30FF               	movlw	255
  6468  09D9  07C4               	addwf	___fldiv@new_exp,f
  6469  09DA  1803               	skipnc
  6470  09DB  0AC5               	incf	___fldiv@new_exp+1,f
  6471  09DC  30FF               	movlw	255
  6472  09DD  07C5               	addwf	___fldiv@new_exp+1,f
  6473  09DE                     l2338:
  6474  09DE  1FB8               	btfss	___fldiv@b+2,7
  6475  09DF  29E1               	goto	u2961
  6476  09E0  29E2               	goto	u2960
  6477  09E1                     u2961:
  6478  09E1  29C1               	goto	l2328
  6479  09E2                     u2960:
  6480  09E2                     l2340:
  6481  09E2  01CB               	clrf	___fldiv@aexp
  6482  09E3                     l2342:
  6483  09E3  1FC9               	btfss	___fldiv@grs+3,7
  6484  09E4  29E6               	goto	u2971
  6485  09E5  29E7               	goto	u2970
  6486  09E6                     u2971:
  6487  09E6  2A03               	goto	l2350
  6488  09E7                     u2970:
  6489  09E7                     l2344:
  6490  09E7  30FF               	movlw	255
  6491  09E8  0546               	andwf	___fldiv@grs,w
  6492  09E9  00BA               	movwf	??___fldiv
  6493  09EA  30FF               	movlw	255
  6494  09EB  0547               	andwf	___fldiv@grs+1,w
  6495  09EC  00BB               	movwf	??___fldiv+1
  6496  09ED  30FF               	movlw	255
  6497  09EE  0548               	andwf	___fldiv@grs+2,w
  6498  09EF  00BC               	movwf	??___fldiv+2
  6499  09F0  307F               	movlw	127
  6500  09F1  0549               	andwf	___fldiv@grs+3,w
  6501  09F2  00BD               	movwf	??___fldiv+3
  6502  09F3  083D               	movf	??___fldiv+3,w
  6503  09F4  043C               	iorwf	??___fldiv+2,w
  6504  09F5  043B               	iorwf	??___fldiv+1,w
  6505  09F6  043A               	iorwf	??___fldiv,w
  6506  09F7  1903               	skipnz
  6507  09F8  29FA               	goto	u2981
  6508  09F9  29FB               	goto	u2980
  6509  09FA                     u2981:
  6510  09FA  29FE               	goto	l663
  6511  09FB                     u2980:
  6512  09FB                     l2346:
  6513  09FB  01CB               	clrf	___fldiv@aexp
  6514  09FC  0ACB               	incf	___fldiv@aexp,f
  6515  09FD  2A03               	goto	l2350
  6516  09FE                     l663:
  6517  09FE  1C36               	btfss	___fldiv@b,0
  6518  09FF  2A01               	goto	u2991
  6519  0A00  2A02               	goto	u2990
  6520  0A01                     u2991:
  6521  0A01  2A03               	goto	l2350
  6522  0A02                     u2990:
  6523  0A02  29FB               	goto	l2346
  6524  0A03                     l2350:
  6525  0A03  084B               	movf	___fldiv@aexp,w
  6526  0A04  1903               	btfsc	3,2
  6527  0A05  2A07               	goto	u3001
  6528  0A06  2A08               	goto	u3000
  6529  0A07                     u3001:
  6530  0A07  2A39               	goto	l2360
  6531  0A08                     u3000:
  6532  0A08                     l2352:
  6533  0A08  3001               	movlw	1
  6534  0A09  07B6               	addwf	___fldiv@b,f
  6535  0A0A  3000               	movlw	0
  6536  0A0B  1803               	skipnc
  6537  0A0C  3001               	movlw	1
  6538  0A0D  07B7               	addwf	___fldiv@b+1,f
  6539  0A0E  3000               	movlw	0
  6540  0A0F  1803               	skipnc
  6541  0A10  3001               	movlw	1
  6542  0A11  07B8               	addwf	___fldiv@b+2,f
  6543  0A12  3000               	movlw	0
  6544  0A13  1803               	skipnc
  6545  0A14  3001               	movlw	1
  6546  0A15  07B9               	addwf	___fldiv@b+3,f
  6547  0A16                     l2354:
  6548  0A16  1C39               	btfss	___fldiv@b+3,0
  6549  0A17  2A19               	goto	u3011
  6550  0A18  2A1A               	goto	u3010
  6551  0A19                     u3011:
  6552  0A19  2A39               	goto	l2360
  6553  0A1A                     u3010:
  6554  0A1A                     l2356:
  6555  0A1A  0836               	movf	___fldiv@b,w
  6556  0A1B  00BA               	movwf	??___fldiv
  6557  0A1C  0837               	movf	___fldiv@b+1,w
  6558  0A1D  00BB               	movwf	??___fldiv+1
  6559  0A1E  0838               	movf	___fldiv@b+2,w
  6560  0A1F  00BC               	movwf	??___fldiv+2
  6561  0A20  0839               	movf	___fldiv@b+3,w
  6562  0A21  00BD               	movwf	??___fldiv+3
  6563  0A22  3001               	movlw	1
  6564  0A23  00BE               	movwf	??___fldiv+4
  6565  0A24                     u3025:
  6566  0A24  0D3D               	rlf	??___fldiv+3,w
  6567  0A25  0CBD               	rrf	??___fldiv+3,f
  6568  0A26  0CBC               	rrf	??___fldiv+2,f
  6569  0A27  0CBB               	rrf	??___fldiv+1,f
  6570  0A28  0CBA               	rrf	??___fldiv,f
  6571  0A29                     u3020:
  6572  0A29  0BBE               	decfsz	??___fldiv+4,f
  6573  0A2A  2A24               	goto	u3025
  6574  0A2B  083D               	movf	??___fldiv+3,w
  6575  0A2C  00B9               	movwf	___fldiv@b+3
  6576  0A2D  083C               	movf	??___fldiv+2,w
  6577  0A2E  00B8               	movwf	___fldiv@b+2
  6578  0A2F  083B               	movf	??___fldiv+1,w
  6579  0A30  00B7               	movwf	___fldiv@b+1
  6580  0A31  083A               	movf	??___fldiv,w
  6581  0A32  00B6               	movwf	___fldiv@b
  6582  0A33                     l2358:
  6583  0A33  3001               	movlw	1
  6584  0A34  07C4               	addwf	___fldiv@new_exp,f
  6585  0A35  1803               	skipnc
  6586  0A36  0AC5               	incf	___fldiv@new_exp+1,f
  6587  0A37  3000               	movlw	0
  6588  0A38  07C5               	addwf	___fldiv@new_exp+1,f
  6589  0A39                     l2360:
  6590  0A39  0845               	movf	___fldiv@new_exp+1,w
  6591  0A3A  3A80               	xorlw	128
  6592  0A3B  00FF               	movwf	btemp+1
  6593  0A3C  3080               	movlw	128
  6594  0A3D  027F               	subwf	btemp+1,w
  6595  0A3E  1D03               	skipz
  6596  0A3F  2A42               	goto	u3035
  6597  0A40  30FF               	movlw	255
  6598  0A41  0244               	subwf	___fldiv@new_exp,w
  6599  0A42                     u3035:
  6600  0A42  1C03               	skipc
  6601  0A43  2A45               	goto	u3031
  6602  0A44  2A46               	goto	u3030
  6603  0A45                     u3031:
  6604  0A45  2A54               	goto	l2364
  6605  0A46                     u3030:
  6606  0A46                     l2362:
  6607  0A46  30FF               	movlw	255
  6608  0A47  1283               	bcf	3,5	;RP0=0, select bank0
  6609  0A48  1303               	bcf	3,6	;RP1=0, select bank0
  6610  0A49  00C4               	movwf	___fldiv@new_exp
  6611  0A4A  3000               	movlw	0
  6612  0A4B  00C5               	movwf	___fldiv@new_exp+1
  6613  0A4C  3000               	movlw	0
  6614  0A4D  00B9               	movwf	___fldiv@b+3
  6615  0A4E  3000               	movlw	0
  6616  0A4F  00B8               	movwf	___fldiv@b+2
  6617  0A50  3000               	movlw	0
  6618  0A51  00B7               	movwf	___fldiv@b+1
  6619  0A52  3000               	movlw	0
  6620  0A53  00B6               	movwf	___fldiv@b
  6621  0A54                     l2364:
  6622  0A54  1283               	bcf	3,5	;RP0=0, select bank0
  6623  0A55  1303               	bcf	3,6	;RP1=0, select bank0
  6624  0A56  0845               	movf	___fldiv@new_exp+1,w
  6625  0A57  3A80               	xorlw	128
  6626  0A58  00FF               	movwf	btemp+1
  6627  0A59  3080               	movlw	128
  6628  0A5A  027F               	subwf	btemp+1,w
  6629  0A5B  1D03               	skipz
  6630  0A5C  2A5F               	goto	u3045
  6631  0A5D  3001               	movlw	1
  6632  0A5E  0244               	subwf	___fldiv@new_exp,w
  6633  0A5F                     u3045:
  6634  0A5F  1803               	skipnc
  6635  0A60  2A62               	goto	u3041
  6636  0A61  2A63               	goto	u3040
  6637  0A62                     u3041:
  6638  0A62  2A70               	goto	l669
  6639  0A63                     u3040:
  6640  0A63                     l2366:
  6641  0A63  1283               	bcf	3,5	;RP0=0, select bank0
  6642  0A64  1303               	bcf	3,6	;RP1=0, select bank0
  6643  0A65  01C4               	clrf	___fldiv@new_exp
  6644  0A66  01C5               	clrf	___fldiv@new_exp+1
  6645  0A67                     l2368:
  6646  0A67  3000               	movlw	0
  6647  0A68  00B9               	movwf	___fldiv@b+3
  6648  0A69  3000               	movlw	0
  6649  0A6A  00B8               	movwf	___fldiv@b+2
  6650  0A6B  3000               	movlw	0
  6651  0A6C  00B7               	movwf	___fldiv@b+1
  6652  0A6D  3000               	movlw	0
  6653  0A6E  00B6               	movwf	___fldiv@b
  6654  0A6F                     l2370:
  6655  0A6F  01C3               	clrf	___fldiv@sign
  6656  0A70                     l669:
  6657  0A70  1283               	bcf	3,5	;RP0=0, select bank0
  6658  0A71  1303               	bcf	3,6	;RP1=0, select bank0
  6659  0A72  0844               	movf	___fldiv@new_exp,w
  6660  0A73  00BA               	movwf	??___fldiv
  6661  0A74  083A               	movf	??___fldiv,w
  6662  0A75  00CA               	movwf	___fldiv@bexp
  6663  0A76                     l2372:
  6664  0A76  1C4A               	btfss	___fldiv@bexp,0
  6665  0A77  2A79               	goto	u3051
  6666  0A78  2A7A               	goto	u3050
  6667  0A79                     u3051:
  6668  0A79  2A7C               	goto	l2376
  6669  0A7A                     u3050:
  6670  0A7A                     l2374:
  6671  0A7A  17B8               	bsf	___fldiv@b+2,7
  6672  0A7B  2A80               	goto	l671
  6673  0A7C                     l2376:
  6674  0A7C  307F               	movlw	127
  6675  0A7D  00BA               	movwf	??___fldiv
  6676  0A7E  083A               	movf	??___fldiv,w
  6677  0A7F  05B8               	andwf	___fldiv@b+2,f
  6678  0A80                     l671:
  6679  0A80  084A               	movf	___fldiv@bexp,w
  6680  0A81  00BA               	movwf	??___fldiv
  6681  0A82  1003               	clrc
  6682  0A83  0C3A               	rrf	??___fldiv,w
  6683  0A84  00BB               	movwf	??___fldiv+1
  6684  0A85  083B               	movf	??___fldiv+1,w
  6685  0A86  00B9               	movwf	___fldiv@b+3
  6686  0A87  0843               	movf	___fldiv@sign,w
  6687  0A88  00BA               	movwf	??___fldiv
  6688  0A89  083A               	movf	??___fldiv,w
  6689  0A8A  04B9               	iorwf	___fldiv@b+3,f
  6690  0A8B  2924               	goto	l2284
  6691  0A8C                     l649:
  6692  0A8C  0008               	return
  6693  0A8D                     __end_of___fldiv:
  6694                           
  6695                           	psect	text14
  6696  16DD                     __ptext14:	
  6697 ;; *************** function ___awdiv *****************
  6698 ;; Defined at:
  6699 ;;		line 5 in file "C:\Program Files\Microchip\xc8\v2.31\pic\sources\c90\common\awdiv.c"
  6700 ;; Parameters:    Size  Location     Type
  6701 ;;  divisor         2    0[COMMON] int 
  6702 ;;  dividend        2    2[COMMON] int 
  6703 ;; Auto vars:     Size  Location     Type
  6704 ;;  quotient        2    7[COMMON] int 
  6705 ;;  sign            1    6[COMMON] unsigned char 
  6706 ;;  counter         1    5[COMMON] unsigned char 
  6707 ;; Return value:  Size  Location     Type
  6708 ;;                  2    0[COMMON] int 
  6709 ;; Registers used:
  6710 ;;		wreg, status,2, status,0
  6711 ;; Tracked objects:
  6712 ;;		On entry : 0/0
  6713 ;;		On exit  : 0/0
  6714 ;;		Unchanged: 0/0
  6715 ;; Data sizes:     COMMON   BANK0   BANK1   BANK3   BANK2
  6716 ;;      Params:         4       0       0       0       0
  6717 ;;      Locals:         4       0       0       0       0
  6718 ;;      Temps:          1       0       0       0       0
  6719 ;;      Totals:         9       0       0       0       0
  6720 ;;Total ram usage:        9 bytes
  6721 ;; Hardware stack levels used:    1
  6722 ;; This function calls:
  6723 ;;		Nothing
  6724 ;; This function is called by:
  6725 ;;		_convert
  6726 ;; This function uses a non-reentrant model
  6727 ;;
  6728                           
  6729                           
  6730                           ;psect for function ___awdiv
  6731  16DD                     ___awdiv:
  6732  16DD                     l2134:	
  6733                           ;incstack = 0
  6734                           ; Regs used in ___awdiv: [wreg+status,2+status,0]
  6735                           
  6736  16DD  01F6               	clrf	___awdiv@sign
  6737  16DE                     l2136:
  6738  16DE  1FF1               	btfss	___awdiv@divisor+1,7
  6739  16DF  2EE1               	goto	u2501
  6740  16E0  2EE2               	goto	u2500
  6741  16E1                     u2501:
  6742  16E1  2EE9               	goto	l2142
  6743  16E2                     u2500:
  6744  16E2                     l2138:
  6745  16E2  09F0               	comf	___awdiv@divisor,f
  6746  16E3  09F1               	comf	___awdiv@divisor+1,f
  6747  16E4  0AF0               	incf	___awdiv@divisor,f
  6748  16E5  1903               	skipnz
  6749  16E6  0AF1               	incf	___awdiv@divisor+1,f
  6750  16E7                     l2140:
  6751  16E7  01F6               	clrf	___awdiv@sign
  6752  16E8  0AF6               	incf	___awdiv@sign,f
  6753  16E9                     l2142:
  6754  16E9  1FF3               	btfss	___awdiv@dividend+1,7
  6755  16EA  2EEC               	goto	u2511
  6756  16EB  2EED               	goto	u2510
  6757  16EC                     u2511:
  6758  16EC  2EF6               	goto	l2148
  6759  16ED                     u2510:
  6760  16ED                     l2144:
  6761  16ED  09F2               	comf	___awdiv@dividend,f
  6762  16EE  09F3               	comf	___awdiv@dividend+1,f
  6763  16EF  0AF2               	incf	___awdiv@dividend,f
  6764  16F0  1903               	skipnz
  6765  16F1  0AF3               	incf	___awdiv@dividend+1,f
  6766  16F2                     l2146:
  6767  16F2  3001               	movlw	1
  6768  16F3  00F4               	movwf	??___awdiv
  6769  16F4  0874               	movf	??___awdiv,w
  6770  16F5  06F6               	xorwf	___awdiv@sign,f
  6771  16F6                     l2148:
  6772  16F6  01F7               	clrf	___awdiv@quotient
  6773  16F7  01F8               	clrf	___awdiv@quotient+1
  6774  16F8                     l2150:
  6775  16F8  0870               	movf	___awdiv@divisor,w
  6776  16F9  0471               	iorwf	___awdiv@divisor+1,w
  6777  16FA  1903               	btfsc	3,2
  6778  16FB  2EFD               	goto	u2521
  6779  16FC  2EFE               	goto	u2520
  6780  16FD                     u2521:
  6781  16FD  2F35               	goto	l2170
  6782  16FE                     u2520:
  6783  16FE                     l2152:
  6784  16FE  01F5               	clrf	___awdiv@counter
  6785  16FF  0AF5               	incf	___awdiv@counter,f
  6786  1700  2F0C               	goto	l2158
  6787  1701                     l2154:
  6788  1701  3001               	movlw	1
  6789  1702                     u2535:
  6790  1702  1003               	clrc
  6791  1703  0DF0               	rlf	___awdiv@divisor,f
  6792  1704  0DF1               	rlf	___awdiv@divisor+1,f
  6793  1705  3EFF               	addlw	-1
  6794  1706  1D03               	skipz
  6795  1707  2F02               	goto	u2535
  6796  1708                     l2156:
  6797  1708  3001               	movlw	1
  6798  1709  00F4               	movwf	??___awdiv
  6799  170A  0874               	movf	??___awdiv,w
  6800  170B  07F5               	addwf	___awdiv@counter,f
  6801  170C                     l2158:
  6802  170C  1FF1               	btfss	___awdiv@divisor+1,7
  6803  170D  2F0F               	goto	u2541
  6804  170E  2F10               	goto	u2540
  6805  170F                     u2541:
  6806  170F  2F01               	goto	l2154
  6807  1710                     u2540:
  6808  1710                     l2160:
  6809  1710  3001               	movlw	1
  6810  1711                     u2555:
  6811  1711  1003               	clrc
  6812  1712  0DF7               	rlf	___awdiv@quotient,f
  6813  1713  0DF8               	rlf	___awdiv@quotient+1,f
  6814  1714  3EFF               	addlw	-1
  6815  1715  1D03               	skipz
  6816  1716  2F11               	goto	u2555
  6817  1717  0871               	movf	___awdiv@divisor+1,w
  6818  1718  0273               	subwf	___awdiv@dividend+1,w
  6819  1719  1D03               	skipz
  6820  171A  2F1D               	goto	u2565
  6821  171B  0870               	movf	___awdiv@divisor,w
  6822  171C  0272               	subwf	___awdiv@dividend,w
  6823  171D                     u2565:
  6824  171D  1C03               	skipc
  6825  171E  2F20               	goto	u2561
  6826  171F  2F21               	goto	u2560
  6827  1720                     u2561:
  6828  1720  2F28               	goto	l2166
  6829  1721                     u2560:
  6830  1721                     l2162:
  6831  1721  0870               	movf	___awdiv@divisor,w
  6832  1722  02F2               	subwf	___awdiv@dividend,f
  6833  1723  0871               	movf	___awdiv@divisor+1,w
  6834  1724  1C03               	skipc
  6835  1725  03F3               	decf	___awdiv@dividend+1,f
  6836  1726  02F3               	subwf	___awdiv@dividend+1,f
  6837  1727                     l2164:
  6838  1727  1477               	bsf	___awdiv@quotient,0
  6839  1728                     l2166:
  6840  1728  3001               	movlw	1
  6841  1729                     u2575:
  6842  1729  1003               	clrc
  6843  172A  0CF1               	rrf	___awdiv@divisor+1,f
  6844  172B  0CF0               	rrf	___awdiv@divisor,f
  6845  172C  3EFF               	addlw	-1
  6846  172D  1D03               	skipz
  6847  172E  2F29               	goto	u2575
  6848  172F                     l2168:
  6849  172F  3001               	movlw	1
  6850  1730  02F5               	subwf	___awdiv@counter,f
  6851  1731  1D03               	btfss	3,2
  6852  1732  2F34               	goto	u2581
  6853  1733  2F35               	goto	u2580
  6854  1734                     u2581:
  6855  1734  2F10               	goto	l2160
  6856  1735                     u2580:
  6857  1735                     l2170:
  6858  1735  0876               	movf	___awdiv@sign,w
  6859  1736  1903               	btfsc	3,2
  6860  1737  2F39               	goto	u2591
  6861  1738  2F3A               	goto	u2590
  6862  1739                     u2591:
  6863  1739  2F3F               	goto	l2174
  6864  173A                     u2590:
  6865  173A                     l2172:
  6866  173A  09F7               	comf	___awdiv@quotient,f
  6867  173B  09F8               	comf	___awdiv@quotient+1,f
  6868  173C  0AF7               	incf	___awdiv@quotient,f
  6869  173D  1903               	skipnz
  6870  173E  0AF8               	incf	___awdiv@quotient+1,f
  6871  173F                     l2174:
  6872  173F  0878               	movf	___awdiv@quotient+1,w
  6873  1740  00F1               	movwf	?___awdiv+1
  6874  1741  0877               	movf	___awdiv@quotient,w
  6875  1742  00F0               	movwf	?___awdiv
  6876  1743                     l451:
  6877  1743  0008               	return
  6878  1744                     __end_of___awdiv:
  6879                           
  6880                           	psect	text15
  6881  15F0                     __ptext15:	
  6882 ;; *************** function _Lcd_Write_String *****************
  6883 ;; Defined at:
  6884 ;;		line 170 in file "Librerias.c"
  6885 ;; Parameters:    Size  Location     Type
  6886 ;;  a               2    3[COMMON] PTR unsigned char 
  6887 ;;		 -> lcd3(10), STR_5(2), lcd2(10), STR_4(2), 
  6888 ;;		 -> lcd1(10), STR_3(4), STR_2(4), STR_1(4), 
  6889 ;; Auto vars:     Size  Location     Type
  6890 ;;  i               2    8[COMMON] int 
  6891 ;; Return value:  Size  Location     Type
  6892 ;;                  1    wreg      void 
  6893 ;; Registers used:
  6894 ;;		wreg, fsr0l, fsr0h, status,2, status,0, btemp+1, pclath, cstack
  6895 ;; Tracked objects:
  6896 ;;		On entry : 0/0
  6897 ;;		On exit  : 0/0
  6898 ;;		Unchanged: 0/0
  6899 ;; Data sizes:     COMMON   BANK0   BANK1   BANK3   BANK2
  6900 ;;      Params:         2       0       0       0       0
  6901 ;;      Locals:         2       0       0       0       0
  6902 ;;      Temps:          3       0       0       0       0
  6903 ;;      Totals:         7       0       0       0       0
  6904 ;;Total ram usage:        7 bytes
  6905 ;; Hardware stack levels used:    1
  6906 ;; Hardware stack levels required when called:    2
  6907 ;; This function calls:
  6908 ;;		_Lcd_Write_Char
  6909 ;; This function is called by:
  6910 ;;		_main
  6911 ;; This function uses a non-reentrant model
  6912 ;;
  6913                           
  6914                           
  6915                           ;psect for function _Lcd_Write_String
  6916  15F0                     _Lcd_Write_String:
  6917  15F0                     l2606:	
  6918                           ;incstack = 0
  6919                           ; Regs used in _Lcd_Write_String: [wreg-fsr0h+status,2+status,0+btemp+1+pclath+cstack]
  6920                           
  6921                           
  6922                           ;Librerias.c: 171:     int i;;Librerias.c: 172:     for (i = 0; a[i] != '\0'; i++)
  6923  15F0  01F8               	clrf	Lcd_Write_String@i
  6924  15F1  01F9               	clrf	Lcd_Write_String@i+1
  6925  15F2  2E15               	goto	l2612
  6926  15F3                     l2608:
  6927                           
  6928                           ;Librerias.c: 173:         Lcd_Write_Char(a[i]);
  6929  15F3  0878               	movf	Lcd_Write_String@i,w
  6930  15F4  0773               	addwf	Lcd_Write_String@a,w
  6931  15F5  00F6               	movwf	??_Lcd_Write_String+1
  6932  15F6  0874               	movf	Lcd_Write_String@a+1,w
  6933  15F7  00F5               	movwf	??_Lcd_Write_String
  6934  15F8  1803               	skipnc
  6935  15F9  0AF5               	incf	??_Lcd_Write_String,f
  6936  15FA  1FF8               	btfss	Lcd_Write_String@i,7
  6937  15FB  2DFD               	goto	u3590
  6938  15FC  03F5               	decf	??_Lcd_Write_String,f
  6939  15FD                     u3590:
  6940  15FD  0875               	movf	??_Lcd_Write_String,w
  6941  15FE  00F7               	movwf	??_Lcd_Write_String+2
  6942  15FF  0877               	movf	??_Lcd_Write_String+2,w
  6943  1600  1283               	bcf	3,5	;RP0=0, select bank0
  6944  1601  1303               	bcf	3,6	;RP1=0, select bank0
  6945  1602  00FF               	movwf	btemp+1
  6946  1603  0876               	movf	??_Lcd_Write_String+1,w
  6947  1604  0084               	movwf	4
  6948  1605  160A  118A  2000  160A  118A  	fcall	stringtab
  6949  160A  160A  118A  24BD  160A  118A  	fcall	_Lcd_Write_Char
  6950  160F                     l2610:
  6951  160F  3001               	movlw	1
  6952  1610  07F8               	addwf	Lcd_Write_String@i,f
  6953  1611  1803               	skipnc
  6954  1612  0AF9               	incf	Lcd_Write_String@i+1,f
  6955  1613  3000               	movlw	0
  6956  1614  07F9               	addwf	Lcd_Write_String@i+1,f
  6957  1615                     l2612:
  6958  1615  0878               	movf	Lcd_Write_String@i,w
  6959  1616  0773               	addwf	Lcd_Write_String@a,w
  6960  1617  00F6               	movwf	??_Lcd_Write_String+1
  6961  1618  0874               	movf	Lcd_Write_String@a+1,w
  6962  1619  00F5               	movwf	??_Lcd_Write_String
  6963  161A  1803               	skipnc
  6964  161B  0AF5               	incf	??_Lcd_Write_String,f
  6965  161C  1FF8               	btfss	Lcd_Write_String@i,7
  6966  161D  2E1F               	goto	u3600
  6967  161E  03F5               	decf	??_Lcd_Write_String,f
  6968  161F                     u3600:
  6969  161F  0875               	movf	??_Lcd_Write_String,w
  6970  1620  00F7               	movwf	??_Lcd_Write_String+2
  6971  1621  0877               	movf	??_Lcd_Write_String+2,w
  6972  1622  1283               	bcf	3,5	;RP0=0, select bank0
  6973  1623  1303               	bcf	3,6	;RP1=0, select bank0
  6974  1624  00FF               	movwf	btemp+1
  6975  1625  0876               	movf	??_Lcd_Write_String+1,w
  6976  1626  0084               	movwf	4
  6977  1627  160A  118A  2000  160A  118A  	fcall	stringtab
  6978  162C  3A00               	xorlw	0
  6979  162D  1D03               	skipz
  6980  162E  2E30               	goto	u3611
  6981  162F  2E31               	goto	u3610
  6982  1630                     u3611:
  6983  1630  2DF3               	goto	l2608
  6984  1631                     u3610:
  6985  1631                     l180:
  6986  1631  0008               	return
  6987  1632                     __end_of_Lcd_Write_String:
  6988                           
  6989                           	psect	text16
  6990  14BD                     __ptext16:	
  6991 ;; *************** function _Lcd_Write_Char *****************
  6992 ;; Defined at:
  6993 ;;		line 162 in file "Librerias.c"
  6994 ;; Parameters:    Size  Location     Type
  6995 ;;  a               1    wreg     unsigned char 
  6996 ;; Auto vars:     Size  Location     Type
  6997 ;;  a               1    2[COMMON] unsigned char 
  6998 ;; Return value:  Size  Location     Type
  6999 ;;                  1    wreg      void 
  7000 ;; Registers used:
  7001 ;;		wreg, status,2, status,0, pclath, cstack
  7002 ;; Tracked objects:
  7003 ;;		On entry : 0/0
  7004 ;;		On exit  : 0/0
  7005 ;;		Unchanged: 0/0
  7006 ;; Data sizes:     COMMON   BANK0   BANK1   BANK3   BANK2
  7007 ;;      Params:         0       0       0       0       0
  7008 ;;      Locals:         1       0       0       0       0
  7009 ;;      Temps:          1       0       0       0       0
  7010 ;;      Totals:         2       0       0       0       0
  7011 ;;Total ram usage:        2 bytes
  7012 ;; Hardware stack levels used:    1
  7013 ;; Hardware stack levels required when called:    1
  7014 ;; This function calls:
  7015 ;;		_Lcd_Port
  7016 ;; This function is called by:
  7017 ;;		_Lcd_Write_String
  7018 ;; This function uses a non-reentrant model
  7019 ;;
  7020                           
  7021                           
  7022                           ;psect for function _Lcd_Write_Char
  7023  14BD                     _Lcd_Write_Char:
  7024                           
  7025                           ;incstack = 0
  7026                           ; Regs used in _Lcd_Write_Char: [wreg+status,2+status,0+pclath+cstack]
  7027                           ;Lcd_Write_Char@a stored from wreg
  7028  14BD  00F2               	movwf	Lcd_Write_Char@a
  7029  14BE                     l2110:
  7030                           
  7031                           ;Librerias.c: 163:     PORTCbits.RC0 = 1;
  7032  14BE  1283               	bcf	3,5	;RP0=0, select bank0
  7033  14BF  1303               	bcf	3,6	;RP1=0, select bank0
  7034  14C0  1407               	bsf	7,0	;volatile
  7035  14C1                     l2112:
  7036                           
  7037                           ;Librerias.c: 164:     Lcd_Port(a);
  7038  14C1  0872               	movf	Lcd_Write_Char@a,w
  7039  14C2  160A  118A  2486  160A  118A  	fcall	_Lcd_Port
  7040  14C7                     l2114:
  7041                           
  7042                           ;Librerias.c: 165:     PORTCbits.RC1 = 1;
  7043  14C7  1283               	bcf	3,5	;RP0=0, select bank0
  7044  14C8  1303               	bcf	3,6	;RP1=0, select bank0
  7045  14C9  1487               	bsf	7,1	;volatile
  7046  14CA                     l2116:
  7047                           
  7048                           ;Librerias.c: 166:     _delay((unsigned long)((10)*(4000000/4000000.0)));
  7049  14CA  3003               	movlw	3
  7050  14CB  00F1               	movwf	??_Lcd_Write_Char
  7051  14CC                     u3797:
  7052  14CC  0BF1               	decfsz	??_Lcd_Write_Char,f
  7053  14CD  2CCC               	goto	u3797
  7054  14CE                     l2118:
  7055                           
  7056                           ;Librerias.c: 167:     PORTCbits.RC1 = 0;
  7057  14CE  1283               	bcf	3,5	;RP0=0, select bank0
  7058  14CF  1303               	bcf	3,6	;RP1=0, select bank0
  7059  14D0  1087               	bcf	7,1	;volatile
  7060  14D1                     l174:
  7061  14D1  0008               	return
  7062  14D2                     __end_of_Lcd_Write_Char:
  7063                           
  7064                           	psect	text17
  7065  14F4                     __ptext17:	
  7066 ;; *************** function _Lcd_Set_Cursor *****************
  7067 ;; Defined at:
  7068 ;;		line 137 in file "Librerias.c"
  7069 ;; Parameters:    Size  Location     Type
  7070 ;;  a               1    wreg     unsigned char 
  7071 ;;  b               1    4[COMMON] unsigned char 
  7072 ;; Auto vars:     Size  Location     Type
  7073 ;;  a               1    6[COMMON] unsigned char 
  7074 ;;  temp            1    7[COMMON] unsigned char 
  7075 ;; Return value:  Size  Location     Type
  7076 ;;                  1    wreg      void 
  7077 ;; Registers used:
  7078 ;;		wreg, status,2, status,0, pclath, cstack
  7079 ;; Tracked objects:
  7080 ;;		On entry : 0/0
  7081 ;;		On exit  : 0/0
  7082 ;;		Unchanged: 0/0
  7083 ;; Data sizes:     COMMON   BANK0   BANK1   BANK3   BANK2
  7084 ;;      Params:         1       0       0       0       0
  7085 ;;      Locals:         2       0       0       0       0
  7086 ;;      Temps:          1       0       0       0       0
  7087 ;;      Totals:         4       0       0       0       0
  7088 ;;Total ram usage:        4 bytes
  7089 ;; Hardware stack levels used:    1
  7090 ;; Hardware stack levels required when called:    2
  7091 ;; This function calls:
  7092 ;;		_Lcd_Cmd
  7093 ;; This function is called by:
  7094 ;;		_main
  7095 ;; This function uses a non-reentrant model
  7096 ;;
  7097                           
  7098                           
  7099                           ;psect for function _Lcd_Set_Cursor
  7100  14F4                     _Lcd_Set_Cursor:
  7101                           
  7102                           ;incstack = 0
  7103                           ; Regs used in _Lcd_Set_Cursor: [wreg+status,2+status,0+pclath+cstack]
  7104                           ;Lcd_Set_Cursor@a stored from wreg
  7105  14F4  00F6               	movwf	Lcd_Set_Cursor@a
  7106  14F5                     l2594:
  7107                           
  7108                           ;Librerias.c: 138:     char temp;;Librerias.c: 139:     if (a == 1) {
  7109  14F5  0376               	decf	Lcd_Set_Cursor@a,w
  7110  14F6  1D03               	btfss	3,2
  7111  14F7  2CF9               	goto	u3571
  7112  14F8  2CFA               	goto	u3570
  7113  14F9                     u3571:
  7114  14F9  2D06               	goto	l2600
  7115  14FA                     u3570:
  7116  14FA                     l2596:
  7117                           
  7118                           ;Librerias.c: 140:         temp = 0x80 + b - 1;
  7119  14FA  0874               	movf	Lcd_Set_Cursor@b,w
  7120  14FB  3E7F               	addlw	127
  7121  14FC  00F5               	movwf	??_Lcd_Set_Cursor
  7122  14FD  0875               	movf	??_Lcd_Set_Cursor,w
  7123  14FE  00F7               	movwf	Lcd_Set_Cursor@temp
  7124  14FF                     l2598:
  7125                           
  7126                           ;Librerias.c: 141:         Lcd_Cmd(temp);
  7127  14FF  0877               	movf	Lcd_Set_Cursor@temp,w
  7128  1500  120A  118A  2006  160A  118A  	fcall	_Lcd_Cmd
  7129                           
  7130                           ;Librerias.c: 142:     } else if (a == 2) {
  7131  1505  2D17               	goto	l168
  7132  1506                     l2600:
  7133  1506  3002               	movlw	2
  7134  1507  0676               	xorwf	Lcd_Set_Cursor@a,w
  7135  1508  1D03               	btfss	3,2
  7136  1509  2D0B               	goto	u3581
  7137  150A  2D0C               	goto	u3580
  7138  150B                     u3581:
  7139  150B  2D17               	goto	l168
  7140  150C                     u3580:
  7141  150C                     l2602:
  7142                           
  7143                           ;Librerias.c: 143:         temp = 0xC0 + b - 1;
  7144  150C  0874               	movf	Lcd_Set_Cursor@b,w
  7145  150D  3EBF               	addlw	191
  7146  150E  00F5               	movwf	??_Lcd_Set_Cursor
  7147  150F  0875               	movf	??_Lcd_Set_Cursor,w
  7148  1510  00F7               	movwf	Lcd_Set_Cursor@temp
  7149  1511                     l2604:
  7150                           
  7151                           ;Librerias.c: 144:         Lcd_Cmd(temp);
  7152  1511  0877               	movf	Lcd_Set_Cursor@temp,w
  7153  1512  120A  118A  2006  160A  118A  	fcall	_Lcd_Cmd
  7154  1517                     l168:
  7155  1517  0008               	return
  7156  1518                     __end_of_Lcd_Set_Cursor:
  7157                           
  7158                           	psect	text18
  7159  1632                     __ptext18:	
  7160 ;; *************** function _Lcd_Init *****************
  7161 ;; Defined at:
  7162 ;;		line 148 in file "Librerias.c"
  7163 ;; Parameters:    Size  Location     Type
  7164 ;;		None
  7165 ;; Auto vars:     Size  Location     Type
  7166 ;;		None
  7167 ;; Return value:  Size  Location     Type
  7168 ;;                  1    wreg      void 
  7169 ;; Registers used:
  7170 ;;		wreg, status,2, status,0, pclath, cstack
  7171 ;; Tracked objects:
  7172 ;;		On entry : 0/0
  7173 ;;		On exit  : 0/0
  7174 ;;		Unchanged: 0/0
  7175 ;; Data sizes:     COMMON   BANK0   BANK1   BANK3   BANK2
  7176 ;;      Params:         0       0       0       0       0
  7177 ;;      Locals:         0       0       0       0       0
  7178 ;;      Temps:          2       0       0       0       0
  7179 ;;      Totals:         2       0       0       0       0
  7180 ;;Total ram usage:        2 bytes
  7181 ;; Hardware stack levels used:    1
  7182 ;; Hardware stack levels required when called:    2
  7183 ;; This function calls:
  7184 ;;		_Lcd_Cmd
  7185 ;;		_Lcd_Port
  7186 ;; This function is called by:
  7187 ;;		_main
  7188 ;; This function uses a non-reentrant model
  7189 ;;
  7190                           
  7191                           
  7192                           ;psect for function _Lcd_Init
  7193  1632                     _Lcd_Init:
  7194  1632                     l2582:	
  7195                           ;incstack = 0
  7196                           ; Regs used in _Lcd_Init: [wreg+status,2+status,0+pclath+cstack]
  7197                           
  7198                           
  7199                           ;Librerias.c: 149:     Lcd_Port(0x00);
  7200  1632  3000               	movlw	0
  7201  1633  160A  118A  2486  160A  118A  	fcall	_Lcd_Port
  7202  1638                     l2584:
  7203                           
  7204                           ;Librerias.c: 150:     _delay((unsigned long)((20)*(4000000/4000.0)));
  7205  1638  301A               	movlw	26
  7206  1639  00F5               	movwf	??_Lcd_Init+1
  7207  163A  30F8               	movlw	248
  7208  163B  00F4               	movwf	??_Lcd_Init
  7209  163C                     u3807:
  7210  163C  0BF4               	decfsz	??_Lcd_Init,f
  7211  163D  2E3C               	goto	u3807
  7212  163E  0BF5               	decfsz	??_Lcd_Init+1,f
  7213  163F  2E3C               	goto	u3807
  7214  1640  0000               	nop
  7215  1641                     l2586:
  7216                           
  7217                           ;Librerias.c: 151:     Lcd_Cmd(0x30);
  7218  1641  3030               	movlw	48
  7219  1642  120A  118A  2006  160A  118A  	fcall	_Lcd_Cmd
  7220                           
  7221                           ;Librerias.c: 152:     _delay((unsigned long)((5)*(4000000/4000.0)));
  7222  1647  3007               	movlw	7
  7223  1648  00F5               	movwf	??_Lcd_Init+1
  7224  1649  307D               	movlw	125
  7225  164A  00F4               	movwf	??_Lcd_Init
  7226  164B                     u3817:
  7227  164B  0BF4               	decfsz	??_Lcd_Init,f
  7228  164C  2E4B               	goto	u3817
  7229  164D  0BF5               	decfsz	??_Lcd_Init+1,f
  7230  164E  2E4B               	goto	u3817
  7231  164F                     l2588:
  7232                           
  7233                           ;Librerias.c: 153:     Lcd_Cmd(0x30);
  7234  164F  3030               	movlw	48
  7235  1650  120A  118A  2006  160A  118A  	fcall	_Lcd_Cmd
  7236  1655                     l2590:
  7237                           
  7238                           ;Librerias.c: 154:     _delay((unsigned long)((11)*(4000000/4000.0)));
  7239  1655  300F               	movlw	15
  7240  1656  00F5               	movwf	??_Lcd_Init+1
  7241  1657  3047               	movlw	71
  7242  1658  00F4               	movwf	??_Lcd_Init
  7243  1659                     u3827:
  7244  1659  0BF4               	decfsz	??_Lcd_Init,f
  7245  165A  2E59               	goto	u3827
  7246  165B  0BF5               	decfsz	??_Lcd_Init+1,f
  7247  165C  2E59               	goto	u3827
  7248  165D  2E5E               	nop2
  7249                           
  7250                           ;Librerias.c: 155:     Lcd_Cmd(0x30);
  7251  165E  3030               	movlw	48
  7252  165F  120A  118A  2006  160A  118A  	fcall	_Lcd_Cmd
  7253                           
  7254                           ;Librerias.c: 157:     Lcd_Cmd(0x38);
  7255  1664  3038               	movlw	56
  7256  1665  120A  118A  2006  160A  118A  	fcall	_Lcd_Cmd
  7257                           
  7258                           ;Librerias.c: 158:     Lcd_Cmd(0x0C);
  7259  166A  300C               	movlw	12
  7260  166B  120A  118A  2006  160A  118A  	fcall	_Lcd_Cmd
  7261                           
  7262                           ;Librerias.c: 159:     Lcd_Cmd(0x6);
  7263  1670  3006               	movlw	6
  7264  1671  120A  118A  2006  160A  118A  	fcall	_Lcd_Cmd
  7265  1676                     l171:
  7266  1676  0008               	return
  7267  1677                     __end_of_Lcd_Init:
  7268                           
  7269                           	psect	text19
  7270  0801                     __ptext19:	
  7271 ;; *************** function _Lcd_Clear *****************
  7272 ;; Defined at:
  7273 ;;		line 132 in file "Librerias.c"
  7274 ;; Parameters:    Size  Location     Type
  7275 ;;		None
  7276 ;; Auto vars:     Size  Location     Type
  7277 ;;		None
  7278 ;; Return value:  Size  Location     Type
  7279 ;;                  1    wreg      void 
  7280 ;; Registers used:
  7281 ;;		wreg, status,2, status,0, pclath, cstack
  7282 ;; Tracked objects:
  7283 ;;		On entry : 0/0
  7284 ;;		On exit  : 0/0
  7285 ;;		Unchanged: 0/0
  7286 ;; Data sizes:     COMMON   BANK0   BANK1   BANK3   BANK2
  7287 ;;      Params:         0       0       0       0       0
  7288 ;;      Locals:         0       0       0       0       0
  7289 ;;      Temps:          0       0       0       0       0
  7290 ;;      Totals:         0       0       0       0       0
  7291 ;;Total ram usage:        0 bytes
  7292 ;; Hardware stack levels used:    1
  7293 ;; Hardware stack levels required when called:    2
  7294 ;; This function calls:
  7295 ;;		_Lcd_Cmd
  7296 ;; This function is called by:
  7297 ;;		_main
  7298 ;; This function uses a non-reentrant model
  7299 ;;
  7300                           
  7301                           
  7302                           ;psect for function _Lcd_Clear
  7303  0801                     _Lcd_Clear:
  7304  0801                     l2592:	
  7305                           ;incstack = 0
  7306                           ; Regs used in _Lcd_Clear: [wreg+status,2+status,0+pclath+cstack]
  7307                           
  7308                           
  7309                           ;Librerias.c: 133:     Lcd_Cmd(0);
  7310  0801  3000               	movlw	0
  7311  0802  120A  118A  2006  120A  158A  	fcall	_Lcd_Cmd
  7312                           
  7313                           ;Librerias.c: 134:     Lcd_Cmd(1);
  7314  0807  3001               	movlw	1
  7315  0808  120A  118A  2006  120A  158A  	fcall	_Lcd_Cmd
  7316  080D                     l162:
  7317  080D  0008               	return
  7318  080E                     __end_of_Lcd_Clear:
  7319                           
  7320                           	psect	text20
  7321  0006                     __ptext20:	
  7322 ;; *************** function _Lcd_Cmd *****************
  7323 ;; Defined at:
  7324 ;;		line 124 in file "Librerias.c"
  7325 ;; Parameters:    Size  Location     Type
  7326 ;;  a               1    wreg     unsigned char 
  7327 ;; Auto vars:     Size  Location     Type
  7328 ;;  a               1    3[COMMON] unsigned char 
  7329 ;; Return value:  Size  Location     Type
  7330 ;;                  1    wreg      void 
  7331 ;; Registers used:
  7332 ;;		wreg, status,2, status,0, pclath, cstack
  7333 ;; Tracked objects:
  7334 ;;		On entry : 0/0
  7335 ;;		On exit  : 0/0
  7336 ;;		Unchanged: 0/0
  7337 ;; Data sizes:     COMMON   BANK0   BANK1   BANK3   BANK2
  7338 ;;      Params:         0       0       0       0       0
  7339 ;;      Locals:         1       0       0       0       0
  7340 ;;      Temps:          2       0       0       0       0
  7341 ;;      Totals:         3       0       0       0       0
  7342 ;;Total ram usage:        3 bytes
  7343 ;; Hardware stack levels used:    1
  7344 ;; Hardware stack levels required when called:    1
  7345 ;; This function calls:
  7346 ;;		_Lcd_Port
  7347 ;; This function is called by:
  7348 ;;		_Lcd_Clear
  7349 ;;		_Lcd_Set_Cursor
  7350 ;;		_Lcd_Init
  7351 ;;		_Lcd_Shift_Right
  7352 ;;		_Lcd_Shift_Left
  7353 ;; This function uses a non-reentrant model
  7354 ;;
  7355                           
  7356                           
  7357                           ;psect for function _Lcd_Cmd
  7358  0006                     _Lcd_Cmd:
  7359                           
  7360                           ;incstack = 0
  7361                           ; Regs used in _Lcd_Cmd: [wreg+status,2+status,0+pclath+cstack]
  7362                           ;Lcd_Cmd@a stored from wreg
  7363  0006  00F3               	movwf	Lcd_Cmd@a
  7364  0007                     l2100:
  7365                           
  7366                           ;Librerias.c: 125:     PORTCbits.RC0 = 0;
  7367  0007  1283               	bcf	3,5	;RP0=0, select bank0
  7368  0008  1303               	bcf	3,6	;RP1=0, select bank0
  7369  0009  1007               	bcf	7,0	;volatile
  7370  000A                     l2102:
  7371                           
  7372                           ;Librerias.c: 126:     Lcd_Port(a);
  7373  000A  0873               	movf	Lcd_Cmd@a,w
  7374  000B  160A  118A  2486  120A  118A  	fcall	_Lcd_Port
  7375  0010                     l2104:
  7376                           
  7377                           ;Librerias.c: 127:     PORTCbits.RC1 = 1;
  7378  0010  1283               	bcf	3,5	;RP0=0, select bank0
  7379  0011  1303               	bcf	3,6	;RP1=0, select bank0
  7380  0012  1487               	bsf	7,1	;volatile
  7381  0013                     l2106:
  7382                           
  7383                           ;Librerias.c: 128:     _delay((unsigned long)((4)*(4000000/4000.0)));
  7384  0013  3006               	movlw	6
  7385  0014  00F2               	movwf	??_Lcd_Cmd+1
  7386  0015  3030               	movlw	48
  7387  0016  00F1               	movwf	??_Lcd_Cmd
  7388  0017                     u3837:
  7389  0017  0BF1               	decfsz	??_Lcd_Cmd,f
  7390  0018  2817               	goto	u3837
  7391  0019  0BF2               	decfsz	??_Lcd_Cmd+1,f
  7392  001A  2817               	goto	u3837
  7393  001B  0000               	nop
  7394  001C                     l2108:
  7395                           
  7396                           ;Librerias.c: 129:     PORTCbits.RC1 = 0;
  7397  001C  1283               	bcf	3,5	;RP0=0, select bank0
  7398  001D  1303               	bcf	3,6	;RP1=0, select bank0
  7399  001E  1087               	bcf	7,1	;volatile
  7400  001F                     l159:
  7401  001F  0008               	return
  7402  0020                     __end_of_Lcd_Cmd:
  7403                           
  7404                           	psect	text21
  7405  1486                     __ptext21:	
  7406 ;; *************** function _Lcd_Port *****************
  7407 ;; Defined at:
  7408 ;;		line 120 in file "Librerias.c"
  7409 ;; Parameters:    Size  Location     Type
  7410 ;;  a               1    wreg     unsigned char 
  7411 ;; Auto vars:     Size  Location     Type
  7412 ;;  a               1    0[COMMON] unsigned char 
  7413 ;; Return value:  Size  Location     Type
  7414 ;;                  1    wreg      void 
  7415 ;; Registers used:
  7416 ;;		wreg
  7417 ;; Tracked objects:
  7418 ;;		On entry : 0/0
  7419 ;;		On exit  : 0/0
  7420 ;;		Unchanged: 0/0
  7421 ;; Data sizes:     COMMON   BANK0   BANK1   BANK3   BANK2
  7422 ;;      Params:         0       0       0       0       0
  7423 ;;      Locals:         1       0       0       0       0
  7424 ;;      Temps:          0       0       0       0       0
  7425 ;;      Totals:         1       0       0       0       0
  7426 ;;Total ram usage:        1 bytes
  7427 ;; Hardware stack levels used:    1
  7428 ;; This function calls:
  7429 ;;		Nothing
  7430 ;; This function is called by:
  7431 ;;		_Lcd_Cmd
  7432 ;;		_Lcd_Init
  7433 ;;		_Lcd_Write_Char
  7434 ;; This function uses a non-reentrant model
  7435 ;;
  7436                           
  7437                           
  7438                           ;psect for function _Lcd_Port
  7439  1486                     _Lcd_Port:
  7440                           
  7441                           ;incstack = 0
  7442                           ; Regs used in _Lcd_Port: [wreg]
  7443                           ;Lcd_Port@a stored from wreg
  7444  1486  00F0               	movwf	Lcd_Port@a
  7445  1487                     l1850:
  7446                           
  7447                           ;Librerias.c: 121:     PORTB = a;
  7448  1487  0870               	movf	Lcd_Port@a,w
  7449  1488  1283               	bcf	3,5	;RP0=0, select bank0
  7450  1489  1303               	bcf	3,6	;RP1=0, select bank0
  7451  148A  0086               	movwf	6	;volatile
  7452  148B                     l156:
  7453  148B  0008               	return
  7454  148C                     __end_of_Lcd_Port:
  7455                           
  7456                           	psect	text22
  7457  14A6                     __ptext22:	
  7458 ;; *************** function _I2C_Master_Write *****************
  7459 ;; Defined at:
  7460 ;;		line 76 in file "Librerias.c"
  7461 ;; Parameters:    Size  Location     Type
  7462 ;;  d               2    0[COMMON] unsigned int 
  7463 ;; Auto vars:     Size  Location     Type
  7464 ;;		None
  7465 ;; Return value:  Size  Location     Type
  7466 ;;                  1    wreg      void 
  7467 ;; Registers used:
  7468 ;;		wreg, status,2, status,0, pclath, cstack
  7469 ;; Tracked objects:
  7470 ;;		On entry : 0/0
  7471 ;;		On exit  : 0/0
  7472 ;;		Unchanged: 0/0
  7473 ;; Data sizes:     COMMON   BANK0   BANK1   BANK3   BANK2
  7474 ;;      Params:         2       0       0       0       0
  7475 ;;      Locals:         0       0       0       0       0
  7476 ;;      Temps:          0       0       0       0       0
  7477 ;;      Totals:         2       0       0       0       0
  7478 ;;Total ram usage:        2 bytes
  7479 ;; Hardware stack levels used:    1
  7480 ;; Hardware stack levels required when called:    1
  7481 ;; This function calls:
  7482 ;;		_I2C_Master_Wait
  7483 ;; This function is called by:
  7484 ;;		_main
  7485 ;; This function uses a non-reentrant model
  7486 ;;
  7487                           
  7488                           
  7489                           ;psect for function _I2C_Master_Write
  7490  14A6                     _I2C_Master_Write:
  7491  14A6                     l2618:	
  7492                           ;incstack = 0
  7493                           ; Regs used in _I2C_Master_Write: [wreg+status,2+status,0+pclath+cstack]
  7494                           
  7495                           
  7496                           ;Librerias.c: 76: void I2C_Master_Write(unsigned d);Librerias.c: 77: {;Librerias.c: 78: 
      +                              I2C_Master_Wait();
  7497  14A6  160A  118A  24B0  160A  118A  	fcall	_I2C_Master_Wait
  7498  14AB                     l2620:
  7499                           
  7500                           ;Librerias.c: 79:     SSPBUF = d;
  7501  14AB  0870               	movf	I2C_Master_Write@d,w
  7502  14AC  1283               	bcf	3,5	;RP0=0, select bank0
  7503  14AD  1303               	bcf	3,6	;RP1=0, select bank0
  7504  14AE  0093               	movwf	19	;volatile
  7505  14AF                     l145:
  7506  14AF  0008               	return
  7507  14B0                     __end_of_I2C_Master_Write:
  7508                           
  7509                           	psect	text23
  7510  149D                     __ptext23:	
  7511 ;; *************** function _I2C_Master_Stop *****************
  7512 ;; Defined at:
  7513 ;;		line 66 in file "Librerias.c"
  7514 ;; Parameters:    Size  Location     Type
  7515 ;;		None
  7516 ;; Auto vars:     Size  Location     Type
  7517 ;;		None
  7518 ;; Return value:  Size  Location     Type
  7519 ;;                  1    wreg      void 
  7520 ;; Registers used:
  7521 ;;		wreg, status,2, status,0, pclath, cstack
  7522 ;; Tracked objects:
  7523 ;;		On entry : 0/0
  7524 ;;		On exit  : 0/0
  7525 ;;		Unchanged: 0/0
  7526 ;; Data sizes:     COMMON   BANK0   BANK1   BANK3   BANK2
  7527 ;;      Params:         0       0       0       0       0
  7528 ;;      Locals:         0       0       0       0       0
  7529 ;;      Temps:          0       0       0       0       0
  7530 ;;      Totals:         0       0       0       0       0
  7531 ;;Total ram usage:        0 bytes
  7532 ;; Hardware stack levels used:    1
  7533 ;; Hardware stack levels required when called:    1
  7534 ;; This function calls:
  7535 ;;		_I2C_Master_Wait
  7536 ;; This function is called by:
  7537 ;;		_main
  7538 ;; This function uses a non-reentrant model
  7539 ;;
  7540                           
  7541                           
  7542                           ;psect for function _I2C_Master_Stop
  7543  149D                     _I2C_Master_Stop:
  7544  149D                     l2638:	
  7545                           ;incstack = 0
  7546                           ; Regs used in _I2C_Master_Stop: [wreg+status,2+status,0+pclath+cstack]
  7547                           
  7548                           
  7549                           ;Librerias.c: 68:     I2C_Master_Wait();
  7550  149D  160A  118A  24B0  160A  118A  	fcall	_I2C_Master_Wait
  7551  14A2                     l2640:
  7552                           
  7553                           ;Librerias.c: 69:     SSPCON2bits.PEN = 1;
  7554  14A2  1683               	bsf	3,5	;RP0=1, select bank1
  7555  14A3  1303               	bcf	3,6	;RP1=0, select bank1
  7556  14A4  1511               	bsf	17,2	;volatile
  7557  14A5                     l142:
  7558  14A5  0008               	return
  7559  14A6                     __end_of_I2C_Master_Stop:
  7560                           
  7561                           	psect	text24
  7562  1494                     __ptext24:	
  7563 ;; *************** function _I2C_Master_Start *****************
  7564 ;; Defined at:
  7565 ;;		line 50 in file "Librerias.c"
  7566 ;; Parameters:    Size  Location     Type
  7567 ;;		None
  7568 ;; Auto vars:     Size  Location     Type
  7569 ;;		None
  7570 ;; Return value:  Size  Location     Type
  7571 ;;                  1    wreg      void 
  7572 ;; Registers used:
  7573 ;;		wreg, status,2, status,0, pclath, cstack
  7574 ;; Tracked objects:
  7575 ;;		On entry : 0/0
  7576 ;;		On exit  : 0/0
  7577 ;;		Unchanged: 0/0
  7578 ;; Data sizes:     COMMON   BANK0   BANK1   BANK3   BANK2
  7579 ;;      Params:         0       0       0       0       0
  7580 ;;      Locals:         0       0       0       0       0
  7581 ;;      Temps:          0       0       0       0       0
  7582 ;;      Totals:         0       0       0       0       0
  7583 ;;Total ram usage:        0 bytes
  7584 ;; Hardware stack levels used:    1
  7585 ;; Hardware stack levels required when called:    1
  7586 ;; This function calls:
  7587 ;;		_I2C_Master_Wait
  7588 ;; This function is called by:
  7589 ;;		_main
  7590 ;; This function uses a non-reentrant model
  7591 ;;
  7592                           
  7593                           
  7594                           ;psect for function _I2C_Master_Start
  7595  1494                     _I2C_Master_Start:
  7596  1494                     l2614:	
  7597                           ;incstack = 0
  7598                           ; Regs used in _I2C_Master_Start: [wreg+status,2+status,0+pclath+cstack]
  7599                           
  7600                           
  7601                           ;Librerias.c: 52:     I2C_Master_Wait();
  7602  1494  160A  118A  24B0  160A  118A  	fcall	_I2C_Master_Wait
  7603  1499                     l2616:
  7604                           
  7605                           ;Librerias.c: 53:     SSPCON2bits.SEN = 1;
  7606  1499  1683               	bsf	3,5	;RP0=1, select bank1
  7607  149A  1303               	bcf	3,6	;RP1=0, select bank1
  7608  149B  1411               	bsf	17,0	;volatile
  7609  149C                     l136:
  7610  149C  0008               	return
  7611  149D                     __end_of_I2C_Master_Start:
  7612                           
  7613                           	psect	text25
  7614  158A                     __ptext25:	
  7615 ;; *************** function _I2C_Master_Read *****************
  7616 ;; Defined at:
  7617 ;;		line 85 in file "Librerias.c"
  7618 ;; Parameters:    Size  Location     Type
  7619 ;;  a               2    0[COMMON] unsigned short 
  7620 ;; Auto vars:     Size  Location     Type
  7621 ;;  temp            2    4[COMMON] unsigned short 
  7622 ;; Return value:  Size  Location     Type
  7623 ;;                  2    0[COMMON] unsigned short 
  7624 ;; Registers used:
  7625 ;;		wreg, status,2, status,0, pclath, cstack
  7626 ;; Tracked objects:
  7627 ;;		On entry : 0/0
  7628 ;;		On exit  : 0/0
  7629 ;;		Unchanged: 0/0
  7630 ;; Data sizes:     COMMON   BANK0   BANK1   BANK3   BANK2
  7631 ;;      Params:         2       0       0       0       0
  7632 ;;      Locals:         2       0       0       0       0
  7633 ;;      Temps:          2       0       0       0       0
  7634 ;;      Totals:         6       0       0       0       0
  7635 ;;Total ram usage:        6 bytes
  7636 ;; Hardware stack levels used:    1
  7637 ;; Hardware stack levels required when called:    1
  7638 ;; This function calls:
  7639 ;;		_I2C_Master_Wait
  7640 ;; This function is called by:
  7641 ;;		_main
  7642 ;; This function uses a non-reentrant model
  7643 ;;
  7644                           
  7645                           
  7646                           ;psect for function _I2C_Master_Read
  7647  158A                     _I2C_Master_Read:
  7648  158A                     l2622:	
  7649                           ;incstack = 0
  7650                           ; Regs used in _I2C_Master_Read: [wreg+status,2+status,0+pclath+cstack]
  7651                           
  7652                           
  7653                           ;Librerias.c: 85: unsigned short I2C_Master_Read(unsigned short a);Librerias.c: 86: {;Li
      +                          brerias.c: 87:     unsigned short temp;;Librerias.c: 88:     I2C_Master_Wait();
  7654  158A  160A  118A  24B0  160A  118A  	fcall	_I2C_Master_Wait
  7655  158F                     l2624:
  7656                           
  7657                           ;Librerias.c: 89:     SSPCON2bits.RCEN = 1;
  7658  158F  1683               	bsf	3,5	;RP0=1, select bank1
  7659  1590  1303               	bcf	3,6	;RP1=0, select bank1
  7660  1591  1591               	bsf	17,3	;volatile
  7661                           
  7662                           ;Librerias.c: 90:     I2C_Master_Wait();
  7663  1592  160A  118A  24B0  160A  118A  	fcall	_I2C_Master_Wait
  7664  1597                     l2626:
  7665                           
  7666                           ;Librerias.c: 91:     temp = SSPBUF;
  7667  1597  1283               	bcf	3,5	;RP0=0, select bank0
  7668  1598  1303               	bcf	3,6	;RP1=0, select bank0
  7669  1599  0813               	movf	19,w	;volatile
  7670  159A  00F2               	movwf	??_I2C_Master_Read
  7671  159B  01F3               	clrf	??_I2C_Master_Read+1
  7672  159C  0872               	movf	??_I2C_Master_Read,w
  7673  159D  00F4               	movwf	I2C_Master_Read@temp
  7674  159E  0873               	movf	??_I2C_Master_Read+1,w
  7675  159F  00F5               	movwf	I2C_Master_Read@temp+1
  7676  15A0                     l2628:
  7677                           
  7678                           ;Librerias.c: 92:     I2C_Master_Wait();
  7679  15A0  160A  118A  24B0  160A  118A  	fcall	_I2C_Master_Wait
  7680  15A5                     l2630:
  7681                           
  7682                           ;Librerias.c: 93:     if(a == 1){
  7683  15A5  0370               	decf	I2C_Master_Read@a,w
  7684  15A6  0471               	iorwf	I2C_Master_Read@a+1,w
  7685  15A7  1D03               	btfss	3,2
  7686  15A8  2DAA               	goto	u3621
  7687  15A9  2DAB               	goto	u3620
  7688  15AA                     u3621:
  7689  15AA  2DAF               	goto	l148
  7690  15AB                     u3620:
  7691  15AB                     l2632:
  7692                           
  7693                           ;Librerias.c: 94:         SSPCON2bits.ACKDT = 0;
  7694  15AB  1683               	bsf	3,5	;RP0=1, select bank1
  7695  15AC  1303               	bcf	3,6	;RP1=0, select bank1
  7696  15AD  1291               	bcf	17,5	;volatile
  7697                           
  7698                           ;Librerias.c: 95:     }else{
  7699  15AE  2DB2               	goto	l149
  7700  15AF                     l148:
  7701                           
  7702                           ;Librerias.c: 96:         SSPCON2bits.ACKDT = 1;
  7703  15AF  1683               	bsf	3,5	;RP0=1, select bank1
  7704  15B0  1303               	bcf	3,6	;RP1=0, select bank1
  7705  15B1  1691               	bsf	17,5	;volatile
  7706  15B2                     l149:	
  7707                           ;Librerias.c: 97:     }
  7708                           
  7709                           
  7710                           ;Librerias.c: 98:     SSPCON2bits.ACKEN = 1;
  7711  15B2  1611               	bsf	17,4	;volatile
  7712  15B3                     l2634:
  7713                           
  7714                           ;Librerias.c: 99:     return temp;
  7715  15B3  0875               	movf	I2C_Master_Read@temp+1,w
  7716  15B4  00F1               	movwf	?_I2C_Master_Read+1
  7717  15B5  0874               	movf	I2C_Master_Read@temp,w
  7718  15B6  00F0               	movwf	?_I2C_Master_Read
  7719  15B7                     l150:
  7720  15B7  0008               	return
  7721  15B8                     __end_of_I2C_Master_Read:
  7722                           
  7723                           	psect	text26
  7724  14B0                     __ptext26:	
  7725 ;; *************** function _I2C_Master_Wait *****************
  7726 ;; Defined at:
  7727 ;;		line 43 in file "Librerias.c"
  7728 ;; Parameters:    Size  Location     Type
  7729 ;;		None
  7730 ;; Auto vars:     Size  Location     Type
  7731 ;;		None
  7732 ;; Return value:  Size  Location     Type
  7733 ;;                  1    wreg      void 
  7734 ;; Registers used:
  7735 ;;		wreg, status,2
  7736 ;; Tracked objects:
  7737 ;;		On entry : 0/0
  7738 ;;		On exit  : 0/0
  7739 ;;		Unchanged: 0/0
  7740 ;; Data sizes:     COMMON   BANK0   BANK1   BANK3   BANK2
  7741 ;;      Params:         0       0       0       0       0
  7742 ;;      Locals:         0       0       0       0       0
  7743 ;;      Temps:          0       0       0       0       0
  7744 ;;      Totals:         0       0       0       0       0
  7745 ;;Total ram usage:        0 bytes
  7746 ;; Hardware stack levels used:    1
  7747 ;; This function calls:
  7748 ;;		Nothing
  7749 ;; This function is called by:
  7750 ;;		_I2C_Master_Start
  7751 ;;		_I2C_Master_Stop
  7752 ;;		_I2C_Master_Write
  7753 ;;		_I2C_Master_Read
  7754 ;;		_I2C_Master_RepeatedStart
  7755 ;; This function uses a non-reentrant model
  7756 ;;
  7757                           
  7758                           
  7759                           ;psect for function _I2C_Master_Wait
  7760  14B0                     _I2C_Master_Wait:
  7761  14B0                     l2096:	
  7762                           ;incstack = 0
  7763                           ; Regs used in _I2C_Master_Wait: [wreg+status,2]
  7764                           
  7765  14B0                     l130:	
  7766                           ;Librerias.c: 45:     while ((SSPSTAT & 0x04) || (SSPCON2 & 0x1F));
  7767                           
  7768  14B0  1683               	bsf	3,5	;RP0=1, select bank1
  7769  14B1  1303               	bcf	3,6	;RP1=0, select bank1
  7770  14B2  1914               	btfsc	20,2	;volatile
  7771  14B3  2CB5               	goto	u2441
  7772  14B4  2CB6               	goto	u2440
  7773  14B5                     u2441:
  7774  14B5  2CB0               	goto	l130
  7775  14B6                     u2440:
  7776  14B6                     l2098:
  7777  14B6  0811               	movf	17,w	;volatile
  7778  14B7  391F               	andlw	31
  7779  14B8  1D03               	btfss	3,2
  7780  14B9  2CBB               	goto	u2451
  7781  14BA  2CBC               	goto	u2450
  7782  14BB                     u2451:
  7783  14BB  2CB0               	goto	l130
  7784  14BC                     u2450:
  7785  14BC                     l133:
  7786  14BC  0008               	return
  7787  14BD                     __end_of_I2C_Master_Wait:
  7788  007E                     btemp	set	126	;btemp
  7789  007E                     wtemp0	set	126
  7790                           
  7791                           	psect	config
  7792                           
  7793                           ;Config register CONFIG1 @ 0x2007
  7794                           ;	Oscillator Selection bits
  7795                           ;	FOSC = INTRC_NOCLKOUT, INTOSCIO oscillator: I/O function on RA6/OSC2/CLKOUT pin, I/O f
      +                          unction on RA7/OSC1/CLKIN
  7796                           ;	Watchdog Timer Enable bit
  7797                           ;	WDTE = OFF, WDT disabled and can be enabled by SWDTEN bit of the WDTCON register
  7798                           ;	Power-up Timer Enable bit
  7799                           ;	PWRTE = OFF, PWRT disabled
  7800                           ;	RE3/MCLR pin function select bit
  7801                           ;	MCLRE = OFF, RE3/MCLR pin function is digital input, MCLR internally tied to VDD
  7802                           ;	Code Protection bit
  7803                           ;	CP = OFF, Program memory code protection is disabled
  7804                           ;	Data Code Protection bit
  7805                           ;	CPD = OFF, Data memory code protection is disabled
  7806                           ;	Brown Out Reset Selection bits
  7807                           ;	BOREN = OFF, BOR disabled
  7808                           ;	Internal External Switchover bit
  7809                           ;	IESO = OFF, Internal/External Switchover mode is disabled
  7810                           ;	Fail-Safe Clock Monitor Enabled bit
  7811                           ;	FCMEN = OFF, Fail-Safe Clock Monitor is disabled
  7812                           ;	Low Voltage Programming Enable bit
  7813                           ;	LVP = OFF, RB3 pin has digital I/O, HV on MCLR must be used for programming
  7814                           ;	In-Circuit Debugger Mode bit
  7815                           ;	DEBUG = 0x1, unprogrammed default
  7816  2007                     	org	8199
  7817  2007  20D4               	dw	8404
  7818                           
  7819                           ;Config register CONFIG2 @ 0x2008
  7820                           ;	Brown-out Reset Selection bit
  7821                           ;	BOR4V = BOR40V, Brown-out Reset set to 4.0V
  7822                           ;	Flash Program Memory Self Write Enable bits
  7823                           ;	WRT = OFF, Write protection off
  7824  2008                     	org	8200
  7825  2008  3FFF               	dw	16383

Data Sizes:
    Strings     17
    Constant    0
    Data        0
    BSS         50
    Persistent  0
    Stack       0

Auto Spaces:
    Space          Size  Autos    Used
    COMMON           14     14      14
    BANK0            80     78      80
    BANK1            80     23      71
    BANK3            96      0       0
    BANK2            96      0       0

Pointer List with Targets:

    _doprnt$2	PTR PTR void  size(1) Largest target is 1
		 -> sprintf@ap(COMMON[1]), 

    _doprnt$1	PTR const unsigned char  size(1) Largest target is 3
		 -> STR_7(CODE[3]), STR_6(CODE[3]), 

    _doprnt$0	PTR struct __prbuf size(1) Largest target is 3
		 -> sprintf@pb(COMMON[2]), 

    S784__prbuf$func	PTR FTN(unsigned char ,)void  size(1) Largest target is 1
		 -> Absolute function(), 

    pb.func	PTR FTN(unsigned char ,)void  size(1) Largest target is 1
		 -> Absolute function(), 

    S784__prbuf$ptr	PTR unsigned char  size(1) Largest target is 20
		 -> concat@s2(BANK0[20]), concat@s1(BANK0[20]), 

    pb.ptr	PTR unsigned char  size(1) Largest target is 20
		 -> concat@s2(BANK0[20]), concat@s1(BANK0[20]), 

    convert@data	PTR unsigned char  size(1) Largest target is 10
		 -> lcd3(BANK1[10]), lcd2(BANK1[10]), lcd1(BANK1[10]), 

    Lcd_Write_String@a	PTR unsigned char  size(2) Largest target is 10
		 -> lcd3(BANK1[10]), STR_5(CODE[2]), lcd2(BANK1[10]), STR_4(CODE[2]), 
		 -> lcd1(BANK1[10]), STR_3(CODE[4]), STR_2(CODE[4]), STR_1(CODE[4]), 

    sp__strcat	PTR unsigned char  size(1) Largest target is 20
		 -> concat@s1(BANK0[20]), 


Critical Paths under _main in COMMON

    _I2C_Master_Init->___lldiv
    _convert->___wmul
    ___xxtofl->___wmul
    ___wmul->___fltol
    ___flsub->___wmul
    _Lcd_Write_String->_Lcd_Write_Char
    _Lcd_Write_Char->_Lcd_Port
    _Lcd_Set_Cursor->_Lcd_Cmd
    _Lcd_Init->_Lcd_Cmd
    _Lcd_Clear->_Lcd_Cmd
    _Lcd_Cmd->_Lcd_Port

Critical Paths under _main in BANK0

    _main->_convert
    _setup->_I2C_Master_Init
    _convert->___flmul
    ___xxtofl->___wmul
    ___flsub->___xxtofl
    ___flmul->___fldiv
    ___fldiv->___xxtofl

Critical Paths under _main in BANK1

    _main->_convert

Critical Paths under _main in BANK3

    None.

Critical Paths under _main in BANK2

    None.

Call Graph Tables:

 ---------------------------------------------------------------------------------
 (Depth) Function   	        Calls       Base Space   Used Autos Params    Refs
 ---------------------------------------------------------------------------------
 (0) _main                                                 8     8      0   20124
                                             15 BANK1      8     8      0
                    _I2C_Master_Read
                   _I2C_Master_Start
                    _I2C_Master_Stop
                   _I2C_Master_Write
                          _Lcd_Clear
                           _Lcd_Init
                     _Lcd_Set_Cursor
                   _Lcd_Write_String
                            ___fldiv
                            ___flmul
                           ___xxtofl
                            _convert
                              _setup
 ---------------------------------------------------------------------------------
 (1) _setup                                                0     0      0     412
                    _I2C_Master_Init
 ---------------------------------------------------------------------------------
 (2) _I2C_Master_Init                                      8     4      4     412
                                              0 BANK0      8     4      4
                            ___lldiv
 ---------------------------------------------------------------------------------
 (3) ___lldiv                                             14     6      8     314
                                              0 COMMON    14     6      8
 ---------------------------------------------------------------------------------
 (1) _convert                                             23    17      6   12072
                                             70 BANK0      8     2      6
                                              0 BANK1     15    15      0
                            ___awdiv
                            ___fldiv
                             ___flge
                            ___flmul
                            ___flsub
                            ___fltol
                             ___wmul
                           ___xxtofl
 ---------------------------------------------------------------------------------
 (2) ___xxtofl                                            14    10      4    1006
                                              4 BANK0     14    10      4
                            ___fltol (ARG)
                             ___wmul (ARG)
 ---------------------------------------------------------------------------------
 (2) ___wmul                                               6     2      4     978
                                             11 COMMON     2     2      0
                                              0 BANK0      4     0      4
                            ___fltol (ARG)
 ---------------------------------------------------------------------------------
 (2) ___fltol                                             11     7      4     761
                                              0 COMMON    11     7      4
 ---------------------------------------------------------------------------------
 (2) ___flsub                                              8     0      8    2637
                                             18 BANK0      8     0      8
                            ___fladd
                            ___fltol (ARG)
                             ___wmul (ARG)
                           ___xxtofl (ARG)
 ---------------------------------------------------------------------------------
 (3) ___fladd                                             20    12      8    2136
                                              0 COMMON    12     4      8
                                              0 BANK0      8     8      0
 ---------------------------------------------------------------------------------
 (2) ___flmul                                             26    18      8    2721
                                             44 BANK0     26    18      8
                          __Umul8_16
                            ___fldiv (ARG)
                            ___flsub (ARG)
                            ___fltol (ARG)
                           ___xxtofl (ARG)
 ---------------------------------------------------------------------------------
 (3) __Umul8_16                                            9     7      2     799
                                              0 COMMON     9     7      2
 ---------------------------------------------------------------------------------
 (2) ___flge                                              12     4      8     334
                                              0 COMMON    12     4      8
 ---------------------------------------------------------------------------------
 (2) ___fldiv                                             26    18      8    1577
                                             18 BANK0     26    18      8
                           ___xxtofl (ARG)
 ---------------------------------------------------------------------------------
 (2) ___awdiv                                              9     5      4     452
                                              0 COMMON     9     5      4
 ---------------------------------------------------------------------------------
 (1) _Lcd_Write_String                                     7     5      2     742
                                              3 COMMON     7     5      2
                     _Lcd_Write_Char
 ---------------------------------------------------------------------------------
 (2) _Lcd_Write_Char                                       2     2      0      44
                                              1 COMMON     2     2      0
                           _Lcd_Port
 ---------------------------------------------------------------------------------
 (1) _Lcd_Set_Cursor                                       4     3      1     786
                                              4 COMMON     4     3      1
                            _Lcd_Cmd
 ---------------------------------------------------------------------------------
 (1) _Lcd_Init                                             2     2      0      66
                                              4 COMMON     2     2      0
                            _Lcd_Cmd
                           _Lcd_Port
 ---------------------------------------------------------------------------------
 (1) _Lcd_Clear                                            0     0      0      44
                            _Lcd_Cmd
 ---------------------------------------------------------------------------------
 (2) _Lcd_Cmd                                              3     3      0      44
                                              1 COMMON     3     3      0
                           _Lcd_Port
 ---------------------------------------------------------------------------------
 (3) _Lcd_Port                                             1     1      0      22
                                              0 COMMON     1     1      0
 ---------------------------------------------------------------------------------
 (1) _I2C_Master_Write                                     2     0      2     402
                                              0 COMMON     2     0      2
                    _I2C_Master_Wait
 ---------------------------------------------------------------------------------
 (1) _I2C_Master_Stop                                      0     0      0       0
                    _I2C_Master_Wait
 ---------------------------------------------------------------------------------
 (1) _I2C_Master_Start                                     0     0      0       0
                    _I2C_Master_Wait
 ---------------------------------------------------------------------------------
 (1) _I2C_Master_Read                                      6     4      2     273
                                              0 COMMON     6     4      2
                    _I2C_Master_Wait
 ---------------------------------------------------------------------------------
 (2) _I2C_Master_Wait                                      0     0      0       0
 ---------------------------------------------------------------------------------
 Estimated maximum stack depth 3
 ---------------------------------------------------------------------------------

 Call Graph Graphs:

 _main (ROOT)
   _I2C_Master_Read
     _I2C_Master_Wait
   _I2C_Master_Start
     _I2C_Master_Wait
   _I2C_Master_Stop
     _I2C_Master_Wait
   _I2C_Master_Write
     _I2C_Master_Wait
   _Lcd_Clear
     _Lcd_Cmd
       _Lcd_Port
   _Lcd_Init
     _Lcd_Cmd
       _Lcd_Port
     _Lcd_Port
   _Lcd_Set_Cursor
     _Lcd_Cmd
       _Lcd_Port
   _Lcd_Write_String
     _Lcd_Write_Char
       _Lcd_Port
   ___fldiv
     ___xxtofl (ARG)
       ___fltol (ARG)
       ___wmul (ARG)
         ___fltol (ARG)
   ___flmul
     __Umul8_16
     ___fldiv (ARG)
       ___xxtofl (ARG)
         ___fltol (ARG)
         ___wmul (ARG)
           ___fltol (ARG)
     ___flsub (ARG)
       ___fladd
       ___fltol (ARG)
       ___wmul (ARG)
         ___fltol (ARG)
       ___xxtofl (ARG)
         ___fltol (ARG)
         ___wmul (ARG)
           ___fltol (ARG)
     ___fltol (ARG)
     ___xxtofl (ARG)
       ___fltol (ARG)
       ___wmul (ARG)
         ___fltol (ARG)
   ___xxtofl
     ___fltol (ARG)
     ___wmul (ARG)
       ___fltol (ARG)
   _convert
     ___awdiv
     ___fldiv
       ___xxtofl (ARG)
         ___fltol (ARG)
         ___wmul (ARG)
           ___fltol (ARG)
     ___flge
     ___flmul
       __Umul8_16
       ___fldiv (ARG)
         ___xxtofl (ARG)
           ___fltol (ARG)
           ___wmul (ARG)
             ___fltol (ARG)
       ___flsub (ARG)
         ___fladd
         ___fltol (ARG)
         ___wmul (ARG)
           ___fltol (ARG)
         ___xxtofl (ARG)
           ___fltol (ARG)
           ___wmul (ARG)
             ___fltol (ARG)
       ___fltol (ARG)
       ___xxtofl (ARG)
         ___fltol (ARG)
         ___wmul (ARG)
           ___fltol (ARG)
     ___flsub
       ___fladd
       ___fltol (ARG)
       ___wmul (ARG)
         ___fltol (ARG)
       ___xxtofl (ARG)
         ___fltol (ARG)
         ___wmul (ARG)
           ___fltol (ARG)
     ___fltol
     ___wmul
       ___fltol (ARG)
     ___xxtofl
       ___fltol (ARG)
       ___wmul (ARG)
         ___fltol (ARG)
   _setup
     _I2C_Master_Init
       ___lldiv

 Address spaces:
Name               Size   Autos  Total    Cost      Usage
BITCOMMON            E      0       0       0        0.0%
EEDATA             100      0       0       0        0.0%
NULL                 0      0       0       0        0.0%
CODE                 0      0       0       0        0.0%
COMMON               E      E       E       1      100.0%
BITSFR0              0      0       0       1        0.0%
SFR0                 0      0       0       1        0.0%
BITSFR1              0      0       0       2        0.0%
SFR1                 0      0       0       2        0.0%
STACK                0      0       0       2        0.0%
ABS                  0      0      A5       3        0.0%
BITBANK0            50      0       0       4        0.0%
BITSFR3              0      0       0       4        0.0%
SFR3                 0      0       0       4        0.0%
BANK0               50     4E      50       5      100.0%
BITSFR2              0      0       0       5        0.0%
SFR2                 0      0       0       5        0.0%
BITBANK1            50      0       0       6        0.0%
BANK1               50     17      47       7       88.8%
BITBANK3            60      0       0       8        0.0%
BANK3               60      0       0       9        0.0%
BITBANK2            60      0       0      10        0.0%
BANK2               60      0       0      11        0.0%
DATA                 0      0      A5      12        0.0%


Microchip Technology PIC Macro Assembler V2.31 build 20201012212115 
Symbol Table                                                                                   Mon Aug 09 23:26:30 2021

             ___fldiv@aexp 004B               ___fldiv@bexp 004A                          pc 0002  
             ___fldiv@sign 0043                         l83 14F3                         l77 0D34  
             ___awdiv@sign 0076                         fsr 0004        ___wmul@multiplicand 0022  
      __Umul8_16@word_mpld 0076                        l130 14B0                        l300 1589  
                      l212 07EE                        l133 14BC                        l150 15B7  
                      l142 14A5                        l127 15EF                        l136 149C  
                      l145 14AF                        l162 080D                        l171 1676  
                      l148 15AF                        l156 148B                        l180 1631  
                      l149 15B2                        l174 14D1                        l334 16DC  
                      l159 001F                        l168 1517                        l451 1743  
                      l612 0C6A                        l604 0D24                        l622 0CB2  
                      l472 082A                        l616 0C90                        l633 0D16  
                      l625 0CF2                        l706 1550                        l634 0D24  
                      l298 1571                        l475 0896                        l491 0084  
                      l731 1768                        l476 08AF                        l708 1562  
                      l484 0099                        l637 153B                        l733 17FF  
                      l494 0099                        l671 0A80                        l663 09FE  
                      l647 090C                        l591 0AF0                        l744 17C9  
                      l649 0A8C                        l745 17D5                        l737 17AD  
                      l595 0B99                        l669 0A70                        l693 0366  
                      l597 0B6E                        l687 03FA                        l699 03EE  
                      _GIE 005F                        _adc 00B1                        fsr0 0004  
                      indf 0000               ___flmul@aexp 005E               ___flmul@bexp 005F  
             ___flmul@sign 0059               ___flmul@temp 0064               ___flmul@prod 0060  
             ___fltol@exp1 007A                       l2000 0C02                       l2010 0C72  
                     l2002 0C42                       l2100 0007                       l2020 0C8F  
                     l2012 0C77                       l2004 0C48                       l2102 000A  
                     l2110 14BE                       l2022 0C94                       l2030 0CA0  
                     l2006 0C4D                       l2104 0010                       l2112 14C1  
                     l2024 0C97                       l2016 0C80                       l2008 0C5C  
                     l2032 0CA4                       l2200 002B                       l2120 1563  
                     l2106 0013                       l2114 14C7                       l2050 0CEE  
                     l2042 0CB7                       l2034 0CA5                       l2026 0C99  
                     l2018 0C8B                       l2210 0052                       l2130 1585  
                     l2122 1565                       l2108 001C                       l2116 14CA  
                     l2140 16E7                       l2300 095D                       l2060 0D0A  
                     l2052 0CF7                       l2044 0CBC                       l2036 0CA9  
                     l2028 0C9E                       l2220 0060                       l2212 0054  
                     l2204 0034                       l2124 156B                       l2118 14CE  
                     l2150 16F8                       l2142 16E9                       l2134 16DD  
                     l2310 0982                       l2302 0965                       l2070 153D  
                     l2062 0D0E                       l2054 0CFC                       l2046 0CCA  
                     l2038 0CAF                       l2230 0089                       l2214 0058  
                     l2222 0072                       l2206 0049                       l2126 1578  
                     l2160 1710                       l2152 16FE                       l2144 16ED  
                     l2136 16DE                       l2320 09AD                       l2312 0983  
                     l2304 0967                       l2240 08B0                       l2080 155E  
                     l2072 153F                       l2400 00C8                       l2064 0D10  
                     l2056 0D04                       l2048 0CCE                       l2232 008E  
                     l2208 004A                       l2128 157F                       l2162 1721  
                     l2154 1701                       l2170 1735                       l2146 16F2  
                     l2138 16E2                       l2330 09CA                       l2306 096C  
                     l2314 098C                       l2322 09B1                       l2250 08C7  
                     l2242 08B7                       l2074 1546                       l2410 00DD  
                     l2402 00CD                       l2066 0D1F                       l2058 0D09  
                     l2234 1518                       l2090 15EC                       l2172 173A  
                     l2164 1727                       l2156 1708                       l2148 16F6  
                     l2340 09E2                       l2332 09CE                       l2324 09B7  
                     l2316 099E                       l2308 097E                       l2260 08DF  
                     l2252 08CC                       l2244 08BD                       l2180 0822  
                     l2076 154A                       l2500 03A1                       l2420 00F9  
                     l2412 00E2                       l2404 00D3                       l2068 0D23  
                     l2236 151C                       l2228 0079                       l2092 15ED  
                     l2084 15B8                       l2174 173F                       l2166 1728  
                     l2158 170C                       l2350 0A03                       l2342 09E3  
                     l2334 09CF                       l2326 09BF                       l2318 099F  
                     l2270 08F4                       l2262 08E4                       l2254 08D4  
                     l2246 08C1                       l2190 0872                       l2182 083E  
                     l2078 1559                       l2510 03D4                       l2502 03AE  
                     l2430 0124                       l2422 00FE                       l2414 00EA  
                     l2406 00D7                       l2094 15EE                       l2086 15BC  
                     l2096 14B0                       l2600 1506                       l2168 172F  
                     l2352 0A08                       l2360 0A39                       l2344 09E7  
                     l2336 09D8                       l2328 09C1                       l2280 0914  
                     l2272 08F9                       l2264 08EA                       l2256 08D5  
                     l2248 08C2                       l2192 08AC                       l2184 0846  
                     l2512 03E2                       l2504 03B9                       l2440 01C1  
                     l2432 0141                       l2416 00EC                       l2408 00D8  
                     l2088 15BF                       l2098 14B6                       l2602 150C  
                     l2610 160F                       l2370 0A6F                       l2362 0A46  
                     l2354 0A16                       l2346 09FB                       l2338 09DE  
                     l2290 0932                       l2282 0920                       l2274 0901  
                     l2266 08EE                       l2258 08D7                       l2194 08AE  
                     l2186 084A                       l2178 080E                       l2514 03E6  
                     l2506 03C8                       l2450 0224                       l2442 01CA  
                     l2434 015D                       l2426 0107                       l2418 00F4  
                     l2530 1770                       l2522 1747                       l2620 14AB  
                     l2604 1511                       l2612 1615                       l2372 0A76  
                     l2364 0A54                       l2356 0A1A                       l2284 0924  
                     l2276 0902                       l2268 08EF                       l2188 086E  
                     l2516 03E7                       l2508 03D2                       l2460 02C4  
                     l2452 023D                       l2444 01DA                       l2436 0189  
                     l2428 0117                       l1900 0AC7                       l2540 1792  
                     l2524 174C                       l2700 05CB                       l2630 15A5  
                     l2622 158A                       l2614 1494                       l2606 15F0  
                     l2374 0A7A                       l2366 0A63                       l2358 0A33  
                     l2294 093B                       l2278 0904                       l2518 03F2  
                     l2470 0332                       l2462 02EA                       l2454 025A  
                     l2446 01F7                       l2438 01A5                       l2390 00AC  
                     l2382 009A                       l1910 0AD8                       l1902 0AC8  
                     l2198 0020                       l2550 17C3                       l2542 1796  
                     l2534 1779                       l2526 1750                       l2710 069D  
                     l2702 05EC                       l2632 15AB                       l2624 158F  
                     l2616 1499                       l2640 14A2                       l2608 15F3  
                     l2376 0A7C                       l2368 0A67                       l2296 094D  
                     l2288 092D                       l2480 034A                       l2472 0336  
                     l2464 0312                       l2456 0287                       l2448 0207  
                     l2392 00B1                       l2384 00A1                       l1920 0AF6  
                     l1912 0ADD                       l1904 0ACE                       l2560 17F6  
                     l2552 17CD                       l2544 17A4                       l2536 177E  
                     l2528 1760                       l2720 06C3                       l2712 06AA  
                     l2704 05F2                       l2800 0F29                       l2634 15B3  
                     l2626 1597                       l2618 14A6                       l1850 1487  
                     l2298 0955                       l2490 036B                       l2482 034B  
                     l2474 0337                       l2466 031B                       l2458 0297  
                     l2394 00B6                       l2386 00A7                       l1930 0B0A  
                     l1922 0AFA                       l1914 0AE5                       l1906 0AD2  
                     l2562 17F7                       l2554 17D7                       l2546 17B4  
                     l2538 178B                       l2730 070A                       l2722 06C8  
                     l2714 06AA                       l2706 060A                       l2650 0417  
                     l2642 03FE                       l2570 14D9                       l2810 0FEE  
                     l2802 0F49                       l2628 15A0                       l2492 0370  
                     l2484 034F                       l2476 0340                       l2468 0329  
                     l2396 00BE                       l2388 00AB                       l1940 0B1E  
                     l1932 0B0E                       l1924 0AFE                       l1916 0AE6  
                     l1908 0AD3                       l2556 17ED                       l2548 17BF  
                     l2732 07A6                       l2724 06CD                       l2740 07D8  
                     l2716 06B0                       l2708 0687                       l2660 0462  
                     l2652 041B                       l2644 0413                       l1860 169B  
                     l1852 1677                       l2580 14F2                       l2572 14E0  
                     l2804 0F73                       l2638 149D                       l2590 1655  
                     l2582 1632                       l2494 037E                       l2486 0363  
                     l2478 0346                       l2398 00C0                       l1950 0B32  
                     l1942 0B22                       l1934 0B12                       l1926 0B02  
                     l1918 0AE8                       l2558 17F2                       l2742 07DE  
                     l2734 07C6                       l2726 06EE                       l2718 06BD  
                     l2670 0493                       l2662 046B                       l2654 041B  
                     l2646 0413                       l1870 16CE                       l1862 16A4  
                     l1854 1687                       l2574 14ED                       l2566 14D2  
                     l2806 0F93                       l2750 0D5A                       l2592 0801  
                     l2584 1638                       l2496 0382                       l1960 0B72  
                     l1952 0B36                       l1944 0B26                       l1936 0B16  
                     l1928 0B06                       l1880 0A9A                       l2736 07CE  
                     l2728 06F4                       l2680 04DA                       l2672 0498  
                     l2664 047E                       l2656 0436                       l2648 0415  
                     l1864 16B6                       l1856 168A                       l1872 16D4  
                     l2576 14F0                       l2568 14D6                       l2808 0FCE  
                     l2760 0DAD                       l2752 0D66                       l2744 0D25  
                     l2586 1641                       l2594 14F5                       l2498 039B  
                     l1970 0B8F                       l1962 0B7D                       l1946 0B2A  
                     l1938 0B1A                       l1954 0B3A                       l1890 0AB1  
                     l1882 0A9E                       l2738 07D4                       l2682 0576  
                     l2674 049D                       l2690 05A8                       l2658 0457  
                     l2666 0484                       l1866 16C4                       l1858 1697  
                     l2578 14F1                       l2770 0E08                       l2762 0DC4  
                     l2754 0D90                       l2746 0D3C                       l2588 164F  
                     l2596 14FA                       l1980 0BAB                       l1964 0B7F  
                     l1972 0B93                       l1956 0B3B                       l1948 0B2E  
                     l1892 0AB2                       l1884 0A9F                       l1876 0A8D  
                     l2692 05AE                       l2684 0596                       l2676 04BE  
                     l2668 048D                       l1868 16C5                       l2780 0E38  
                     l2772 0E17                       l2764 0DC9                       l2756 0D9F  
                     l2748 0D45                       l2598 14FF                       l1990 0BD7  
                     l1982 0BC2                       l1974 0B9D                       l1966 0B83  
                     l1958 0B52                       l1886 0AA4                       l1894 0AB4  
                     l1878 0A94                       l2694 05BE                       l2686 059E  
                     l2678 04C4                       l2790 0E8E                       l2782 0E4F  
                     l2774 0E1C                       l2766 0DDD                       l2758 0DA4  
                     l1992 0BDB                       l1984 0BC6                       l1976 0BA2  
                     l1968 0B84                       l1896 0ABC                       l1888 0AA9  
                     l2696 05C6                       l2688 05A4                       l2792 0E97  
                     l2784 0E58                       l2776 0E25                       l2768 0DE6  
                     l1994 0BDC                       l1986 0BCA                       l1898 0AC1  
                     l2698 05C6                       l2794 0EAC                       l2786 0E6D  
                     l2778 0E33                       l1996 0BE7                       l1988 0BD5  
                     l2796 0EB6                       l2788 0E79                       l1998 0BEC  
                     l2798 0EBE                       STR_1 1010                       STR_2 1014  
                     STR_3 1018                       STR_4 101F                       STR_5 1012  
                     STR_6 101C                       u2000 0ADD                       u2001 0ADC  
                     u2010 0AF6                       u2011 0AF5                       u2100 0B9D  
                     u2020 0AFA                       u2101 0B9C                       u2021 0AF9  
                     u2110 0BA2                       u2030 0B52                       u2111 0BA1  
                     u2031 0B51                       u3000 0A08                       u2200 0C4D  
                     u2040 0B5B                       u3001 0A07                       u2201 0C4C  
                     u2121 0BB4                       u2041 0B59                       u3010 0A1A  
                     u2210 0C72                       u2130 0BC6                       u2122 0BBB  
                     u2050 0B5C                       u3011 0A19                       u2211 0C71  
                     u2131 0BC5                       u2123 0BC2                       u2035 0B4E  
                     u3020 0A29                       u3100 00DD                       u2300 0CB6  
                     u2220 0C77                       u2140 0BCA                       u2060 0B72  
                     u3101 00DC                       u2301 0CB5                       u2221 0C76  
                     u2141 0BC9                       u2061 0B71                       u3030 0A46  
                     u3110 00E2                       u2310 0CBC                       u2150 0BDB  
                     u2070 0B83                       u3031 0A45                       u3111 00E1  
                     u2311 0CBB                       u2151 0BDA                       u2071 0B82  
                     u3040 0A63                       u2400 154A                       u3120 00F9  
                     u2320 0CCE                       u2240 0C8F                       u3041 0A62  
                     u3025 0A24                       u2401 1549                       u3201 0216  
                     u3121 00F8                       u2321 0CCD                       u2241 0C8E  
                     u3050 0A7A                       u3202 021D                       u3130 00FE  
                     u2330 0CDF                       u2250 0C94                       u2170 0C02  
                     u2090 0B99                       u3051 0A79                       u3035 0A42  
                     u3203 0224                       u3131 00FD                       u2251 0C93  
                     u2235 0C84                       u2171 0C01                       u2091 0B98  
                     u2500 16E2                       u2420 155E                       u3060 00AB  
                     u2340 0CEE                       u2260 0C9E                       u2501 16E1  
                     u3045 0A5F                       u2421 155D                       u3221 024C  
                     u3141 014F                       u3061 00AA                       u2341 0CED  
                     u2261 0C9D                       u2181 0C1B                       u2173 0BFE  
                     u2165 0BE0                       u2085 0B88                       u2510 16ED  
                     u3310 0336                       u3222 0253                       u3142 0156  
                     u3070 00B1                       u2350 0CF7                       u2270 0CA4  
                     u2190 0C2F                       u2182 0C1C                       u2430 15CF  
                     u2511 16EC                       u2415 1551                       u3311 0335  
                     u3231 0279                       u3223 025A                       u3215 0226  
                     u3151 016B                       u3143 015D                       u3071 00B0  
                     u2351 0CF6                       u2335 0CDA                       u2271 0CA3  
                     u2191 0C30                       u2183 0C21                       u2440 14B6  
                     u2520 16FE                       u2600 0822                       u3400 03AE  
                     u3232 0280                       u3152 0172                       u3080 00B6  
                     u2360 0CFC                       u2280 0CA9                       u2192 0C35  
                     u2184 0C22                       u2441 14B5                       u2521 16FD  
                     u2601 0821                       u3401 03AD                       u3305 032B  
                     u3241 02A6                       u3233 0287                       u3161 0197  
                     u3153 0179                       u3081 00B5                       u2361 0CFB  
                     u2281 0CA8                       u2193 0C36                       u2185 0C27  
                     u2450 14BC                       u2610 083E                       u3410 03C8  
                     u3330 034A                       u3250 02D0                       u3242 02AD  
                     u3162 019E                       u3090 00D7                       u2370 0D09  
                     u2290 0CAF                       u2186 0C28                       u2451 14BB  
                     u2611 083D                       u3411 03C7                       u3331 0349  
                     u3243 02B4                       u3171 01B3                       u3163 01A5  
                     u3091 00D6                       u2371 0D08                       u2291 0CAE  
                     u2435 15CA                       u2540 1710                       u2620 084A  
                     u3420 03E6                       u3340 034F                       u3172 01BA  
                     u2380 0D0E                       u2700 005F                       u2460 156B  
                     u2541 170F                       u2621 0849                       u3421 03E5  
                     u3405 03AA                       u3341 034E                       u3325 0339  
                     u3261 02DC                       u3173 01C1                       u2381 0D0D  
                     u2701 005E                       u2461 156A                       u3350 0363  
                     u3270 02F8                       u3262 02E3                       u2390 0D23  
                     u3510 17C3                       u3430 174C                       u1910 16B6  
                     u2535 1702                       u2631 0859                       u3415 03C4  
                     u3351 0362                       u3263 02EA                       u3255 02CB  
                     u3191 01E9                       u2391 0D22                       u3511 17C2  
                     u3431 174B                       u1911 16B5                       u3600 161F  
                     u2560 1721                       u2800 08EE                       u2640 0872  
                     u2632 085A                       u3360 036A                       u3192 01F0  
                     u2720 0071                       u3520 17C9                       u3440 1750  
                     u2561 1720                       u2801 08ED                       u2641 0871  
                     u2633 085F                       u3361 0369                       u3281 0304  
                     u3193 01F7                       u3185 01C3                       u2721 0070  
                     u3521 17C8                       u3505 17B8                       u3441 174F  
                     u1905 169D                       u3610 1631                       u2810 08F4  
                     u2634 0860                       u3370 0370                       u3282 030B  
                     u2730 0078                       u2490 1585                       u3530 17CD  
                     u3450 1770                       u1930 16D4                       u3611 1630  
                     u2555 1711                       u2811 08F3                       u2651 0881  
                     u2635 0865                       u3371 036F                       u3283 0312  
                     u3275 02F3                       u2731 0077                       u2715 0061  
                     u2491 1584                       u2475 1572                       u3531 17CC  
                     u3451 176F                       u1931 16D3                       u1915 16B2  
                     u3620 15AB                       u2580 1735                       u2900 099E  
                     u2820 08F9                       u2660 08AC                       u2652 0882  
                     u2636 0866                       u3380 0382                       u1940 0A9E  
                     u3540 17E2                       u3700 070A                       u3621 15AA  
                     u2581 1734                       u2565 171D                       u2901 099D  
                     u2821 08F8                       u2661 08AB                       u2653 0887  
                     u3381 0381                       u1941 0A9D                       u2485 1579  
                     u3701 0709                       u1925 16C6                       u2590 173A  
                     u2910 09B7                       u2830 0914                       u2654 0888  
                     u3390 0391                       u1950 0AA4                       u2750 0089  
                     u2670 002B                       u3550 17F2                       u3470 1791  
                     u3710 07DE                       u3630 0436                       u1870 1687  
                     u2591 1739                       u2575 1729                       u2911 09B6  
                     u2831 0913                       u2655 088D                       u3295 0314  
                     u1951 0AA3                       u2751 0088                       u2671 002A  
                     u3551 17F1                       u3471 1790                       u3711 07DD  
                     u3631 0435                       u1871 1686                       u2920 09BF  
                     u2840 0932                       u2656 088E                       u1960 0AA9  
                     u2760 008E                       u2680 0042                       u3560 17F6  
                     u3640 048C                       u2921 09BE                       u2905 099A  
                     u2841 0931                       u2665 08A8                       u1961 0AA8  
                     u2761 008D                       u2745 007B                       u3561 17F5  
                     u3545 17DD                       u3465 1783                       u3705 0706  
                     u3641 048B                       u3570 14FA                       u2850 096C  
                     u2770 08C1                       u1970 0AC7                       u2690 0058  
                     u3490 17B3                       u3650 0493                       u1890 169B  
                     u3571 14F9                       u2851 096B                       u2771 08C0  
                     u3395 038C                       u1971 0AC6                       u2691 0057  
                     u3491 17B2                       u3651 0492                       u1891 169A  
                     _PEIE 005E                       u3580 150C                       u2940 09CE  
                     u2780 08C7                       u1980 0AD2                       u3660 04DA  
                     u3581 150B                       u2941 09CD                       u2781 08C6  
                     u1981 0AD1                       u2685 003D                       u3485 17A5  
                     u3661 04D9                       u1885 168C                       u3590 15FD  
                     u2790 08CC                       u1990 0AD8                       u3670 05AE  
                     u3807 163C                       u2935 09C3                       u2791 08CB  
                     u1991 0AD7                       u3671 05AD                       u3727 0D98  
                     u2960 09E2                       u2880 0982                       u3680 060A  
                     u3817 164B                       u2961 09E1                       u2881 0981  
                     u2865 096E                       u3681 0609                       u3665 04D6  
                     u3737 0DBD                       u2970 09E7                       u3690 06C3  
                     u3827 1659                       u2971 09E6                       u2955 09D1  
                     u2875 0977                       u3691 06C2                       u3747 0DD6  
                     u2980 09FB                       u3837 0017                       u2981 09FA  
                     u3685 0606                       u3757 0DEE                       u2990 0A02  
                     u2991 0A01                       u2895 0985                       u3767 0E10  
                     u3777 0E40                       u3787 0FF6                       u3797 14CC  
                     _TXIF 0064                       _lcd1 00C6                       _lcd2 00BC  
                     _lcd3 00B2          ?_Lcd_Write_String 0073                       _dato 006E  
                     _main 0D25                       btemp 007E                       start 0000  
       ??_Lcd_Write_String 0075            ___fldiv@new_exp 0044            __end_of_Lcd_Cmd 0020  
         ?_I2C_Master_Init 0020           ?_I2C_Master_Read 0070           ?_I2C_Master_Wait 0070  
         ?_I2C_Master_Stop 0070              ___fltol@sign1 0079            __end_of___fladd 0D25  
                    ?_main 0070            __end_of___fldiv 0A8D            __end_of___awdiv 1744  
          __end_of___flmul 03FB            __end_of___flsub 153C            __end_of___fltol 009A  
                    _ANSEL 0188            __end_of___lldiv 16DD            ___awdiv@divisor 0070  
          ___awdiv@counter 0075                      _PORTB 0006                      _PORTD 0008  
  __size_of_Lcd_Set_Cursor 0024                      _TRISB 0086                      _TRISD 0088  
                    _SSPIE 0463                      _SSPIF 0063                      _TXREG 0019  
              convert@data 00DA                convert@temp 00D0            __end_of_convert 07EF  
                    _conv1 00A8                      _conv2 00A4                      _conv3 00A0  
                    _setup 14D2                      pclath 000A                      status 0003  
                    wtemp0 007E           __end_of_Lcd_Init 1677           __end_of_Lcd_Port 148C  
          __initialization 07EF               __end_of_main 1000                     ??_main 00DF  
       __size_of_Lcd_Clear 000D          ?_I2C_Master_Start 0070          ?_I2C_Master_Write 0070  
       ??_I2C_Master_Start 0070         ??_I2C_Master_Write 0072           ___awdiv@dividend 0072  
                   ?_setup 0070                     _ANSELH 0189                  ??_Lcd_Cmd 0071  
  __size_of_Lcd_Write_Char 0015                     _SSPADD 0093                     _TRISC3 043B  
                   _TRISC4 043C                     _SSPCON 0014                     _SSPBUF 0013  
         __end_of___xxtofl 1800                     ___flge 080E               convert@place 006A  
                ??___fladd 0020                     ___wmul 1563                  ??___fldiv 003A  
                ??___awdiv 0074                  ??___flmul 0054                  ??___flsub 007D  
                ??___fltol 0074                  ??___lldiv 0078           ___awdiv@quotient 0077  
                   _sensor 00B0                  ??_convert 006C         __size_of__Umul8_16 0027  
          Lcd_Set_Cursor@a 0076            Lcd_Set_Cursor@b 0074                 ___flge@ff1 0070  
               ___flge@ff2 0074               ___xxtofl@arg 002E               ___xxtofl@exp 002D  
             ___xxtofl@val 0024    __end_of__initialization 07FC          __end_of_Lcd_Clear 080E  
               ___fltol@f1 0070             __pcstackCOMMON 0070              __end_of_setup 14F4  
           _Lcd_Set_Cursor 14F4                  ?_Lcd_Init 0070                  ?_Lcd_Port 0070  
                  ??_setup 007E                 __pbssBANK0 006E                 __pbssBANK1 00A0  
        __end_of__Umul8_16 1563                 __pmaintext 0D25                    ?___flge 0070  
                  ?___wmul 0020  __size_of_Lcd_Write_String 0042     __end_of_Lcd_Set_Cursor 1518  
                ?___xxtofl 0024                 ??_Lcd_Init 0074                 ??_Lcd_Port 0070  
             _datos_sensor 00AC                    _SSPCON2 0091                    _SSPSTAT 0094  
               __stringtab 1000             _Lcd_Write_Char 14BD                    _Lcd_Cmd 0006  
            convert@digits 00DB            __size_of___flge 00A2                    ___fladd 0A8D  
                  ___fldiv 08B0                    ___awdiv 16DD                    ___flmul 009A  
                  ___flsub 1518                    ___fltol 0020                    ___lldiv 1677  
          __size_of___wmul 0027            ?_Lcd_Set_Cursor 0074                    __ptext1 14D2  
                  __ptext2 15B8                    __ptext3 1677                    __ptext4 03FB  
                  __ptext5 1744                    __ptext6 1563                    __ptext7 0020  
                  __ptext8 1518                    __ptext9 0A8D                    _convert 03FB  
               ??___xxtofl 0028   __size_of_I2C_Master_Init 0038   __size_of_I2C_Master_Read 002E  
 __size_of_I2C_Master_Wait 000D   __size_of_I2C_Master_Stop 0009                    clrloop0 148D  
   __end_of_Lcd_Write_Char 14D2       end_of_initialization 07FC  __size_of_I2C_Master_Start 0009  
__size_of_I2C_Master_Write 000A            ___lldiv@divisor 0070            ___lldiv@counter 007D  
         I2C_Master_Init@c 0020           I2C_Master_Read@a 0070                  Lcd_Port@a 0070  
                _PORTCbits 0007                ___fladd@grs 007B              ___xxtofl@sign 002C  
                _TRISCbits 0087                ___fldiv@grs 0046                ___fldiv@rem 003F  
          ?_Lcd_Write_Char 0070          Lcd_Write_String@a 0073          Lcd_Write_String@i 0078  
              ___flmul@grs 005A                  _Lcd_Clear 0801             __end_of___flge 08B0  
           __end_of___wmul 158A           _Lcd_Write_String 15F0        start_initialization 07EF  
        __size_of_Lcd_Init 0045          __size_of_Lcd_Port 0006          ??_I2C_Master_Init 0024  
        ??_I2C_Master_Read 0072          ??_I2C_Master_Wait 0070          ??_I2C_Master_Stop 0070  
               ?_Lcd_Clear 0070                   ??___flge 0078                   ??___wmul 007B  
                __Umul8_16 153C            Lcd_Write_Char@a 0072                  ___fladd@a 0074  
                ___fladd@b 0070                  ___fldiv@a 0032                  ___fldiv@b 0036  
                ___flmul@a 0050                  ___flmul@b 004C                  ___flsub@a 0032  
                ___flsub@b 0036                  ___latbits 0002              __pcstackBANK0 0020  
            __pcstackBANK1 00D0          __size_of___xxtofl 00BC                   ?_Lcd_Cmd 0070  
         _I2C_Master_Start 1494           _I2C_Master_Write 14A6                  _main$1004 00E3  
         ??_Lcd_Set_Cursor 0075                   ?___fladd 0070                   ?___fldiv 0032  
                 ?___awdiv 0070                   ?___flmul 004C                   ?___flsub 0032  
                 ?___fltol 0070                   ?___lldiv 0070                 ?__Umul8_16 0070  
                __pstrings 1000                   ?_convert 0066             __size_of_setup 0022  
           ___wmul@product 007B                  clear_ram0 148C                   Lcd_Cmd@a 0073  
              ??_Lcd_Clear 0074                __stringbase 100F          ___wmul@multiplier 0020  
         ??_Lcd_Write_Char 0071                   _Lcd_Init 1632                   _Lcd_Port 1486  
      I2C_Master_Read@temp 0074                  convert@mu 00DD   __end_of_Lcd_Write_String 1632  
         __size_of_Lcd_Cmd 001A                ??__Umul8_16 0072           __size_of___fladd 0298  
         __size_of___fldiv 01DD           __size_of___awdiv 0067           __size_of___flmul 0361  
         __size_of___flsub 0024           __size_of___fltol 007A           __size_of___lldiv 0066  
       __end_of__stringtab 1010           __size_of_convert 03F4            _I2C_Master_Init 15B8  
          _I2C_Master_Read 158A                   ___xxtofl 1744            _I2C_Master_Wait 14B0  
          _I2C_Master_Stop 149D                   __ptext10 009A                   __ptext11 153C  
                 __ptext20 0006                   __ptext12 080E                   __ptext21 1486  
                 __ptext13 08B0                   __ptext22 14A6                   __ptext14 16DD  
                 __ptext23 149D                   __ptext15 15F0                   __ptext24 1494  
                 __ptext16 14BD                   __ptext25 158A                   __ptext17 14F4  
                 __ptext26 14B0                   __ptext18 1632                   __ptext19 0801  
                 _contador 00AF              __size_of_main 02DB                   convert@a 0066  
                 convert@i 00D8                   convert@j 00D2                   convert@x 00D4  
 __end_of_I2C_Master_Start 149D   __end_of_I2C_Master_Write 14B0           ___lldiv@dividend 0074  
                stringcode 100A                 _OSCCONbits 008F    __end_of_I2C_Master_Init 15F0  
  __end_of_I2C_Master_Read 15B8    __end_of_I2C_Master_Wait 14BD    __end_of_I2C_Master_Stop 14A6  
       Lcd_Set_Cursor@temp 0077     __Umul8_16@multiplicand 0070           ___lldiv@quotient 0079  
        I2C_Master_Write@d 0070                   stringdir 100A                   stringtab 1000  
              _SSPCON2bits 0091              ___fladd@signs 0078               ___fladd@aexp 0079  
             ___fladd@bexp 007A       __Umul8_16@multiplier 0078          __Umul8_16@product 0074  
