

Microchip MPLAB XC8 Assembler V2.31 build 20201012212115 
                                                                                               Sun Aug 08 21:37:26 2021

Microchip MPLAB XC8 C Compiler v2.31 (Free license) build 20201012212115 Og1 
     1                           	processor	16F887
     2                           	pagewidth 120
     3                           	opt	flic
     4                           	psect	strings,global,class=STRING,delta=2,noexec
     5                           	psect	cinit,global,class=CODE,merge=1,delta=2
     6                           	psect	bssBANK0,global,class=BANK0,space=1,delta=1,noexec
     7                           	psect	bssBANK1,global,class=BANK1,space=1,delta=1,noexec
     8                           	psect	clrtext,global,class=CODE,delta=2
     9                           	psect	cstackBANK1,global,class=BANK1,space=1,delta=1,noexec
    10                           	psect	cstackCOMMON,global,class=COMMON,space=1,delta=1,noexec
    11                           	psect	cstackBANK0,global,class=BANK0,space=1,delta=1,noexec
    12                           	psect	maintext,global,class=CODE,split=1,delta=2
    13                           	psect	text1,local,class=CODE,merge=1,delta=2
    14                           	psect	text2,local,class=CODE,merge=1,delta=2
    15                           	psect	text3,local,class=CODE,merge=1,delta=2,group=1
    16                           	psect	text4,local,class=CODE,merge=1,delta=2
    17                           	psect	text5,local,class=CODE,merge=1,delta=2,group=1
    18                           	psect	text6,local,class=CODE,merge=1,delta=2,group=1
    19                           	psect	text7,local,class=CODE,merge=1,delta=2,group=1
    20                           	psect	text8,local,class=CODE,merge=1,delta=2,group=1
    21                           	psect	text9,local,class=CODE,merge=1,delta=2,group=1
    22                           	psect	text10,local,class=CODE,merge=1,delta=2,group=1
    23                           	psect	text11,local,class=CODE,merge=1,delta=2,group=1
    24                           	psect	text12,local,class=CODE,merge=1,delta=2,group=1
    25                           	psect	text13,local,class=CODE,merge=1,delta=2,group=1
    26                           	psect	text14,local,class=CODE,merge=1,delta=2,group=1
    27                           	psect	text15,local,class=CODE,merge=1,delta=2
    28                           	psect	text16,local,class=CODE,merge=1,delta=2
    29                           	psect	text17,local,class=CODE,merge=1,delta=2
    30                           	psect	text18,local,class=CODE,merge=1,delta=2
    31                           	psect	text19,local,class=CODE,merge=1,delta=2
    32                           	psect	text20,local,class=CODE,merge=1,delta=2
    33                           	psect	text21,local,class=CODE,merge=1,delta=2
    34                           	psect	text22,local,class=CODE,merge=1,delta=2
    35                           	psect	text23,local,class=CODE,merge=1,delta=2
    36                           	psect	text24,local,class=CODE,merge=1,delta=2
    37                           	psect	text25,local,class=CODE,merge=1,delta=2
    38                           	psect	text26,local,class=CODE,merge=1,delta=2
    39                           	psect	config,global,abs,ovrld,class=CONFIG,space=4,delta=2,noexec
    40                           	dabs	1,0x7E,2
    41  0000                     
    42                           ; Version 2.20
    43                           ; Generated 12/02/2020 GMT
    44                           ; 
    45                           ; Copyright © 2020, Microchip Technology Inc. and its subsidiaries ("Microchip")
    46                           ; All rights reserved.
    47                           ; 
    48                           ; This software is developed by Microchip Technology Inc. and its subsidiaries ("Microch
      +                          ip").
    49                           ; 
    50                           ; Redistribution and use in source and binary forms, with or without modification, are
    51                           ; permitted provided that the following conditions are met:
    52                           ; 
    53                           ;     1. Redistributions of source code must retain the above copyright notice, this lis
      +                          t of
    54                           ;        conditions and the following disclaimer.
    55                           ; 
    56                           ;     2. Redistributions in binary form must reproduce the above copyright notice, this 
      +                          list
    57                           ;        of conditions and the following disclaimer in the documentation and/or other
    58                           ;        materials provided with the distribution.
    59                           ; 
    60                           ;     3. Microchip's name may not be used to endorse or promote products derived from th
      +                          is
    61                           ;        software without specific prior written permission.
    62                           ; 
    63                           ; THIS SOFTWARE IS PROVIDED BY MICROCHIP "AS IS" AND ANY EXPRESS OR IMPLIED WARRANTIES,
    64                           ; INCLUDING, BUT NOT LIMITED TO, THE IMPLIED WARRANTIES OF MERCHANTABILITY AND FITNESS F
      +                          OR
    65                           ; PURPOSE ARE DISCLAIMED.  IN NO EVENT SHALL MICROCHIP BE LIABLE FOR ANY DIRECT, INDIREC
      +                          T,
    66                           ; INCIDENTAL, SPECIAL, EXEMPLARY, OR CONSEQUENTIAL DAMAGES (INCLUDING BUT NOT LIMITED TO
    67                           ; PROCUREMENT OF SUBSTITUTE GOODS OR SERVICES; LOSS OF USE, DATA OR PROFITS; OR BUSINESS
    68                           ; INTERRUPTION) HOWSOEVER CAUSED AND ON ANY THEORY OF LIABILITY, WHETHER IN CONTRACT, ST
      +                          RICT
    69                           ; LIABILITY, OR TORT (INCLUDING NEGLIGENCE OR OTHERWISE) ARISING IN ANY WAY OUT OF THE U
      +                          SE OF
    70                           ; THIS SOFTWARE, EVEN IF ADVISED OF THE POSSIBILITY OF SUCH DAMAGE.
    71                           ; 
    72                           ; 
    73                           ; Code-generator required, PIC16F887 Definitions
    74                           ; 
    75                           ; SFR Addresses
    76  0000                     	;# 
    77  0001                     	;# 
    78  0002                     	;# 
    79  0003                     	;# 
    80  0004                     	;# 
    81  0005                     	;# 
    82  0006                     	;# 
    83  0007                     	;# 
    84  0008                     	;# 
    85  0009                     	;# 
    86  000A                     	;# 
    87  000B                     	;# 
    88  000C                     	;# 
    89  000D                     	;# 
    90  000E                     	;# 
    91  000E                     	;# 
    92  000F                     	;# 
    93  0010                     	;# 
    94  0011                     	;# 
    95  0012                     	;# 
    96  0013                     	;# 
    97  0014                     	;# 
    98  0015                     	;# 
    99  0015                     	;# 
   100  0016                     	;# 
   101  0017                     	;# 
   102  0018                     	;# 
   103  0019                     	;# 
   104  001A                     	;# 
   105  001B                     	;# 
   106  001B                     	;# 
   107  001C                     	;# 
   108  001D                     	;# 
   109  001E                     	;# 
   110  001F                     	;# 
   111  0081                     	;# 
   112  0085                     	;# 
   113  0086                     	;# 
   114  0087                     	;# 
   115  0088                     	;# 
   116  0089                     	;# 
   117  008C                     	;# 
   118  008D                     	;# 
   119  008E                     	;# 
   120  008F                     	;# 
   121  0090                     	;# 
   122  0091                     	;# 
   123  0092                     	;# 
   124  0093                     	;# 
   125  0093                     	;# 
   126  0093                     	;# 
   127  0094                     	;# 
   128  0095                     	;# 
   129  0096                     	;# 
   130  0097                     	;# 
   131  0098                     	;# 
   132  0099                     	;# 
   133  009A                     	;# 
   134  009B                     	;# 
   135  009C                     	;# 
   136  009D                     	;# 
   137  009E                     	;# 
   138  009F                     	;# 
   139  0105                     	;# 
   140  0107                     	;# 
   141  0108                     	;# 
   142  0109                     	;# 
   143  010C                     	;# 
   144  010C                     	;# 
   145  010D                     	;# 
   146  010E                     	;# 
   147  010F                     	;# 
   148  0185                     	;# 
   149  0187                     	;# 
   150  0188                     	;# 
   151  0189                     	;# 
   152  018C                     	;# 
   153  018D                     	;# 
   154  0000                     	;# 
   155  0001                     	;# 
   156  0002                     	;# 
   157  0003                     	;# 
   158  0004                     	;# 
   159  0005                     	;# 
   160  0006                     	;# 
   161  0007                     	;# 
   162  0008                     	;# 
   163  0009                     	;# 
   164  000A                     	;# 
   165  000B                     	;# 
   166  000C                     	;# 
   167  000D                     	;# 
   168  000E                     	;# 
   169  000E                     	;# 
   170  000F                     	;# 
   171  0010                     	;# 
   172  0011                     	;# 
   173  0012                     	;# 
   174  0013                     	;# 
   175  0014                     	;# 
   176  0015                     	;# 
   177  0015                     	;# 
   178  0016                     	;# 
   179  0017                     	;# 
   180  0018                     	;# 
   181  0019                     	;# 
   182  001A                     	;# 
   183  001B                     	;# 
   184  001B                     	;# 
   185  001C                     	;# 
   186  001D                     	;# 
   187  001E                     	;# 
   188  001F                     	;# 
   189  0081                     	;# 
   190  0085                     	;# 
   191  0086                     	;# 
   192  0087                     	;# 
   193  0088                     	;# 
   194  0089                     	;# 
   195  008C                     	;# 
   196  008D                     	;# 
   197  008E                     	;# 
   198  008F                     	;# 
   199  0090                     	;# 
   200  0091                     	;# 
   201  0092                     	;# 
   202  0093                     	;# 
   203  0093                     	;# 
   204  0093                     	;# 
   205  0094                     	;# 
   206  0095                     	;# 
   207  0096                     	;# 
   208  0097                     	;# 
   209  0098                     	;# 
   210  0099                     	;# 
   211  009A                     	;# 
   212  009B                     	;# 
   213  009C                     	;# 
   214  009D                     	;# 
   215  009E                     	;# 
   216  009F                     	;# 
   217  0105                     	;# 
   218  0107                     	;# 
   219  0108                     	;# 
   220  0109                     	;# 
   221  010C                     	;# 
   222  010C                     	;# 
   223  010D                     	;# 
   224  010E                     	;# 
   225  010F                     	;# 
   226  0185                     	;# 
   227  0187                     	;# 
   228  0188                     	;# 
   229  0189                     	;# 
   230  018C                     	;# 
   231  018D                     	;# 
   232  0000                     	;# 
   233  0001                     	;# 
   234  0002                     	;# 
   235  0003                     	;# 
   236  0004                     	;# 
   237  0005                     	;# 
   238  0006                     	;# 
   239  0007                     	;# 
   240  0008                     	;# 
   241  0009                     	;# 
   242  000A                     	;# 
   243  000B                     	;# 
   244  000C                     	;# 
   245  000D                     	;# 
   246  000E                     	;# 
   247  000E                     	;# 
   248  000F                     	;# 
   249  0010                     	;# 
   250  0011                     	;# 
   251  0012                     	;# 
   252  0013                     	;# 
   253  0014                     	;# 
   254  0015                     	;# 
   255  0015                     	;# 
   256  0016                     	;# 
   257  0017                     	;# 
   258  0018                     	;# 
   259  0019                     	;# 
   260  001A                     	;# 
   261  001B                     	;# 
   262  001B                     	;# 
   263  001C                     	;# 
   264  001D                     	;# 
   265  001E                     	;# 
   266  001F                     	;# 
   267  0081                     	;# 
   268  0085                     	;# 
   269  0086                     	;# 
   270  0087                     	;# 
   271  0088                     	;# 
   272  0089                     	;# 
   273  008C                     	;# 
   274  008D                     	;# 
   275  008E                     	;# 
   276  008F                     	;# 
   277  0090                     	;# 
   278  0091                     	;# 
   279  0092                     	;# 
   280  0093                     	;# 
   281  0093                     	;# 
   282  0093                     	;# 
   283  0094                     	;# 
   284  0095                     	;# 
   285  0096                     	;# 
   286  0097                     	;# 
   287  0098                     	;# 
   288  0099                     	;# 
   289  009A                     	;# 
   290  009B                     	;# 
   291  009C                     	;# 
   292  009D                     	;# 
   293  009E                     	;# 
   294  009F                     	;# 
   295  0105                     	;# 
   296  0107                     	;# 
   297  0108                     	;# 
   298  0109                     	;# 
   299  010C                     	;# 
   300  010C                     	;# 
   301  010D                     	;# 
   302  010E                     	;# 
   303  010F                     	;# 
   304  0185                     	;# 
   305  0187                     	;# 
   306  0188                     	;# 
   307  0189                     	;# 
   308  018C                     	;# 
   309  018D                     	;# 
   310  0007                     _PORTCbits	set	7
   311  0013                     _SSPBUF	set	19
   312  0014                     _SSPCON	set	20
   313  0008                     _PORTD	set	8
   314  0006                     _PORTB	set	6
   315  0063                     _SSPIF	set	99
   316  005E                     _PEIE	set	94
   317  005F                     _GIE	set	95
   318  0091                     _SSPCON2bits	set	145
   319  0094                     _SSPSTAT	set	148
   320  0093                     _SSPADD	set	147
   321  0091                     _SSPCON2	set	145
   322  008F                     _OSCCONbits	set	143
   323  0088                     _TRISD	set	136
   324  0086                     _TRISB	set	134
   325  0087                     _TRISCbits	set	135
   326  0463                     _SSPIE	set	1123
   327  043C                     _TRISC4	set	1084
   328  043B                     _TRISC3	set	1083
   329  0189                     _ANSELH	set	393
   330  0188                     _ANSEL	set	392
   331                           
   332                           	psect	strings
   333  1000                     __pstrings:
   334  1000                     stringtab:
   335  1000                     __stringtab:
   336                           
   337                           ;	String table - string pointers are 1 byte each
   338  1000  1BFF               	btfsc	btemp+1,7
   339  1001  280A               	ljmp	stringcode
   340  1002  1383               	bcf	3,7
   341  1003  187F               	btfsc	btemp+1,0
   342  1004  1783               	bsf	3,7
   343  1005  0800               	movf	0,w
   344  1006  0A84               	incf	4,f
   345  1007  1903               	skipnz
   346  1008  0AFF               	incf	btemp+1,f
   347  1009  0008               	return
   348  100A                     stringcode:
   349  100A                     stringdir:
   350  100A  3010               	movlw	high stringdir
   351  100B  008A               	movwf	10
   352  100C  0804               	movf	4,w
   353  100D  0A84               	incf	4,f
   354  100E  0782               	addwf	2,f
   355  100F                     __stringbase:
   356  100F  3400               	retlw	0
   357  1010                     __end_of__stringtab:
   358  1010                     STR_1:
   359  1010  3441               	retlw	65	;'A'
   360  1011  3444               	retlw	68	;'D'
   361  1012  3443               	retlw	67	;'C'
   362  1013  3400               	retlw	0
   363  1014                     STR_2:
   364  1014  3453               	retlw	83	;'S'
   365  1015  3445               	retlw	69	;'E'
   366  1016  344E               	retlw	78	;'N'
   367  1017  3400               	retlw	0
   368  1018                     STR_3:
   369  1018  3443               	retlw	67	;'C'
   370  1019  344F               	retlw	79	;'O'
   371  101A  344E               	retlw	78	;'N'
   372  101B  3400               	retlw	0
   373  101C                     STR_4:
   374  101C  3456               	retlw	86	;'V'
   375  101D  3400               	retlw	0
   376  1012                     
   377                           	psect	cinit
   378  07EF                     start_initialization:	
   379                           ; #config settings
   380                           
   381  07EF                     __initialization:
   382                           
   383                           ; Clear objects allocated to BANK0
   384  07EF  1283               	bcf	3,5	;RP0=0, select bank0
   385  07F0  1303               	bcf	3,6	;RP1=0, select bank0
   386  07F1  01EE               	clrf	__pbssBANK0& (0+127)
   387  07F2  01EF               	clrf	(__pbssBANK0+1)& (0+127)
   388                           
   389                           ; Clear objects allocated to BANK1
   390  07F3  1383               	bcf	3,7	;select IRP bank0
   391  07F4  30A0               	movlw	low __pbssBANK1
   392  07F5  0084               	movwf	4
   393  07F6  30CC               	movlw	low (__pbssBANK1+44)
   394  07F7  160A  118A  254D  120A  118A  	fcall	clear_ram0
   395  07FC                     end_of_initialization:	
   396                           ;End of C runtime variable initialization code
   397                           
   398  07FC                     __end_of__initialization:
   399  07FC  0183               	clrf	3
   400  07FD  120A  158A  2B3C   	ljmp	_main	;jump to C main() function
   401                           
   402                           	psect	bssBANK0
   403  006E                     __pbssBANK0:
   404  006E                     _contador:
   405  006E                     	ds	1
   406  006F                     _adc:
   407  006F                     	ds	1
   408                           
   409                           	psect	bssBANK1
   410  00A0                     __pbssBANK1:
   411  00A0                     _lcd3:
   412  00A0                     	ds	10
   413  00AA                     _conv3:
   414  00AA                     	ds	4
   415  00AE                     _conv2:
   416  00AE                     	ds	4
   417  00B2                     _conv1:
   418  00B2                     	ds	4
   419  00B6                     _sensor:
   420  00B6                     	ds	2
   421  00B8                     _lcd2:
   422  00B8                     	ds	10
   423  00C2                     _lcd1:
   424  00C2                     	ds	10
   425                           
   426                           	psect	clrtext
   427  154D                     clear_ram0:	
   428                           ;	Called with FSR containing the base address, and
   429                           ;	W with the last address+1
   430                           
   431  154D  0064               	clrwdt	;clear the watchdog before getting into this loop
   432  154E                     clrloop0:
   433  154E  0180               	clrf	0	;clear RAM location pointed to by FSR
   434  154F  0A84               	incf	4,f	;increment pointer
   435  1550  0604               	xorwf	4,w	;XOR with final address
   436  1551  1903               	btfsc	3,2	;have we reached the end yet?
   437  1552  3400               	retlw	0	;all done for this memory range, return
   438  1553  0604               	xorwf	4,w	;XOR again to restore value
   439  1554  2D4E               	goto	clrloop0	;do the next byte
   440                           
   441                           	psect	cstackBANK1
   442  00CC                     __pcstackBANK1:
   443  00CC                     convert@temp:
   444                           
   445                           ; 2 bytes @ 0x0
   446  00CC                     	ds	2
   447  00CE                     convert@j:
   448                           
   449                           ; 2 bytes @ 0x2
   450  00CE                     	ds	2
   451  00D0                     convert@data:
   452                           
   453                           ; 1 bytes @ 0x4
   454  00D0                     	ds	1
   455  00D1                     convert@x:
   456                           
   457                           ; 4 bytes @ 0x5
   458  00D1                     	ds	4
   459  00D5                     convert@i:
   460                           
   461                           ; 2 bytes @ 0x9
   462  00D5                     	ds	2
   463  00D7                     convert@digits:
   464                           
   465                           ; 2 bytes @ 0xB
   466  00D7                     	ds	2
   467  00D9                     convert@mu:
   468                           
   469                           ; 2 bytes @ 0xD
   470  00D9                     	ds	2
   471  00DB                     ??_main:
   472                           
   473                           ; 1 bytes @ 0xF
   474  00DB                     	ds	4
   475                           
   476                           	psect	cstackCOMMON
   477  0070                     __pcstackCOMMON:
   478  0070                     ?___flge:
   479  0070                     ?_setup:	
   480                           ; 1 bit 
   481                           
   482  0070                     ?_Lcd_Init:	
   483                           ; 1 bytes @ 0x0
   484                           
   485  0070                     ?_Lcd_Clear:	
   486                           ; 1 bytes @ 0x0
   487                           
   488  0070                     ?_I2C_Master_Start:	
   489                           ; 1 bytes @ 0x0
   490                           
   491  0070                     ??_I2C_Master_Start:	
   492                           ; 1 bytes @ 0x0
   493                           
   494  0070                     ?_I2C_Master_Write:	
   495                           ; 1 bytes @ 0x0
   496                           
   497  0070                     ?_I2C_Master_Stop:	
   498                           ; 1 bytes @ 0x0
   499                           
   500  0070                     ??_I2C_Master_Stop:	
   501                           ; 1 bytes @ 0x0
   502                           
   503  0070                     ?_main:	
   504                           ; 1 bytes @ 0x0
   505                           
   506  0070                     ?_I2C_Master_Wait:	
   507                           ; 1 bytes @ 0x0
   508                           
   509  0070                     ??_I2C_Master_Wait:	
   510                           ; 1 bytes @ 0x0
   511                           
   512  0070                     ?_Lcd_Port:	
   513                           ; 1 bytes @ 0x0
   514                           
   515  0070                     ??_Lcd_Port:	
   516                           ; 1 bytes @ 0x0
   517                           
   518  0070                     ?_Lcd_Cmd:	
   519                           ; 1 bytes @ 0x0
   520                           
   521  0070                     ?_Lcd_Write_Char:	
   522                           ; 1 bytes @ 0x0
   523                           
   524  0070                     ?_I2C_Master_Read:	
   525                           ; 1 bytes @ 0x0
   526                           
   527  0070                     ?__Umul8_16:	
   528                           ; 2 bytes @ 0x0
   529                           
   530  0070                     ?___awdiv:	
   531                           ; 2 bytes @ 0x0
   532                           
   533  0070                     ?___lldiv:	
   534                           ; 2 bytes @ 0x0
   535                           
   536  0070                     ?___fltol:	
   537                           ; 4 bytes @ 0x0
   538                           
   539  0070                     ?___fladd:	
   540                           ; 4 bytes @ 0x0
   541                           
   542  0070                     Lcd_Port@a:	
   543                           ; 4 bytes @ 0x0
   544                           
   545  0070                     __Umul8_16@multiplicand:	
   546                           ; 1 bytes @ 0x0
   547                           
   548  0070                     I2C_Master_Write@d:	
   549                           ; 1 bytes @ 0x0
   550                           
   551  0070                     I2C_Master_Read@a:	
   552                           ; 2 bytes @ 0x0
   553                           
   554  0070                     ___awdiv@divisor:	
   555                           ; 2 bytes @ 0x0
   556                           
   557  0070                     ___lldiv@divisor:	
   558                           ; 2 bytes @ 0x0
   559                           
   560  0070                     ___flge@ff1:	
   561                           ; 4 bytes @ 0x0
   562                           
   563  0070                     ___fltol@f1:	
   564                           ; 4 bytes @ 0x0
   565                           
   566  0070                     ___fladd@b:	
   567                           ; 4 bytes @ 0x0
   568                           
   569                           
   570                           ; 4 bytes @ 0x0
   571  0070                     	ds	1
   572  0071                     ??_Lcd_Cmd:
   573  0071                     ??_Lcd_Write_Char:	
   574                           ; 1 bytes @ 0x1
   575                           
   576                           
   577                           ; 1 bytes @ 0x1
   578  0071                     	ds	1
   579  0072                     ??_I2C_Master_Write:
   580  0072                     ??_I2C_Master_Read:	
   581                           ; 1 bytes @ 0x2
   582                           
   583  0072                     ??__Umul8_16:	
   584                           ; 1 bytes @ 0x2
   585                           
   586  0072                     Lcd_Write_Char@a:	
   587                           ; 1 bytes @ 0x2
   588                           
   589  0072                     ___awdiv@dividend:	
   590                           ; 1 bytes @ 0x2
   591                           
   592                           
   593                           ; 2 bytes @ 0x2
   594  0072                     	ds	1
   595  0073                     ?_Lcd_Write_String:
   596  0073                     Lcd_Cmd@a:	
   597                           ; 1 bytes @ 0x3
   598                           
   599  0073                     Lcd_Write_String@a:	
   600                           ; 1 bytes @ 0x3
   601                           
   602                           
   603                           ; 2 bytes @ 0x3
   604  0073                     	ds	1
   605  0074                     ??_Lcd_Init:
   606  0074                     ??_Lcd_Clear:	
   607                           ; 1 bytes @ 0x4
   608                           
   609  0074                     ?_Lcd_Set_Cursor:	
   610                           ; 1 bytes @ 0x4
   611                           
   612  0074                     ??___awdiv:	
   613                           ; 1 bytes @ 0x4
   614                           
   615  0074                     ??___fltol:	
   616                           ; 1 bytes @ 0x4
   617                           
   618  0074                     Lcd_Set_Cursor@b:	
   619                           ; 1 bytes @ 0x4
   620                           
   621  0074                     I2C_Master_Read@temp:	
   622                           ; 1 bytes @ 0x4
   623                           
   624  0074                     __Umul8_16@product:	
   625                           ; 2 bytes @ 0x4
   626                           
   627  0074                     ___lldiv@dividend:	
   628                           ; 2 bytes @ 0x4
   629                           
   630  0074                     ___flge@ff2:	
   631                           ; 4 bytes @ 0x4
   632                           
   633  0074                     ___fladd@a:	
   634                           ; 4 bytes @ 0x4
   635                           
   636                           
   637                           ; 4 bytes @ 0x4
   638  0074                     	ds	1
   639  0075                     ??_Lcd_Set_Cursor:
   640  0075                     ??_Lcd_Write_String:	
   641                           ; 1 bytes @ 0x5
   642                           
   643  0075                     ___awdiv@counter:	
   644                           ; 1 bytes @ 0x5
   645                           
   646  0075                     Lcd_Write_String@i:	
   647                           ; 1 bytes @ 0x5
   648                           
   649                           
   650                           ; 2 bytes @ 0x5
   651  0075                     	ds	1
   652  0076                     Lcd_Set_Cursor@a:
   653  0076                     ___awdiv@sign:	
   654                           ; 1 bytes @ 0x6
   655                           
   656  0076                     __Umul8_16@word_mpld:	
   657                           ; 1 bytes @ 0x6
   658                           
   659                           
   660                           ; 2 bytes @ 0x6
   661  0076                     	ds	1
   662  0077                     Lcd_Set_Cursor@temp:
   663  0077                     ___awdiv@quotient:	
   664                           ; 1 bytes @ 0x7
   665                           
   666                           
   667                           ; 2 bytes @ 0x7
   668  0077                     	ds	1
   669  0078                     ??___lldiv:
   670  0078                     ??___flge:	
   671                           ; 1 bytes @ 0x8
   672                           
   673  0078                     ___fladd@signs:	
   674                           ; 1 bytes @ 0x8
   675                           
   676  0078                     __Umul8_16@multiplier:	
   677                           ; 1 bytes @ 0x8
   678                           
   679                           
   680                           ; 1 bytes @ 0x8
   681  0078                     	ds	1
   682  0079                     ___fltol@sign1:
   683  0079                     ___fladd@aexp:	
   684                           ; 1 bytes @ 0x9
   685                           
   686  0079                     ___lldiv@quotient:	
   687                           ; 1 bytes @ 0x9
   688                           
   689                           
   690                           ; 4 bytes @ 0x9
   691  0079                     	ds	1
   692  007A                     ___fltol@exp1:
   693  007A                     ___fladd@bexp:	
   694                           ; 1 bytes @ 0xA
   695                           
   696                           
   697                           ; 1 bytes @ 0xA
   698  007A                     	ds	1
   699  007B                     ??___wmul:
   700  007B                     ___fladd@grs:	
   701                           ; 1 bytes @ 0xB
   702                           
   703  007B                     ___wmul@product:	
   704                           ; 1 bytes @ 0xB
   705                           
   706                           
   707                           ; 2 bytes @ 0xB
   708  007B                     	ds	2
   709  007D                     ??___flsub:
   710  007D                     ___lldiv@counter:	
   711                           ; 1 bytes @ 0xD
   712                           
   713                           
   714                           ; 1 bytes @ 0xD
   715  007D                     	ds	1
   716  007E                     ??_setup:
   717                           
   718                           	psect	cstackBANK0
   719  0020                     __pcstackBANK0:	
   720                           ; 1 bytes @ 0xE
   721                           
   722  0020                     ?_I2C_Master_Init:
   723  0020                     ??___fladd:	
   724                           ; 1 bytes @ 0x0
   725                           
   726  0020                     ?___wmul:	
   727                           ; 1 bytes @ 0x0
   728                           
   729  0020                     ___wmul@multiplier:	
   730                           ; 2 bytes @ 0x0
   731                           
   732  0020                     I2C_Master_Init@c:	
   733                           ; 2 bytes @ 0x0
   734                           
   735                           
   736                           ; 4 bytes @ 0x0
   737  0020                     	ds	2
   738  0022                     ___wmul@multiplicand:
   739                           
   740                           ; 2 bytes @ 0x2
   741  0022                     	ds	2
   742  0024                     ??_I2C_Master_Init:
   743  0024                     ?___xxtofl:	
   744                           ; 1 bytes @ 0x4
   745                           
   746  0024                     ___xxtofl@val:	
   747                           ; 4 bytes @ 0x4
   748                           
   749                           
   750                           ; 4 bytes @ 0x4
   751  0024                     	ds	4
   752  0028                     ??___xxtofl:
   753                           
   754                           ; 1 bytes @ 0x8
   755  0028                     	ds	4
   756  002C                     ___xxtofl@sign:
   757                           
   758                           ; 1 bytes @ 0xC
   759  002C                     	ds	1
   760  002D                     ___xxtofl@exp:
   761                           
   762                           ; 1 bytes @ 0xD
   763  002D                     	ds	1
   764  002E                     ___xxtofl@arg:
   765                           
   766                           ; 4 bytes @ 0xE
   767  002E                     	ds	4
   768  0032                     ?___flsub:
   769  0032                     ?___fldiv:	
   770                           ; 4 bytes @ 0x12
   771                           
   772  0032                     ___flsub@a:	
   773                           ; 4 bytes @ 0x12
   774                           
   775  0032                     ___fldiv@a:	
   776                           ; 4 bytes @ 0x12
   777                           
   778                           
   779                           ; 4 bytes @ 0x12
   780  0032                     	ds	4
   781  0036                     ___flsub@b:
   782  0036                     ___fldiv@b:	
   783                           ; 4 bytes @ 0x16
   784                           
   785                           
   786                           ; 4 bytes @ 0x16
   787  0036                     	ds	4
   788  003A                     ??___fldiv:
   789                           
   790                           ; 1 bytes @ 0x1A
   791  003A                     	ds	5
   792  003F                     ___fldiv@rem:
   793                           
   794                           ; 4 bytes @ 0x1F
   795  003F                     	ds	4
   796  0043                     ___fldiv@sign:
   797                           
   798                           ; 1 bytes @ 0x23
   799  0043                     	ds	1
   800  0044                     ___fldiv@new_exp:
   801                           
   802                           ; 2 bytes @ 0x24
   803  0044                     	ds	2
   804  0046                     ___fldiv@grs:
   805                           
   806                           ; 4 bytes @ 0x26
   807  0046                     	ds	4
   808  004A                     ___fldiv@bexp:
   809                           
   810                           ; 1 bytes @ 0x2A
   811  004A                     	ds	1
   812  004B                     ___fldiv@aexp:
   813                           
   814                           ; 1 bytes @ 0x2B
   815  004B                     	ds	1
   816  004C                     ?___flmul:
   817  004C                     ___flmul@b:	
   818                           ; 4 bytes @ 0x2C
   819                           
   820                           
   821                           ; 4 bytes @ 0x2C
   822  004C                     	ds	4
   823  0050                     ___flmul@a:
   824                           
   825                           ; 4 bytes @ 0x30
   826  0050                     	ds	4
   827  0054                     ??___flmul:
   828                           
   829                           ; 1 bytes @ 0x34
   830  0054                     	ds	5
   831  0059                     ___flmul@sign:
   832                           
   833                           ; 1 bytes @ 0x39
   834  0059                     	ds	1
   835  005A                     ___flmul@grs:
   836                           
   837                           ; 4 bytes @ 0x3A
   838  005A                     	ds	4
   839  005E                     ___flmul@aexp:
   840                           
   841                           ; 1 bytes @ 0x3E
   842  005E                     	ds	1
   843  005F                     ___flmul@bexp:
   844                           
   845                           ; 1 bytes @ 0x3F
   846  005F                     	ds	1
   847  0060                     ___flmul@prod:
   848                           
   849                           ; 4 bytes @ 0x40
   850  0060                     	ds	4
   851  0064                     ___flmul@temp:
   852                           
   853                           ; 2 bytes @ 0x44
   854  0064                     	ds	2
   855  0066                     ?_convert:
   856  0066                     convert@a:	
   857                           ; 1 bytes @ 0x46
   858                           
   859                           
   860                           ; 4 bytes @ 0x46
   861  0066                     	ds	4
   862  006A                     convert@place:
   863                           
   864                           ; 2 bytes @ 0x4A
   865  006A                     	ds	2
   866  006C                     ??_convert:
   867                           
   868                           ; 1 bytes @ 0x4C
   869  006C                     	ds	2
   870                           
   871                           	psect	maintext
   872  0B3C                     __pmaintext:	
   873 ;;
   874 ;;Main: autosize = 0, tempsize = 4, incstack = 0, save=0
   875 ;;
   876 ;; *************** function _main *****************
   877 ;; Defined at:
   878 ;;		line 72 in file "Master_I2C.c"
   879 ;; Parameters:    Size  Location     Type
   880 ;;		None
   881 ;; Auto vars:     Size  Location     Type
   882 ;;		None
   883 ;; Return value:  Size  Location     Type
   884 ;;                  1    wreg      void 
   885 ;; Registers used:
   886 ;;		wreg, fsr0l, fsr0h, status,2, status,0, btemp+1, pclath, cstack
   887 ;; Tracked objects:
   888 ;;		On entry : B00/0
   889 ;;		On exit  : 0/0
   890 ;;		Unchanged: 0/0
   891 ;; Data sizes:     COMMON   BANK0   BANK1   BANK3   BANK2
   892 ;;      Params:         0       0       0       0       0
   893 ;;      Locals:         0       0       0       0       0
   894 ;;      Temps:          0       0       4       0       0
   895 ;;      Totals:         0       0       4       0       0
   896 ;;Total ram usage:        4 bytes
   897 ;; Hardware stack levels required when called:    3
   898 ;; This function calls:
   899 ;;		_I2C_Master_Read
   900 ;;		_I2C_Master_Start
   901 ;;		_I2C_Master_Stop
   902 ;;		_I2C_Master_Write
   903 ;;		_Lcd_Clear
   904 ;;		_Lcd_Init
   905 ;;		_Lcd_Set_Cursor
   906 ;;		_Lcd_Write_String
   907 ;;		___fldiv
   908 ;;		___flmul
   909 ;;		___xxtofl
   910 ;;		_convert
   911 ;;		_setup
   912 ;; This function is called by:
   913 ;;		Startup code after reset
   914 ;; This function uses a non-reentrant model
   915 ;;
   916                           
   917                           
   918                           ;psect for function _main
   919  0B3C                     _main:
   920  0B3C                     l2653:	
   921                           ;incstack = 0
   922                           ; Regs used in _main: [wreg-fsr0h+status,2+status,0+btemp+1+pclath+cstack]
   923                           
   924                           
   925                           ;Master_I2C.c: 73:     setup();
   926  0B3C  160A  118A  25A0  120A  158A  	fcall	_setup
   927                           
   928                           ;Master_I2C.c: 74:     Lcd_Init();
   929  0B41  160A  118A  26EE  120A  158A  	fcall	_Lcd_Init
   930                           
   931                           ;Master_I2C.c: 75:     Lcd_Clear();
   932  0B46  160A  118A  257E  120A  158A  	fcall	_Lcd_Clear
   933  0B4B                     l63:	
   934                           ;Master_I2C.c: 76:     while(1){
   935                           
   936                           
   937                           ;Master_I2C.c: 78:         Lcd_Set_Cursor(1, 1);
   938  0B4B  01F4               	clrf	Lcd_Set_Cursor@b
   939  0B4C  0AF4               	incf	Lcd_Set_Cursor@b,f
   940  0B4D  3001               	movlw	1
   941  0B4E  160A  118A  25C2  120A  158A  	fcall	_Lcd_Set_Cursor
   942  0B53                     l2655:
   943                           
   944                           ;Master_I2C.c: 79:         Lcd_Write_String("ADC");
   945  0B53  3001               	movlw	(low ((STR_1-__stringbase)| (0+32768)))& (0+255)
   946  0B54  00F3               	movwf	Lcd_Write_String@a
   947  0B55  3080               	movlw	128
   948  0B56  00F4               	movwf	Lcd_Write_String@a+1
   949  0B57  160A  118A  2686  120A  158A  	fcall	_Lcd_Write_String
   950  0B5C                     l2657:
   951                           
   952                           ;Master_I2C.c: 80:         Lcd_Set_Cursor(1, 8);
   953  0B5C  3008               	movlw	8
   954  0B5D  1683               	bsf	3,5	;RP0=1, select bank1
   955  0B5E  1303               	bcf	3,6	;RP1=0, select bank1
   956  0B5F  00DB               	movwf	??_main^(0+128)
   957  0B60  085B               	movf	??_main^(0+128),w
   958  0B61  00F4               	movwf	Lcd_Set_Cursor@b
   959  0B62  3001               	movlw	1
   960  0B63  160A  118A  25C2  120A  158A  	fcall	_Lcd_Set_Cursor
   961                           
   962                           ;Master_I2C.c: 81:         Lcd_Write_String("SEN");
   963  0B68  3005               	movlw	(low ((STR_2-__stringbase)| (0+32768)))& (0+255)
   964  0B69  00F3               	movwf	Lcd_Write_String@a
   965  0B6A  3080               	movlw	128
   966  0B6B  00F4               	movwf	Lcd_Write_String@a+1
   967  0B6C  160A  118A  2686  120A  158A  	fcall	_Lcd_Write_String
   968  0B71                     l2659:
   969                           
   970                           ;Master_I2C.c: 82:         Lcd_Set_Cursor(1, 14);
   971  0B71  300E               	movlw	14
   972  0B72  1683               	bsf	3,5	;RP0=1, select bank1
   973  0B73  1303               	bcf	3,6	;RP1=0, select bank1
   974  0B74  00DB               	movwf	??_main^(0+128)
   975  0B75  085B               	movf	??_main^(0+128),w
   976  0B76  00F4               	movwf	Lcd_Set_Cursor@b
   977  0B77  3001               	movlw	1
   978  0B78  160A  118A  25C2  120A  158A  	fcall	_Lcd_Set_Cursor
   979  0B7D                     l2661:
   980                           
   981                           ;Master_I2C.c: 83:         Lcd_Write_String("CON");
   982  0B7D  3009               	movlw	(low ((STR_3-__stringbase)| (0+32768)))& (0+255)
   983  0B7E  00F3               	movwf	Lcd_Write_String@a
   984  0B7F  3080               	movlw	128
   985  0B80  00F4               	movwf	Lcd_Write_String@a+1
   986  0B81  160A  118A  2686  120A  158A  	fcall	_Lcd_Write_String
   987                           
   988                           ;Master_I2C.c: 86:         I2C_Master_Start();
   989  0B86  160A  118A  2555  120A  158A  	fcall	_I2C_Master_Start
   990                           
   991                           ;Master_I2C.c: 87:         I2C_Master_Write(0x51);
   992  0B8B  3051               	movlw	81
   993  0B8C  00F0               	movwf	I2C_Master_Write@d
   994  0B8D  3000               	movlw	0
   995  0B8E  00F1               	movwf	I2C_Master_Write@d+1
   996  0B8F  160A  118A  2567  120A  158A  	fcall	_I2C_Master_Write
   997                           
   998                           ;Master_I2C.c: 88:         adc = I2C_Master_Read(0);
   999  0B94  3000               	movlw	0
  1000  0B95  00F0               	movwf	I2C_Master_Read@a
  1001  0B96  00F1               	movwf	I2C_Master_Read@a+1
  1002  0B97  160A  118A  2658  120A  158A  	fcall	_I2C_Master_Read
  1003  0B9C  0870               	movf	?_I2C_Master_Read,w
  1004  0B9D  1683               	bsf	3,5	;RP0=1, select bank1
  1005  0B9E  1303               	bcf	3,6	;RP1=0, select bank1
  1006  0B9F  00DB               	movwf	??_main^(0+128)
  1007  0BA0  085B               	movf	??_main^(0+128),w
  1008  0BA1  1283               	bcf	3,5	;RP0=0, select bank0
  1009  0BA2  1303               	bcf	3,6	;RP1=0, select bank0
  1010  0BA3  00EF               	movwf	_adc	;volatile
  1011                           
  1012                           ;Master_I2C.c: 89:         I2C_Master_Stop();
  1013  0BA4  160A  118A  255E  120A  158A  	fcall	_I2C_Master_Stop
  1014  0BA9                     l2663:
  1015                           
  1016                           ;Master_I2C.c: 90:         _delay((unsigned long)((200)*(8000000/4000.0)));
  1017  0BA9  3003               	movlw	3
  1018  0BAA  1683               	bsf	3,5	;RP0=1, select bank1
  1019  0BAB  1303               	bcf	3,6	;RP1=0, select bank1
  1020  0BAC  00DD               	movwf	(??_main^(0+128)+2)
  1021  0BAD  3008               	movlw	8
  1022  0BAE  00DC               	movwf	(??_main^(0+128)+1)
  1023  0BAF  3076               	movlw	118
  1024  0BB0  00DB               	movwf	??_main^(0+128)
  1025  0BB1                     u3677:
  1026  0BB1  0BDB               	decfsz	??_main^(0+128),f
  1027  0BB2  2BB1               	goto	u3677
  1028  0BB3  0BDC               	decfsz	(??_main^(0+128)+1),f
  1029  0BB4  2BB1               	goto	u3677
  1030  0BB5  0BDD               	decfsz	(??_main^(0+128)+2),f
  1031  0BB6  2BB1               	goto	u3677
  1032  0BB7  0000               	nop
  1033  0BB8                     l2665:
  1034                           
  1035                           ;Master_I2C.c: 92:         I2C_Master_Start();
  1036  0BB8  160A  118A  2555  120A  158A  	fcall	_I2C_Master_Start
  1037  0BBD                     l2667:
  1038                           
  1039                           ;Master_I2C.c: 93:         I2C_Master_Write(0b10000001);
  1040  0BBD  3081               	movlw	129
  1041  0BBE  00F0               	movwf	I2C_Master_Write@d
  1042  0BBF  3000               	movlw	0
  1043  0BC0  00F1               	movwf	I2C_Master_Write@d+1
  1044  0BC1  160A  118A  2567  120A  158A  	fcall	_I2C_Master_Write
  1045  0BC6                     l2669:
  1046                           
  1047                           ;Master_I2C.c: 94:         sensor = I2C_Master_Read(0);
  1048  0BC6  3000               	movlw	0
  1049  0BC7  00F0               	movwf	I2C_Master_Read@a
  1050  0BC8  00F1               	movwf	I2C_Master_Read@a+1
  1051  0BC9  160A  118A  2658  120A  158A  	fcall	_I2C_Master_Read
  1052  0BCE  0871               	movf	?_I2C_Master_Read+1,w
  1053  0BCF  1683               	bsf	3,5	;RP0=1, select bank1
  1054  0BD0  1303               	bcf	3,6	;RP1=0, select bank1
  1055  0BD1  00B7               	movwf	(_sensor+1)^(0+128)	;volatile
  1056  0BD2  0870               	movf	?_I2C_Master_Read,w
  1057  0BD3  00B6               	movwf	_sensor^(0+128)	;volatile
  1058  0BD4                     l2671:
  1059                           
  1060                           ;Master_I2C.c: 95:         I2C_Master_Stop();
  1061  0BD4  160A  118A  255E  120A  158A  	fcall	_I2C_Master_Stop
  1062  0BD9                     l2673:
  1063                           
  1064                           ;Master_I2C.c: 96:         _delay((unsigned long)((200)*(8000000/4000.0)));
  1065  0BD9  3003               	movlw	3
  1066  0BDA  1683               	bsf	3,5	;RP0=1, select bank1
  1067  0BDB  1303               	bcf	3,6	;RP1=0, select bank1
  1068  0BDC  00DD               	movwf	(??_main^(0+128)+2)
  1069  0BDD  3008               	movlw	8
  1070  0BDE  00DC               	movwf	(??_main^(0+128)+1)
  1071  0BDF  3076               	movlw	118
  1072  0BE0  00DB               	movwf	??_main^(0+128)
  1073  0BE1                     u3687:
  1074  0BE1  0BDB               	decfsz	??_main^(0+128),f
  1075  0BE2  2BE1               	goto	u3687
  1076  0BE3  0BDC               	decfsz	(??_main^(0+128)+1),f
  1077  0BE4  2BE1               	goto	u3687
  1078  0BE5  0BDD               	decfsz	(??_main^(0+128)+2),f
  1079  0BE6  2BE1               	goto	u3687
  1080  0BE7  0000               	nop
  1081                           
  1082                           ;Master_I2C.c: 99:         Lcd_Set_Cursor(2, 1);
  1083  0BE8  01F4               	clrf	Lcd_Set_Cursor@b
  1084  0BE9  0AF4               	incf	Lcd_Set_Cursor@b,f
  1085  0BEA  3002               	movlw	2
  1086  0BEB  160A  118A  25C2  120A  158A  	fcall	_Lcd_Set_Cursor
  1087  0BF0                     l2675:
  1088                           
  1089                           ;Master_I2C.c: 100:         Lcd_Write_String(lcd1);
  1090  0BF0  30C2               	movlw	(low (_lcd1| 0))& (0+255)
  1091  0BF1  00F3               	movwf	Lcd_Write_String@a
  1092  0BF2  3000               	movlw	0
  1093  0BF3  00F4               	movwf	Lcd_Write_String@a+1
  1094  0BF4  160A  118A  2686  120A  158A  	fcall	_Lcd_Write_String
  1095  0BF9                     l2677:
  1096                           
  1097                           ;Master_I2C.c: 101:         Lcd_Set_Cursor(2, 5);
  1098  0BF9  3005               	movlw	5
  1099  0BFA  1683               	bsf	3,5	;RP0=1, select bank1
  1100  0BFB  1303               	bcf	3,6	;RP1=0, select bank1
  1101  0BFC  00DB               	movwf	??_main^(0+128)
  1102  0BFD  085B               	movf	??_main^(0+128),w
  1103  0BFE  00F4               	movwf	Lcd_Set_Cursor@b
  1104  0BFF  3002               	movlw	2
  1105  0C00  160A  118A  25C2  120A  158A  	fcall	_Lcd_Set_Cursor
  1106                           
  1107                           ;Master_I2C.c: 102:         Lcd_Write_String("V");
  1108  0C05  300D               	movlw	(low ((STR_4-__stringbase)| (0+32768)))& (0+255)
  1109  0C06  00F3               	movwf	Lcd_Write_String@a
  1110  0C07  3080               	movlw	128
  1111  0C08  00F4               	movwf	Lcd_Write_String@a+1
  1112  0C09  160A  118A  2686  120A  158A  	fcall	_Lcd_Write_String
  1113  0C0E                     l2679:
  1114                           
  1115                           ;Master_I2C.c: 104:         Lcd_Set_Cursor(2, 7);
  1116  0C0E  3007               	movlw	7
  1117  0C0F  1683               	bsf	3,5	;RP0=1, select bank1
  1118  0C10  1303               	bcf	3,6	;RP1=0, select bank1
  1119  0C11  00DB               	movwf	??_main^(0+128)
  1120  0C12  085B               	movf	??_main^(0+128),w
  1121  0C13  00F4               	movwf	Lcd_Set_Cursor@b
  1122  0C14  3002               	movlw	2
  1123  0C15  160A  118A  25C2  120A  158A  	fcall	_Lcd_Set_Cursor
  1124  0C1A                     l2681:
  1125                           
  1126                           ;Master_I2C.c: 105:         Lcd_Write_String(sensor);
  1127  0C1A  1683               	bsf	3,5	;RP0=1, select bank1
  1128  0C1B  1303               	bcf	3,6	;RP1=0, select bank1
  1129  0C1C  0836               	movf	_sensor^(0+128),w	;volatile
  1130  0C1D  00F3               	movwf	Lcd_Write_String@a
  1131  0C1E  0837               	movf	(_sensor+1)^(0+128),w	;volatile
  1132  0C1F  00F4               	movwf	Lcd_Write_String@a+1
  1133  0C20  160A  118A  2686  120A  158A  	fcall	_Lcd_Write_String
  1134                           
  1135                           ;Master_I2C.c: 106:         Lcd_Set_Cursor(2, 11);
  1136  0C25  300B               	movlw	11
  1137  0C26  1683               	bsf	3,5	;RP0=1, select bank1
  1138  0C27  1303               	bcf	3,6	;RP1=0, select bank1
  1139  0C28  00DB               	movwf	??_main^(0+128)
  1140  0C29  085B               	movf	??_main^(0+128),w
  1141  0C2A  00F4               	movwf	Lcd_Set_Cursor@b
  1142  0C2B  3002               	movlw	2
  1143  0C2C  160A  118A  25C2  120A  158A  	fcall	_Lcd_Set_Cursor
  1144  0C31                     l2683:
  1145                           
  1146                           ;Master_I2C.c: 107:         Lcd_Write_String("C");
  1147  0C31  3003               	movlw	(low (((STR_1+2)-__stringbase)| (0+32768)))& (0+255)
  1148  0C32  00F3               	movwf	Lcd_Write_String@a
  1149  0C33  3080               	movlw	128
  1150  0C34  00F4               	movwf	Lcd_Write_String@a+1
  1151  0C35  160A  118A  2686  120A  158A  	fcall	_Lcd_Write_String
  1152  0C3A                     l2685:
  1153                           
  1154                           ;Master_I2C.c: 110:         conv1 = 0;
  1155  0C3A  3000               	movlw	0
  1156  0C3B  1683               	bsf	3,5	;RP0=1, select bank1
  1157  0C3C  1303               	bcf	3,6	;RP1=0, select bank1
  1158  0C3D  00B5               	movwf	(_conv1+3)^(0+128)
  1159  0C3E  3000               	movlw	0
  1160  0C3F  00B4               	movwf	(_conv1+2)^(0+128)
  1161  0C40  3000               	movlw	0
  1162  0C41  00B3               	movwf	(_conv1+1)^(0+128)
  1163  0C42  3000               	movlw	0
  1164  0C43  00B2               	movwf	_conv1^(0+128)
  1165  0C44                     l2687:
  1166                           
  1167                           ;Master_I2C.c: 111:         conv2 = 0;
  1168  0C44  3000               	movlw	0
  1169  0C45  00B1               	movwf	(_conv2+3)^(0+128)
  1170  0C46  3000               	movlw	0
  1171  0C47  00B0               	movwf	(_conv2+2)^(0+128)
  1172  0C48  3000               	movlw	0
  1173  0C49  00AF               	movwf	(_conv2+1)^(0+128)
  1174  0C4A  3000               	movlw	0
  1175  0C4B  00AE               	movwf	_conv2^(0+128)
  1176  0C4C                     l2689:
  1177                           
  1178                           ;Master_I2C.c: 113:         conv1 = (adc / (float) 255)*5;
  1179  0C4C  3040               	movlw	64
  1180  0C4D  1283               	bcf	3,5	;RP0=0, select bank0
  1181  0C4E  1303               	bcf	3,6	;RP1=0, select bank0
  1182  0C4F  00CF               	movwf	___flmul@b+3
  1183  0C50  30A0               	movlw	160
  1184  0C51  00CE               	movwf	___flmul@b+2
  1185  0C52  3000               	movlw	0
  1186  0C53  00CD               	movwf	___flmul@b+1
  1187  0C54  3000               	movlw	0
  1188  0C55  00CC               	movwf	___flmul@b
  1189  0C56  3043               	movlw	67
  1190  0C57  00B5               	movwf	___fldiv@a+3
  1191  0C58  307F               	movlw	127
  1192  0C59  00B4               	movwf	___fldiv@a+2
  1193  0C5A  3000               	movlw	0
  1194  0C5B  00B3               	movwf	___fldiv@a+1
  1195  0C5C  3000               	movlw	0
  1196  0C5D  00B2               	movwf	___fldiv@a
  1197  0C5E  086F               	movf	_adc,w	;volatile
  1198  0C5F  1683               	bsf	3,5	;RP0=1, select bank1
  1199  0C60  1303               	bcf	3,6	;RP1=0, select bank1
  1200  0C61  00DB               	movwf	??_main^(0+128)
  1201  0C62  01DC               	clrf	(??_main^(0+128)+1)
  1202  0C63  01DD               	clrf	(??_main^(0+128)+2)
  1203  0C64  01DE               	clrf	(??_main^(0+128)+3)
  1204  0C65  085E               	movf	(??_main+3)^(0+128),w
  1205  0C66  1283               	bcf	3,5	;RP0=0, select bank0
  1206  0C67  1303               	bcf	3,6	;RP1=0, select bank0
  1207  0C68  00A7               	movwf	___xxtofl@val+3
  1208  0C69  1683               	bsf	3,5	;RP0=1, select bank1
  1209  0C6A  1303               	bcf	3,6	;RP1=0, select bank1
  1210  0C6B  085D               	movf	(??_main+2)^(0+128),w
  1211  0C6C  1283               	bcf	3,5	;RP0=0, select bank0
  1212  0C6D  1303               	bcf	3,6	;RP1=0, select bank0
  1213  0C6E  00A6               	movwf	___xxtofl@val+2
  1214  0C6F  1683               	bsf	3,5	;RP0=1, select bank1
  1215  0C70  1303               	bcf	3,6	;RP1=0, select bank1
  1216  0C71  085C               	movf	(??_main+1)^(0+128),w
  1217  0C72  1283               	bcf	3,5	;RP0=0, select bank0
  1218  0C73  1303               	bcf	3,6	;RP1=0, select bank0
  1219  0C74  00A5               	movwf	___xxtofl@val+1
  1220  0C75  1683               	bsf	3,5	;RP0=1, select bank1
  1221  0C76  1303               	bcf	3,6	;RP1=0, select bank1
  1222  0C77  085B               	movf	??_main^(0+128),w
  1223  0C78  1283               	bcf	3,5	;RP0=0, select bank0
  1224  0C79  1303               	bcf	3,6	;RP1=0, select bank0
  1225  0C7A  00A4               	movwf	___xxtofl@val
  1226  0C7B  3001               	movlw	1
  1227  0C7C  120A  158A  20A3  120A  158A  	fcall	___xxtofl
  1228  0C81  1283               	bcf	3,5	;RP0=0, select bank0
  1229  0C82  1303               	bcf	3,6	;RP1=0, select bank0
  1230  0C83  0827               	movf	?___xxtofl+3,w
  1231  0C84  00B9               	movwf	___fldiv@b+3
  1232  0C85  0826               	movf	?___xxtofl+2,w
  1233  0C86  00B8               	movwf	___fldiv@b+2
  1234  0C87  0825               	movf	?___xxtofl+1,w
  1235  0C88  00B7               	movwf	___fldiv@b+1
  1236  0C89  0824               	movf	?___xxtofl,w
  1237  0C8A  00B6               	movwf	___fldiv@b
  1238  0C8B  120A  158A  215F  120A  158A  	fcall	___fldiv
  1239  0C90  1283               	bcf	3,5	;RP0=0, select bank0
  1240  0C91  1303               	bcf	3,6	;RP1=0, select bank0
  1241  0C92  0835               	movf	?___fldiv+3,w
  1242  0C93  00D3               	movwf	___flmul@a+3
  1243  0C94  0834               	movf	?___fldiv+2,w
  1244  0C95  00D2               	movwf	___flmul@a+2
  1245  0C96  0833               	movf	?___fldiv+1,w
  1246  0C97  00D1               	movwf	___flmul@a+1
  1247  0C98  0832               	movf	?___fldiv,w
  1248  0C99  00D0               	movwf	___flmul@a
  1249  0C9A  120A  118A  209A  120A  158A  	fcall	___flmul
  1250  0C9F  1283               	bcf	3,5	;RP0=0, select bank0
  1251  0CA0  1303               	bcf	3,6	;RP1=0, select bank0
  1252  0CA1  084F               	movf	?___flmul+3,w
  1253  0CA2  1683               	bsf	3,5	;RP0=1, select bank1
  1254  0CA3  1303               	bcf	3,6	;RP1=0, select bank1
  1255  0CA4  00B5               	movwf	(_conv1+3)^(0+128)
  1256  0CA5  1283               	bcf	3,5	;RP0=0, select bank0
  1257  0CA6  1303               	bcf	3,6	;RP1=0, select bank0
  1258  0CA7  084E               	movf	?___flmul+2,w
  1259  0CA8  1683               	bsf	3,5	;RP0=1, select bank1
  1260  0CA9  1303               	bcf	3,6	;RP1=0, select bank1
  1261  0CAA  00B4               	movwf	(_conv1+2)^(0+128)
  1262  0CAB  1283               	bcf	3,5	;RP0=0, select bank0
  1263  0CAC  1303               	bcf	3,6	;RP1=0, select bank0
  1264  0CAD  084D               	movf	?___flmul+1,w
  1265  0CAE  1683               	bsf	3,5	;RP0=1, select bank1
  1266  0CAF  1303               	bcf	3,6	;RP1=0, select bank1
  1267  0CB0  00B3               	movwf	(_conv1+1)^(0+128)
  1268  0CB1  1283               	bcf	3,5	;RP0=0, select bank0
  1269  0CB2  1303               	bcf	3,6	;RP1=0, select bank0
  1270  0CB3  084C               	movf	?___flmul,w
  1271  0CB4  1683               	bsf	3,5	;RP0=1, select bank1
  1272  0CB5  1303               	bcf	3,6	;RP1=0, select bank1
  1273  0CB6  00B2               	movwf	_conv1^(0+128)
  1274  0CB7                     l2691:
  1275                           
  1276                           ;Master_I2C.c: 115:         convert(lcd1, conv1, 2);
  1277  0CB7  0835               	movf	(_conv1+3)^(0+128),w
  1278  0CB8  1283               	bcf	3,5	;RP0=0, select bank0
  1279  0CB9  1303               	bcf	3,6	;RP1=0, select bank0
  1280  0CBA  00E9               	movwf	convert@a+3
  1281  0CBB  1683               	bsf	3,5	;RP0=1, select bank1
  1282  0CBC  1303               	bcf	3,6	;RP1=0, select bank1
  1283  0CBD  0834               	movf	(_conv1+2)^(0+128),w
  1284  0CBE  1283               	bcf	3,5	;RP0=0, select bank0
  1285  0CBF  1303               	bcf	3,6	;RP1=0, select bank0
  1286  0CC0  00E8               	movwf	convert@a+2
  1287  0CC1  1683               	bsf	3,5	;RP0=1, select bank1
  1288  0CC2  1303               	bcf	3,6	;RP1=0, select bank1
  1289  0CC3  0833               	movf	(_conv1+1)^(0+128),w
  1290  0CC4  1283               	bcf	3,5	;RP0=0, select bank0
  1291  0CC5  1303               	bcf	3,6	;RP1=0, select bank0
  1292  0CC6  00E7               	movwf	convert@a+1
  1293  0CC7  1683               	bsf	3,5	;RP0=1, select bank1
  1294  0CC8  1303               	bcf	3,6	;RP1=0, select bank1
  1295  0CC9  0832               	movf	_conv1^(0+128),w
  1296  0CCA  1283               	bcf	3,5	;RP0=0, select bank0
  1297  0CCB  1303               	bcf	3,6	;RP1=0, select bank0
  1298  0CCC  00E6               	movwf	convert@a
  1299  0CCD  3002               	movlw	2
  1300  0CCE  00EA               	movwf	convert@place
  1301  0CCF  3000               	movlw	0
  1302  0CD0  00EB               	movwf	convert@place+1
  1303  0CD1  30C2               	movlw	(low (_lcd1| 0))& (0+255)
  1304  0CD2  120A  118A  23FB  120A  158A  	fcall	_convert
  1305  0CD7                     l2693:
  1306                           
  1307                           ;Master_I2C.c: 117:         conv2 = (sensor / (float) 255)*5;
  1308  0CD7  3040               	movlw	64
  1309  0CD8  1283               	bcf	3,5	;RP0=0, select bank0
  1310  0CD9  1303               	bcf	3,6	;RP1=0, select bank0
  1311  0CDA  00CF               	movwf	___flmul@b+3
  1312  0CDB  30A0               	movlw	160
  1313  0CDC  00CE               	movwf	___flmul@b+2
  1314  0CDD  3000               	movlw	0
  1315  0CDE  00CD               	movwf	___flmul@b+1
  1316  0CDF  3000               	movlw	0
  1317  0CE0  00CC               	movwf	___flmul@b
  1318  0CE1  3043               	movlw	67
  1319  0CE2  00B5               	movwf	___fldiv@a+3
  1320  0CE3  307F               	movlw	127
  1321  0CE4  00B4               	movwf	___fldiv@a+2
  1322  0CE5  3000               	movlw	0
  1323  0CE6  00B3               	movwf	___fldiv@a+1
  1324  0CE7  3000               	movlw	0
  1325  0CE8  00B2               	movwf	___fldiv@a
  1326  0CE9  1683               	bsf	3,5	;RP0=1, select bank1
  1327  0CEA  1303               	bcf	3,6	;RP1=0, select bank1
  1328  0CEB  0836               	movf	_sensor^(0+128),w	;volatile
  1329  0CEC  1283               	bcf	3,5	;RP0=0, select bank0
  1330  0CED  1303               	bcf	3,6	;RP1=0, select bank0
  1331  0CEE  00A4               	movwf	___xxtofl@val
  1332  0CEF  1683               	bsf	3,5	;RP0=1, select bank1
  1333  0CF0  1303               	bcf	3,6	;RP1=0, select bank1
  1334  0CF1  0837               	movf	(_sensor+1)^(0+128),w	;volatile
  1335  0CF2  1283               	bcf	3,5	;RP0=0, select bank0
  1336  0CF3  1303               	bcf	3,6	;RP1=0, select bank0
  1337  0CF4  00A5               	movwf	___xxtofl@val+1
  1338  0CF5  3000               	movlw	0
  1339  0CF6  1BA5               	btfsc	___xxtofl@val+1,7
  1340  0CF7  30FF               	movlw	255
  1341  0CF8  00A6               	movwf	___xxtofl@val+2
  1342  0CF9  00A7               	movwf	___xxtofl@val+3
  1343  0CFA  3001               	movlw	1
  1344  0CFB  120A  158A  20A3  120A  158A  	fcall	___xxtofl
  1345  0D00  1283               	bcf	3,5	;RP0=0, select bank0
  1346  0D01  1303               	bcf	3,6	;RP1=0, select bank0
  1347  0D02  0827               	movf	?___xxtofl+3,w
  1348  0D03  00B9               	movwf	___fldiv@b+3
  1349  0D04  0826               	movf	?___xxtofl+2,w
  1350  0D05  00B8               	movwf	___fldiv@b+2
  1351  0D06  0825               	movf	?___xxtofl+1,w
  1352  0D07  00B7               	movwf	___fldiv@b+1
  1353  0D08  0824               	movf	?___xxtofl,w
  1354  0D09  00B6               	movwf	___fldiv@b
  1355  0D0A  120A  158A  215F  120A  158A  	fcall	___fldiv
  1356  0D0F  1283               	bcf	3,5	;RP0=0, select bank0
  1357  0D10  1303               	bcf	3,6	;RP1=0, select bank0
  1358  0D11  0835               	movf	?___fldiv+3,w
  1359  0D12  00D3               	movwf	___flmul@a+3
  1360  0D13  0834               	movf	?___fldiv+2,w
  1361  0D14  00D2               	movwf	___flmul@a+2
  1362  0D15  0833               	movf	?___fldiv+1,w
  1363  0D16  00D1               	movwf	___flmul@a+1
  1364  0D17  0832               	movf	?___fldiv,w
  1365  0D18  00D0               	movwf	___flmul@a
  1366  0D19  120A  118A  209A  120A  158A  	fcall	___flmul
  1367  0D1E  1283               	bcf	3,5	;RP0=0, select bank0
  1368  0D1F  1303               	bcf	3,6	;RP1=0, select bank0
  1369  0D20  084F               	movf	?___flmul+3,w
  1370  0D21  1683               	bsf	3,5	;RP0=1, select bank1
  1371  0D22  1303               	bcf	3,6	;RP1=0, select bank1
  1372  0D23  00B1               	movwf	(_conv2+3)^(0+128)
  1373  0D24  1283               	bcf	3,5	;RP0=0, select bank0
  1374  0D25  1303               	bcf	3,6	;RP1=0, select bank0
  1375  0D26  084E               	movf	?___flmul+2,w
  1376  0D27  1683               	bsf	3,5	;RP0=1, select bank1
  1377  0D28  1303               	bcf	3,6	;RP1=0, select bank1
  1378  0D29  00B0               	movwf	(_conv2+2)^(0+128)
  1379  0D2A  1283               	bcf	3,5	;RP0=0, select bank0
  1380  0D2B  1303               	bcf	3,6	;RP1=0, select bank0
  1381  0D2C  084D               	movf	?___flmul+1,w
  1382  0D2D  1683               	bsf	3,5	;RP0=1, select bank1
  1383  0D2E  1303               	bcf	3,6	;RP1=0, select bank1
  1384  0D2F  00AF               	movwf	(_conv2+1)^(0+128)
  1385  0D30  1283               	bcf	3,5	;RP0=0, select bank0
  1386  0D31  1303               	bcf	3,6	;RP1=0, select bank0
  1387  0D32  084C               	movf	?___flmul,w
  1388  0D33  1683               	bsf	3,5	;RP0=1, select bank1
  1389  0D34  1303               	bcf	3,6	;RP1=0, select bank1
  1390  0D35  00AE               	movwf	_conv2^(0+128)
  1391  0D36                     l2695:
  1392                           
  1393                           ;Master_I2C.c: 118:         convert(lcd2, conv2, 2);
  1394  0D36  0831               	movf	(_conv2+3)^(0+128),w
  1395  0D37  1283               	bcf	3,5	;RP0=0, select bank0
  1396  0D38  1303               	bcf	3,6	;RP1=0, select bank0
  1397  0D39  00E9               	movwf	convert@a+3
  1398  0D3A  1683               	bsf	3,5	;RP0=1, select bank1
  1399  0D3B  1303               	bcf	3,6	;RP1=0, select bank1
  1400  0D3C  0830               	movf	(_conv2+2)^(0+128),w
  1401  0D3D  1283               	bcf	3,5	;RP0=0, select bank0
  1402  0D3E  1303               	bcf	3,6	;RP1=0, select bank0
  1403  0D3F  00E8               	movwf	convert@a+2
  1404  0D40  1683               	bsf	3,5	;RP0=1, select bank1
  1405  0D41  1303               	bcf	3,6	;RP1=0, select bank1
  1406  0D42  082F               	movf	(_conv2+1)^(0+128),w
  1407  0D43  1283               	bcf	3,5	;RP0=0, select bank0
  1408  0D44  1303               	bcf	3,6	;RP1=0, select bank0
  1409  0D45  00E7               	movwf	convert@a+1
  1410  0D46  1683               	bsf	3,5	;RP0=1, select bank1
  1411  0D47  1303               	bcf	3,6	;RP1=0, select bank1
  1412  0D48  082E               	movf	_conv2^(0+128),w
  1413  0D49  1283               	bcf	3,5	;RP0=0, select bank0
  1414  0D4A  1303               	bcf	3,6	;RP1=0, select bank0
  1415  0D4B  00E6               	movwf	convert@a
  1416  0D4C  3002               	movlw	2
  1417  0D4D  00EA               	movwf	convert@place
  1418  0D4E  3000               	movlw	0
  1419  0D4F  00EB               	movwf	convert@place+1
  1420  0D50  30B8               	movlw	(low (_lcd2| 0))& (0+255)
  1421  0D51  120A  118A  23FB  120A  158A  	fcall	_convert
  1422  0D56                     l2697:
  1423                           
  1424                           ;Master_I2C.c: 120:         _delay((unsigned long)((500)*(8000000/4000.0)));
  1425  0D56  3006               	movlw	6
  1426  0D57  1683               	bsf	3,5	;RP0=1, select bank1
  1427  0D58  1303               	bcf	3,6	;RP1=0, select bank1
  1428  0D59  00DD               	movwf	(??_main^(0+128)+2)
  1429  0D5A  3013               	movlw	19
  1430  0D5B  00DC               	movwf	(??_main^(0+128)+1)
  1431  0D5C  30AD               	movlw	173
  1432  0D5D  00DB               	movwf	??_main^(0+128)
  1433  0D5E                     u3697:
  1434  0D5E  0BDB               	decfsz	??_main^(0+128),f
  1435  0D5F  2D5E               	goto	u3697
  1436  0D60  0BDC               	decfsz	(??_main^(0+128)+1),f
  1437  0D61  2D5E               	goto	u3697
  1438  0D62  0BDD               	decfsz	(??_main^(0+128)+2),f
  1439  0D63  2D5E               	goto	u3697
  1440  0D64  2B4B               	goto	l63
  1441  0D65  120A  118A  2800   	ljmp	start
  1442  0D68                     __end_of_main:
  1443                           
  1444                           	psect	text1
  1445  15A0                     __ptext1:	
  1446 ;; *************** function _setup *****************
  1447 ;; Defined at:
  1448 ;;		line 128 in file "Master_I2C.c"
  1449 ;; Parameters:    Size  Location     Type
  1450 ;;		None
  1451 ;; Auto vars:     Size  Location     Type
  1452 ;;		None
  1453 ;; Return value:  Size  Location     Type
  1454 ;;                  1    wreg      void 
  1455 ;; Registers used:
  1456 ;;		wreg, status,2, status,0, pclath, cstack
  1457 ;; Tracked objects:
  1458 ;;		On entry : 0/0
  1459 ;;		On exit  : 0/0
  1460 ;;		Unchanged: 0/0
  1461 ;; Data sizes:     COMMON   BANK0   BANK1   BANK3   BANK2
  1462 ;;      Params:         0       0       0       0       0
  1463 ;;      Locals:         0       0       0       0       0
  1464 ;;      Temps:          0       0       0       0       0
  1465 ;;      Totals:         0       0       0       0       0
  1466 ;;Total ram usage:        0 bytes
  1467 ;; Hardware stack levels used:    1
  1468 ;; Hardware stack levels required when called:    2
  1469 ;; This function calls:
  1470 ;;		_I2C_Master_Init
  1471 ;; This function is called by:
  1472 ;;		_main
  1473 ;; This function uses a non-reentrant model
  1474 ;;
  1475                           
  1476                           
  1477                           ;psect for function _setup
  1478  15A0                     _setup:
  1479  15A0                     l2475:	
  1480                           ;incstack = 0
  1481                           ; Regs used in _setup: [wreg+status,2+status,0+pclath+cstack]
  1482                           
  1483                           
  1484                           ;Master_I2C.c: 129:     ANSEL = 0x00;
  1485  15A0  1683               	bsf	3,5	;RP0=1, select bank3
  1486  15A1  1703               	bsf	3,6	;RP1=1, select bank3
  1487  15A2  0188               	clrf	8	;volatile
  1488                           
  1489                           ;Master_I2C.c: 130:     ANSELH = 0x00;
  1490  15A3  0189               	clrf	9	;volatile
  1491  15A4                     l2477:
  1492                           
  1493                           ;Master_I2C.c: 132:     TRISCbits.TRISC0 = 0;
  1494  15A4  1683               	bsf	3,5	;RP0=1, select bank1
  1495  15A5  1303               	bcf	3,6	;RP1=0, select bank1
  1496  15A6  1007               	bcf	7,0	;volatile
  1497  15A7                     l2479:
  1498                           
  1499                           ;Master_I2C.c: 133:     TRISCbits.TRISC1 = 0;
  1500  15A7  1087               	bcf	7,1	;volatile
  1501                           
  1502                           ;Master_I2C.c: 134:     TRISB = 0x00;
  1503  15A8  0186               	clrf	6	;volatile
  1504                           
  1505                           ;Master_I2C.c: 135:     TRISD = 0x00;
  1506  15A9  0188               	clrf	8	;volatile
  1507                           
  1508                           ;Master_I2C.c: 137:     PORTB = 0x00;
  1509  15AA  1283               	bcf	3,5	;RP0=0, select bank0
  1510  15AB  1303               	bcf	3,6	;RP1=0, select bank0
  1511  15AC  0186               	clrf	6	;volatile
  1512                           
  1513                           ;Master_I2C.c: 138:     PORTD = 0x00;
  1514  15AD  0188               	clrf	8	;volatile
  1515  15AE                     l2481:
  1516                           
  1517                           ;Master_I2C.c: 139:     I2C_Master_Init(100000);
  1518  15AE  3000               	movlw	0
  1519  15AF  00A3               	movwf	I2C_Master_Init@c+3
  1520  15B0  3001               	movlw	1
  1521  15B1  00A2               	movwf	I2C_Master_Init@c+2
  1522  15B2  3086               	movlw	134
  1523  15B3  00A1               	movwf	I2C_Master_Init@c+1
  1524  15B4  30A0               	movlw	160
  1525  15B5  00A0               	movwf	I2C_Master_Init@c
  1526  15B6  160A  118A  26B6  160A  118A  	fcall	_I2C_Master_Init
  1527  15BB                     l2483:
  1528                           
  1529                           ;Master_I2C.c: 142:     OSCCONbits.IRCF2 = 1;
  1530  15BB  1683               	bsf	3,5	;RP0=1, select bank1
  1531  15BC  1303               	bcf	3,6	;RP1=0, select bank1
  1532  15BD  170F               	bsf	15,6	;volatile
  1533  15BE                     l2485:
  1534                           
  1535                           ;Master_I2C.c: 143:     OSCCONbits.IRCF1 = 1;
  1536  15BE  168F               	bsf	15,5	;volatile
  1537  15BF                     l2487:
  1538                           
  1539                           ;Master_I2C.c: 144:     OSCCONbits.IRCF0 = 1;
  1540  15BF  160F               	bsf	15,4	;volatile
  1541  15C0                     l2489:
  1542                           
  1543                           ;Master_I2C.c: 145:     OSCCONbits.SCS = 1;
  1544  15C0  140F               	bsf	15,0	;volatile
  1545  15C1                     l69:
  1546  15C1  0008               	return
  1547  15C2                     __end_of_setup:
  1548                           
  1549                           	psect	text2
  1550  16B6                     __ptext2:	
  1551 ;; *************** function _I2C_Master_Init *****************
  1552 ;; Defined at:
  1553 ;;		line 27 in file "Librerias.c"
  1554 ;; Parameters:    Size  Location     Type
  1555 ;;  c               4    0[BANK0 ] const unsigned long 
  1556 ;; Auto vars:     Size  Location     Type
  1557 ;;		None
  1558 ;; Return value:  Size  Location     Type
  1559 ;;                  1    wreg      void 
  1560 ;; Registers used:
  1561 ;;		wreg, status,2, status,0, pclath, cstack
  1562 ;; Tracked objects:
  1563 ;;		On entry : 0/0
  1564 ;;		On exit  : 0/0
  1565 ;;		Unchanged: 0/0
  1566 ;; Data sizes:     COMMON   BANK0   BANK1   BANK3   BANK2
  1567 ;;      Params:         0       4       0       0       0
  1568 ;;      Locals:         0       0       0       0       0
  1569 ;;      Temps:          0       4       0       0       0
  1570 ;;      Totals:         0       8       0       0       0
  1571 ;;Total ram usage:        8 bytes
  1572 ;; Hardware stack levels used:    1
  1573 ;; Hardware stack levels required when called:    1
  1574 ;; This function calls:
  1575 ;;		___lldiv
  1576 ;; This function is called by:
  1577 ;;		_setup
  1578 ;; This function uses a non-reentrant model
  1579 ;;
  1580                           
  1581                           
  1582                           ;psect for function _I2C_Master_Init
  1583  16B6                     _I2C_Master_Init:
  1584  16B6                     l1993:	
  1585                           ;incstack = 0
  1586                           ; Regs used in _I2C_Master_Init: [wreg+status,2+status,0+pclath+cstack]
  1587                           
  1588                           
  1589                           ;Librerias.c: 27: void I2C_Master_Init(const unsigned long c);Librerias.c: 28: {;Libreri
      +                          as.c: 29:     SSPCON = 0b00101000;
  1590  16B6  3028               	movlw	40
  1591  16B7  1283               	bcf	3,5	;RP0=0, select bank0
  1592  16B8  1303               	bcf	3,6	;RP1=0, select bank0
  1593  16B9  0094               	movwf	20	;volatile
  1594  16BA                     l1995:
  1595                           
  1596                           ;Librerias.c: 30:     SSPCON2 = 0;
  1597  16BA  1683               	bsf	3,5	;RP0=1, select bank1
  1598  16BB  1303               	bcf	3,6	;RP1=0, select bank1
  1599  16BC  0191               	clrf	17	;volatile
  1600  16BD                     l1997:
  1601                           
  1602                           ;Librerias.c: 31:     SSPADD = (4000000/(4*c))-1;
  1603  16BD  1283               	bcf	3,5	;RP0=0, select bank0
  1604  16BE  1303               	bcf	3,6	;RP1=0, select bank0
  1605  16BF  0820               	movf	I2C_Master_Init@c,w
  1606  16C0  00A4               	movwf	??_I2C_Master_Init
  1607  16C1  0821               	movf	I2C_Master_Init@c+1,w
  1608  16C2  00A5               	movwf	??_I2C_Master_Init+1
  1609  16C3  0822               	movf	I2C_Master_Init@c+2,w
  1610  16C4  00A6               	movwf	??_I2C_Master_Init+2
  1611  16C5  0823               	movf	I2C_Master_Init@c+3,w
  1612  16C6  00A7               	movwf	??_I2C_Master_Init+3
  1613  16C7  3002               	movlw	2
  1614  16C8                     u2405:
  1615  16C8  1003               	clrc
  1616  16C9  0DA4               	rlf	??_I2C_Master_Init,f
  1617  16CA  0DA5               	rlf	??_I2C_Master_Init+1,f
  1618  16CB  0DA6               	rlf	??_I2C_Master_Init+2,f
  1619  16CC  0DA7               	rlf	??_I2C_Master_Init+3,f
  1620  16CD                     u2400:
  1621  16CD  3EFF               	addlw	-1
  1622  16CE  1D03               	skipz
  1623  16CF  2EC8               	goto	u2405
  1624  16D0  0827               	movf	??_I2C_Master_Init+3,w
  1625  16D1  00F3               	movwf	___lldiv@divisor+3
  1626  16D2  0826               	movf	??_I2C_Master_Init+2,w
  1627  16D3  00F2               	movwf	___lldiv@divisor+2
  1628  16D4  0825               	movf	??_I2C_Master_Init+1,w
  1629  16D5  00F1               	movwf	___lldiv@divisor+1
  1630  16D6  0824               	movf	??_I2C_Master_Init,w
  1631  16D7  00F0               	movwf	___lldiv@divisor
  1632  16D8  3000               	movlw	0
  1633  16D9  00F7               	movwf	___lldiv@dividend+3
  1634  16DA  303D               	movlw	61
  1635  16DB  00F6               	movwf	___lldiv@dividend+2
  1636  16DC  3009               	movlw	9
  1637  16DD  00F5               	movwf	___lldiv@dividend+1
  1638  16DE  3000               	movlw	0
  1639  16DF  00F4               	movwf	___lldiv@dividend
  1640  16E0  160A  118A  2733  160A  118A  	fcall	___lldiv
  1641  16E5  0870               	movf	?___lldiv,w
  1642  16E6  3EFF               	addlw	255
  1643  16E7  1683               	bsf	3,5	;RP0=1, select bank1
  1644  16E8  1303               	bcf	3,6	;RP1=0, select bank1
  1645  16E9  0093               	movwf	19	;volatile
  1646  16EA                     l1999:
  1647                           
  1648                           ;Librerias.c: 32:     SSPSTAT = 0;
  1649  16EA  0194               	clrf	20	;volatile
  1650  16EB                     l2001:
  1651                           
  1652                           ;Librerias.c: 33:     TRISCbits.TRISC3 = 1;
  1653  16EB  1587               	bsf	7,3	;volatile
  1654  16EC                     l2003:
  1655                           
  1656                           ;Librerias.c: 34:     TRISCbits.TRISC4 = 1;
  1657  16EC  1607               	bsf	7,4	;volatile
  1658  16ED                     l104:
  1659  16ED  0008               	return
  1660  16EE                     __end_of_I2C_Master_Init:
  1661                           
  1662                           	psect	text3
  1663  1733                     __ptext3:	
  1664 ;; *************** function ___lldiv *****************
  1665 ;; Defined at:
  1666 ;;		line 5 in file "C:\Program Files\Microchip\xc8\v2.31\pic\sources\c90\common\__lldiv.c"
  1667 ;; Parameters:    Size  Location     Type
  1668 ;;  divisor         4    0[COMMON] unsigned long 
  1669 ;;  dividend        4    4[COMMON] unsigned long 
  1670 ;; Auto vars:     Size  Location     Type
  1671 ;;  quotient        4    9[COMMON] unsigned long 
  1672 ;;  counter         1   13[COMMON] unsigned char 
  1673 ;; Return value:  Size  Location     Type
  1674 ;;                  4    0[COMMON] unsigned long 
  1675 ;; Registers used:
  1676 ;;		wreg, status,2, status,0
  1677 ;; Tracked objects:
  1678 ;;		On entry : 0/0
  1679 ;;		On exit  : 0/0
  1680 ;;		Unchanged: 0/0
  1681 ;; Data sizes:     COMMON   BANK0   BANK1   BANK3   BANK2
  1682 ;;      Params:         8       0       0       0       0
  1683 ;;      Locals:         5       0       0       0       0
  1684 ;;      Temps:          1       0       0       0       0
  1685 ;;      Totals:        14       0       0       0       0
  1686 ;;Total ram usage:       14 bytes
  1687 ;; Hardware stack levels used:    1
  1688 ;; This function calls:
  1689 ;;		Nothing
  1690 ;; This function is called by:
  1691 ;;		_I2C_Master_Init
  1692 ;; This function uses a non-reentrant model
  1693 ;;
  1694                           
  1695                           
  1696                           ;psect for function ___lldiv
  1697  1733                     ___lldiv:
  1698  1733                     l1761:	
  1699                           ;incstack = 0
  1700                           ; Regs used in ___lldiv: [wreg+status,2+status,0]
  1701                           
  1702  1733  3000               	movlw	0
  1703  1734  00FC               	movwf	___lldiv@quotient+3
  1704  1735  3000               	movlw	0
  1705  1736  00FB               	movwf	___lldiv@quotient+2
  1706  1737  3000               	movlw	0
  1707  1738  00FA               	movwf	___lldiv@quotient+1
  1708  1739  3000               	movlw	0
  1709  173A  00F9               	movwf	___lldiv@quotient
  1710  173B  0873               	movf	___lldiv@divisor+3,w
  1711  173C  0472               	iorwf	___lldiv@divisor+2,w
  1712  173D  0471               	iorwf	___lldiv@divisor+1,w
  1713  173E  0470               	iorwf	___lldiv@divisor,w
  1714  173F  1903               	skipnz
  1715  1740  2F42               	goto	u1841
  1716  1741  2F43               	goto	u1840
  1717  1742                     u1841:
  1718  1742  2F90               	goto	l1781
  1719  1743                     u1840:
  1720  1743                     l1763:
  1721  1743  01FD               	clrf	___lldiv@counter
  1722  1744  0AFD               	incf	___lldiv@counter,f
  1723  1745  2F53               	goto	l1767
  1724  1746                     l1765:
  1725  1746  3001               	movlw	1
  1726  1747  00F8               	movwf	??___lldiv
  1727  1748                     u1855:
  1728  1748  1003               	clrc
  1729  1749  0DF0               	rlf	___lldiv@divisor,f
  1730  174A  0DF1               	rlf	___lldiv@divisor+1,f
  1731  174B  0DF2               	rlf	___lldiv@divisor+2,f
  1732  174C  0DF3               	rlf	___lldiv@divisor+3,f
  1733  174D  0BF8               	decfsz	??___lldiv,f
  1734  174E  2F48               	goto	u1855
  1735  174F  3001               	movlw	1
  1736  1750  00F8               	movwf	??___lldiv
  1737  1751  0878               	movf	??___lldiv,w
  1738  1752  07FD               	addwf	___lldiv@counter,f
  1739  1753                     l1767:
  1740  1753  1FF3               	btfss	___lldiv@divisor+3,7
  1741  1754  2F56               	goto	u1861
  1742  1755  2F57               	goto	u1860
  1743  1756                     u1861:
  1744  1756  2F46               	goto	l1765
  1745  1757                     u1860:
  1746  1757                     l1769:
  1747  1757  3001               	movlw	1
  1748  1758  00F8               	movwf	??___lldiv
  1749  1759                     u1875:
  1750  1759  1003               	clrc
  1751  175A  0DF9               	rlf	___lldiv@quotient,f
  1752  175B  0DFA               	rlf	___lldiv@quotient+1,f
  1753  175C  0DFB               	rlf	___lldiv@quotient+2,f
  1754  175D  0DFC               	rlf	___lldiv@quotient+3,f
  1755  175E  0BF8               	decfsz	??___lldiv,f
  1756  175F  2F59               	goto	u1875
  1757  1760                     l1771:
  1758  1760  0873               	movf	___lldiv@divisor+3,w
  1759  1761  0277               	subwf	___lldiv@dividend+3,w
  1760  1762  1D03               	skipz
  1761  1763  2F6E               	goto	u1885
  1762  1764  0872               	movf	___lldiv@divisor+2,w
  1763  1765  0276               	subwf	___lldiv@dividend+2,w
  1764  1766  1D03               	skipz
  1765  1767  2F6E               	goto	u1885
  1766  1768  0871               	movf	___lldiv@divisor+1,w
  1767  1769  0275               	subwf	___lldiv@dividend+1,w
  1768  176A  1D03               	skipz
  1769  176B  2F6E               	goto	u1885
  1770  176C  0870               	movf	___lldiv@divisor,w
  1771  176D  0274               	subwf	___lldiv@dividend,w
  1772  176E                     u1885:
  1773  176E  1C03               	skipc
  1774  176F  2F71               	goto	u1881
  1775  1770  2F72               	goto	u1880
  1776  1771                     u1881:
  1777  1771  2F81               	goto	l1777
  1778  1772                     u1880:
  1779  1772                     l1773:
  1780  1772  0870               	movf	___lldiv@divisor,w
  1781  1773  02F4               	subwf	___lldiv@dividend,f
  1782  1774  0871               	movf	___lldiv@divisor+1,w
  1783  1775  1C03               	skipc
  1784  1776  0F71               	incfsz	___lldiv@divisor+1,w
  1785  1777  02F5               	subwf	___lldiv@dividend+1,f
  1786  1778  0872               	movf	___lldiv@divisor+2,w
  1787  1779  1C03               	skipc
  1788  177A  0F72               	incfsz	___lldiv@divisor+2,w
  1789  177B  02F6               	subwf	___lldiv@dividend+2,f
  1790  177C  0873               	movf	___lldiv@divisor+3,w
  1791  177D  1C03               	skipc
  1792  177E  0F73               	incfsz	___lldiv@divisor+3,w
  1793  177F  02F7               	subwf	___lldiv@dividend+3,f
  1794  1780                     l1775:
  1795  1780  1479               	bsf	___lldiv@quotient,0
  1796  1781                     l1777:
  1797  1781  3001               	movlw	1
  1798  1782                     u1895:
  1799  1782  1003               	clrc
  1800  1783  0CF3               	rrf	___lldiv@divisor+3,f
  1801  1784  0CF2               	rrf	___lldiv@divisor+2,f
  1802  1785  0CF1               	rrf	___lldiv@divisor+1,f
  1803  1786  0CF0               	rrf	___lldiv@divisor,f
  1804  1787  3EFF               	addlw	-1
  1805  1788  1D03               	skipz
  1806  1789  2F82               	goto	u1895
  1807  178A                     l1779:
  1808  178A  3001               	movlw	1
  1809  178B  02FD               	subwf	___lldiv@counter,f
  1810  178C  1D03               	btfss	3,2
  1811  178D  2F8F               	goto	u1901
  1812  178E  2F90               	goto	u1900
  1813  178F                     u1901:
  1814  178F  2F57               	goto	l1769
  1815  1790                     u1900:
  1816  1790                     l1781:
  1817  1790  087C               	movf	___lldiv@quotient+3,w
  1818  1791  00F3               	movwf	?___lldiv+3
  1819  1792  087B               	movf	___lldiv@quotient+2,w
  1820  1793  00F2               	movwf	?___lldiv+2
  1821  1794  087A               	movf	___lldiv@quotient+1,w
  1822  1795  00F1               	movwf	?___lldiv+1
  1823  1796  0879               	movf	___lldiv@quotient,w
  1824  1797  00F0               	movwf	?___lldiv
  1825  1798                     l311:
  1826  1798  0008               	return
  1827  1799                     __end_of___lldiv:
  1828                           
  1829                           	psect	text4
  1830  03FB                     __ptext4:	
  1831 ;; *************** function _convert *****************
  1832 ;; Defined at:
  1833 ;;		line 188 in file "Librerias.c"
  1834 ;; Parameters:    Size  Location     Type
  1835 ;;  data            1    wreg     PTR unsigned char 
  1836 ;;		 -> lcd2(10), lcd1(10), 
  1837 ;;  a               4   70[BANK0 ] float 
  1838 ;;  place           2   74[BANK0 ] int 
  1839 ;; Auto vars:     Size  Location     Type
  1840 ;;  data            1    4[BANK1 ] PTR unsigned char 
  1841 ;;		 -> lcd2(10), lcd1(10), 
  1842 ;;  x               4    5[BANK1 ] float 
  1843 ;;  mu              2   13[BANK1 ] int 
  1844 ;;  digits          2   11[BANK1 ] int 
  1845 ;;  i               2    9[BANK1 ] int 
  1846 ;;  j               2    2[BANK1 ] int 
  1847 ;;  temp            2    0[BANK1 ] int 
  1848 ;; Return value:  Size  Location     Type
  1849 ;;                  1    wreg      void 
  1850 ;; Registers used:
  1851 ;;		wreg, fsr0l, fsr0h, status,2, status,0, btemp+1, pclath, cstack
  1852 ;; Tracked objects:
  1853 ;;		On entry : 0/0
  1854 ;;		On exit  : 0/0
  1855 ;;		Unchanged: 0/0
  1856 ;; Data sizes:     COMMON   BANK0   BANK1   BANK3   BANK2
  1857 ;;      Params:         0       6       0       0       0
  1858 ;;      Locals:         0       0      15       0       0
  1859 ;;      Temps:          0       2       0       0       0
  1860 ;;      Totals:         0       8      15       0       0
  1861 ;;Total ram usage:       23 bytes
  1862 ;; Hardware stack levels used:    1
  1863 ;; Hardware stack levels required when called:    2
  1864 ;; This function calls:
  1865 ;;		___awdiv
  1866 ;;		___fldiv
  1867 ;;		___flge
  1868 ;;		___flmul
  1869 ;;		___flsub
  1870 ;;		___fltol
  1871 ;;		___wmul
  1872 ;;		___xxtofl
  1873 ;; This function is called by:
  1874 ;;		_main
  1875 ;; This function uses a non-reentrant model
  1876 ;;
  1877                           
  1878                           
  1879                           ;psect for function _convert
  1880  03FB                     _convert:
  1881                           
  1882                           ;incstack = 0
  1883                           ; Regs used in _convert: [wreg-fsr0h+status,2+status,0+btemp+1+pclath+cstack]
  1884                           ;convert@data stored from wreg
  1885  03FB  1683               	bsf	3,5	;RP0=1, select bank1
  1886  03FC  1303               	bcf	3,6	;RP1=0, select bank1
  1887  03FD  00D0               	movwf	convert@data^(0+128)
  1888  03FE                     l2551:
  1889                           
  1890                           ;Librerias.c: 188: void convert(char *data,float a, int place);Librerias.c: 189: {;Libre
      +                          rias.c: 190:      int temp=a;
  1891  03FE  1283               	bcf	3,5	;RP0=0, select bank0
  1892  03FF  1303               	bcf	3,6	;RP1=0, select bank0
  1893  0400  0869               	movf	convert@a+3,w
  1894  0401  00F3               	movwf	___fltol@f1+3
  1895  0402  0868               	movf	convert@a+2,w
  1896  0403  00F2               	movwf	___fltol@f1+2
  1897  0404  0867               	movf	convert@a+1,w
  1898  0405  00F1               	movwf	___fltol@f1+1
  1899  0406  0866               	movf	convert@a,w
  1900  0407  00F0               	movwf	___fltol@f1
  1901  0408  120A  118A  2020  120A  118A  	fcall	___fltol
  1902  040D  0871               	movf	?___fltol+1,w
  1903  040E  1683               	bsf	3,5	;RP0=1, select bank1
  1904  040F  1303               	bcf	3,6	;RP1=0, select bank1
  1905  0410  00CD               	movwf	(convert@temp+1)^(0+128)
  1906  0411  0870               	movf	?___fltol,w
  1907  0412  00CC               	movwf	convert@temp^(0+128)
  1908  0413                     l2553:
  1909  0413                     l2555:
  1910                           
  1911                           ;Librerias.c: 192:      int digits=0;
  1912  0413  01D7               	clrf	convert@digits^(0+128)
  1913  0414  01D8               	clrf	(convert@digits+1)^(0+128)
  1914  0415                     l2557:
  1915                           
  1916                           ;Librerias.c: 193:      int i=0,mu=1;
  1917  0415  01D5               	clrf	convert@i^(0+128)
  1918  0416  01D6               	clrf	(convert@i+1)^(0+128)
  1919  0417                     l2559:
  1920  0417  3001               	movlw	1
  1921  0418  00D9               	movwf	convert@mu^(0+128)
  1922  0419  3000               	movlw	0
  1923  041A  00DA               	movwf	(convert@mu^(0+128)+1)
  1924  041B                     l2561:
  1925  041B                     l2563:
  1926                           
  1927                           ;Librerias.c: 195:      if(a<0)
  1928  041B  1283               	bcf	3,5	;RP0=0, select bank0
  1929  041C  1303               	bcf	3,6	;RP1=0, select bank0
  1930  041D  0869               	movf	convert@a+3,w
  1931  041E  00F3               	movwf	___flge@ff1+3
  1932  041F  0868               	movf	convert@a+2,w
  1933  0420  00F2               	movwf	___flge@ff1+2
  1934  0421  0867               	movf	convert@a+1,w
  1935  0422  00F1               	movwf	___flge@ff1+1
  1936  0423  0866               	movf	convert@a,w
  1937  0424  00F0               	movwf	___flge@ff1
  1938  0425  3000               	movlw	0
  1939  0426  00F7               	movwf	___flge@ff2+3
  1940  0427  3000               	movlw	0
  1941  0428  00F6               	movwf	___flge@ff2+2
  1942  0429  3000               	movlw	0
  1943  042A  00F5               	movwf	___flge@ff2+1
  1944  042B  3000               	movlw	0
  1945  042C  00F4               	movwf	___flge@ff2
  1946  042D  120A  158A  2001  120A  118A  	fcall	___flge
  1947  0432  1803               	btfsc	3,0
  1948  0433  2C35               	goto	u3581
  1949  0434  2C36               	goto	u3580
  1950  0435                     u3581:
  1951  0435  2C84               	goto	l2575
  1952  0436                     u3580:
  1953  0436                     l2565:
  1954                           
  1955                           ;Librerias.c: 196:      {;Librerias.c: 197:             a=a*-1;
  1956  0436  30BF               	movlw	191
  1957  0437  1283               	bcf	3,5	;RP0=0, select bank0
  1958  0438  1303               	bcf	3,6	;RP1=0, select bank0
  1959  0439  00CF               	movwf	___flmul@b+3
  1960  043A  3080               	movlw	128
  1961  043B  00CE               	movwf	___flmul@b+2
  1962  043C  3000               	movlw	0
  1963  043D  00CD               	movwf	___flmul@b+1
  1964  043E  3000               	movlw	0
  1965  043F  00CC               	movwf	___flmul@b
  1966  0440  0869               	movf	convert@a+3,w
  1967  0441  00D3               	movwf	___flmul@a+3
  1968  0442  0868               	movf	convert@a+2,w
  1969  0443  00D2               	movwf	___flmul@a+2
  1970  0444  0867               	movf	convert@a+1,w
  1971  0445  00D1               	movwf	___flmul@a+1
  1972  0446  0866               	movf	convert@a,w
  1973  0447  00D0               	movwf	___flmul@a
  1974  0448  120A  118A  209A  120A  118A  	fcall	___flmul
  1975  044D  1283               	bcf	3,5	;RP0=0, select bank0
  1976  044E  1303               	bcf	3,6	;RP1=0, select bank0
  1977  044F  084F               	movf	?___flmul+3,w
  1978  0450  00E9               	movwf	convert@a+3
  1979  0451  084E               	movf	?___flmul+2,w
  1980  0452  00E8               	movwf	convert@a+2
  1981  0453  084D               	movf	?___flmul+1,w
  1982  0454  00E7               	movwf	convert@a+1
  1983  0455  084C               	movf	?___flmul,w
  1984  0456  00E6               	movwf	convert@a
  1985  0457                     l2567:
  1986                           
  1987                           ;Librerias.c: 198:             data[i]='-';
  1988  0457  302D               	movlw	45
  1989  0458  00EC               	movwf	??_convert
  1990  0459  1683               	bsf	3,5	;RP0=1, select bank1
  1991  045A  1303               	bcf	3,6	;RP1=0, select bank1
  1992  045B  0850               	movf	convert@data^(0+128),w
  1993  045C  0084               	movwf	4
  1994  045D  1283               	bcf	3,5	;RP0=0, select bank0
  1995  045E  1303               	bcf	3,6	;RP1=0, select bank0
  1996  045F  086C               	movf	??_convert,w
  1997  0460  1383               	bcf	3,7	;select IRP bank0
  1998  0461  0080               	movwf	0
  1999  0462                     l2569:
  2000                           
  2001                           ;Librerias.c: 199:             i++;
  2002  0462  3001               	movlw	1
  2003  0463  1683               	bsf	3,5	;RP0=1, select bank1
  2004  0464  1303               	bcf	3,6	;RP1=0, select bank1
  2005  0465  07D5               	addwf	convert@i^(0+128),f
  2006  0466  1803               	skipnc
  2007  0467  0AD6               	incf	(convert@i+1)^(0+128),f
  2008  0468  3000               	movlw	0
  2009  0469  07D6               	addwf	(convert@i+1)^(0+128),f
  2010  046A  2C84               	goto	l2575
  2011  046B                     l2571:
  2012                           
  2013                           ;Librerias.c: 203:      {;Librerias.c: 204:          temp=temp/10;
  2014  046B  300A               	movlw	10
  2015  046C  00F0               	movwf	___awdiv@divisor
  2016  046D  3000               	movlw	0
  2017  046E  00F1               	movwf	___awdiv@divisor+1
  2018  046F  084D               	movf	(convert@temp+1)^(0+128),w
  2019  0470  00F3               	movwf	___awdiv@dividend+1
  2020  0471  084C               	movf	convert@temp^(0+128),w
  2021  0472  00F2               	movwf	___awdiv@dividend
  2022  0473  160A  118A  2799  120A  118A  	fcall	___awdiv
  2023  0478  0871               	movf	?___awdiv+1,w
  2024  0479  1683               	bsf	3,5	;RP0=1, select bank1
  2025  047A  1303               	bcf	3,6	;RP1=0, select bank1
  2026  047B  00CD               	movwf	(convert@temp+1)^(0+128)
  2027  047C  0870               	movf	?___awdiv,w
  2028  047D  00CC               	movwf	convert@temp^(0+128)
  2029  047E                     l2573:
  2030                           
  2031                           ;Librerias.c: 205:          digits++;
  2032  047E  3001               	movlw	1
  2033  047F  07D7               	addwf	convert@digits^(0+128),f
  2034  0480  1803               	skipnc
  2035  0481  0AD8               	incf	(convert@digits+1)^(0+128),f
  2036  0482  3000               	movlw	0
  2037  0483  07D8               	addwf	(convert@digits+1)^(0+128),f
  2038  0484                     l2575:
  2039                           
  2040                           ;Librerias.c: 202:      while(temp!=0)
  2041  0484  1683               	bsf	3,5	;RP0=1, select bank1
  2042  0485  1303               	bcf	3,6	;RP1=0, select bank1
  2043  0486  084C               	movf	convert@temp^(0+128),w
  2044  0487  044D               	iorwf	(convert@temp+1)^(0+128),w
  2045  0488  1D03               	btfss	3,2
  2046  0489  2C8B               	goto	u3591
  2047  048A  2C8C               	goto	u3590
  2048  048B                     u3591:
  2049  048B  2C6B               	goto	l2571
  2050  048C                     u3590:
  2051  048C  2DA8               	goto	l2599
  2052  048D                     l2577:
  2053                           
  2054                           ;Librerias.c: 208:      {;Librerias.c: 209:          if(digits==1)mu=1;
  2055  048D  0357               	decf	convert@digits^(0+128),w
  2056  048E  0458               	iorwf	(convert@digits+1)^(0+128),w
  2057  048F  1D03               	btfss	3,2
  2058  0490  2C92               	goto	u3601
  2059  0491  2C93               	goto	u3600
  2060  0492                     u3601:
  2061  0492  2C98               	goto	l2581
  2062  0493                     u3600:
  2063  0493                     l2579:
  2064  0493  3001               	movlw	1
  2065  0494  00D9               	movwf	convert@mu^(0+128)
  2066  0495  3000               	movlw	0
  2067  0496  00DA               	movwf	(convert@mu^(0+128)+1)
  2068  0497  2CDA               	goto	l2589
  2069  0498                     l2581:
  2070  0498  3002               	movlw	2
  2071  0499  00CE               	movwf	convert@j^(0+128)
  2072  049A  3000               	movlw	0
  2073  049B  00CF               	movwf	(convert@j^(0+128)+1)
  2074  049C  2CC4               	goto	l2587
  2075  049D                     l2583:
  2076  049D  1683               	bsf	3,5	;RP0=1, select bank1
  2077  049E  1303               	bcf	3,6	;RP1=0, select bank1
  2078  049F  085A               	movf	(convert@mu+1)^(0+128),w
  2079  04A0  1283               	bcf	3,5	;RP0=0, select bank0
  2080  04A1  1303               	bcf	3,6	;RP1=0, select bank0
  2081  04A2  00A1               	movwf	___wmul@multiplier+1
  2082  04A3  1683               	bsf	3,5	;RP0=1, select bank1
  2083  04A4  1303               	bcf	3,6	;RP1=0, select bank1
  2084  04A5  0859               	movf	convert@mu^(0+128),w
  2085  04A6  1283               	bcf	3,5	;RP0=0, select bank0
  2086  04A7  1303               	bcf	3,6	;RP1=0, select bank0
  2087  04A8  00A0               	movwf	___wmul@multiplier
  2088  04A9  300A               	movlw	10
  2089  04AA  00A2               	movwf	___wmul@multiplicand
  2090  04AB  3000               	movlw	0
  2091  04AC  00A3               	movwf	___wmul@multiplicand+1
  2092  04AD  160A  118A  2631  120A  118A  	fcall	___wmul
  2093  04B2  1283               	bcf	3,5	;RP0=0, select bank0
  2094  04B3  1303               	bcf	3,6	;RP1=0, select bank0
  2095  04B4  0821               	movf	?___wmul+1,w
  2096  04B5  1683               	bsf	3,5	;RP0=1, select bank1
  2097  04B6  1303               	bcf	3,6	;RP1=0, select bank1
  2098  04B7  00DA               	movwf	(convert@mu+1)^(0+128)
  2099  04B8  1283               	bcf	3,5	;RP0=0, select bank0
  2100  04B9  1303               	bcf	3,6	;RP1=0, select bank0
  2101  04BA  0820               	movf	?___wmul,w
  2102  04BB  1683               	bsf	3,5	;RP0=1, select bank1
  2103  04BC  1303               	bcf	3,6	;RP1=0, select bank1
  2104  04BD  00D9               	movwf	convert@mu^(0+128)
  2105  04BE                     l2585:
  2106  04BE  3001               	movlw	1
  2107  04BF  07CE               	addwf	convert@j^(0+128),f
  2108  04C0  1803               	skipnc
  2109  04C1  0ACF               	incf	(convert@j+1)^(0+128),f
  2110  04C2  3000               	movlw	0
  2111  04C3  07CF               	addwf	(convert@j+1)^(0+128),f
  2112  04C4                     l2587:
  2113  04C4  0858               	movf	(convert@digits+1)^(0+128),w
  2114  04C5  3A80               	xorlw	128
  2115  04C6  1283               	bcf	3,5	;RP0=0, select bank0
  2116  04C7  1303               	bcf	3,6	;RP1=0, select bank0
  2117  04C8  00EC               	movwf	??_convert
  2118  04C9  1683               	bsf	3,5	;RP0=1, select bank1
  2119  04CA  1303               	bcf	3,6	;RP1=0, select bank1
  2120  04CB  084F               	movf	(convert@j+1)^(0+128),w
  2121  04CC  3A80               	xorlw	128
  2122  04CD  1283               	bcf	3,5	;RP0=0, select bank0
  2123  04CE  1303               	bcf	3,6	;RP1=0, select bank0
  2124  04CF  026C               	subwf	??_convert,w
  2125  04D0  1D03               	skipz
  2126  04D1  2CD6               	goto	u3615
  2127  04D2  1683               	bsf	3,5	;RP0=1, select bank1
  2128  04D3  1303               	bcf	3,6	;RP1=0, select bank1
  2129  04D4  084E               	movf	convert@j^(0+128),w
  2130  04D5  0257               	subwf	convert@digits^(0+128),w
  2131  04D6                     u3615:
  2132  04D6  1803               	skipnc
  2133  04D7  2CD9               	goto	u3611
  2134  04D8  2CDA               	goto	u3610
  2135  04D9                     u3611:
  2136  04D9  2C9D               	goto	l2583
  2137  04DA                     u3610:
  2138  04DA                     l2589:
  2139                           
  2140                           ;Librerias.c: 212:          x=a/mu;
  2141  04DA  1683               	bsf	3,5	;RP0=1, select bank1
  2142  04DB  1303               	bcf	3,6	;RP1=0, select bank1
  2143  04DC  0859               	movf	convert@mu^(0+128),w
  2144  04DD  1283               	bcf	3,5	;RP0=0, select bank0
  2145  04DE  1303               	bcf	3,6	;RP1=0, select bank0
  2146  04DF  00A4               	movwf	___xxtofl@val
  2147  04E0  1683               	bsf	3,5	;RP0=1, select bank1
  2148  04E1  1303               	bcf	3,6	;RP1=0, select bank1
  2149  04E2  085A               	movf	(convert@mu+1)^(0+128),w
  2150  04E3  1283               	bcf	3,5	;RP0=0, select bank0
  2151  04E4  1303               	bcf	3,6	;RP1=0, select bank0
  2152  04E5  00A5               	movwf	___xxtofl@val+1
  2153  04E6  3000               	movlw	0
  2154  04E7  1BA5               	btfsc	___xxtofl@val+1,7
  2155  04E8  30FF               	movlw	255
  2156  04E9  00A6               	movwf	___xxtofl@val+2
  2157  04EA  00A7               	movwf	___xxtofl@val+3
  2158  04EB  3001               	movlw	1
  2159  04EC  120A  158A  20A3  120A  118A  	fcall	___xxtofl
  2160  04F1  1283               	bcf	3,5	;RP0=0, select bank0
  2161  04F2  1303               	bcf	3,6	;RP1=0, select bank0
  2162  04F3  0827               	movf	?___xxtofl+3,w
  2163  04F4  00B5               	movwf	___fldiv@a+3
  2164  04F5  0826               	movf	?___xxtofl+2,w
  2165  04F6  00B4               	movwf	___fldiv@a+2
  2166  04F7  0825               	movf	?___xxtofl+1,w
  2167  04F8  00B3               	movwf	___fldiv@a+1
  2168  04F9  0824               	movf	?___xxtofl,w
  2169  04FA  00B2               	movwf	___fldiv@a
  2170  04FB  0869               	movf	convert@a+3,w
  2171  04FC  00B9               	movwf	___fldiv@b+3
  2172  04FD  0868               	movf	convert@a+2,w
  2173  04FE  00B8               	movwf	___fldiv@b+2
  2174  04FF  0867               	movf	convert@a+1,w
  2175  0500  00B7               	movwf	___fldiv@b+1
  2176  0501  0866               	movf	convert@a,w
  2177  0502  00B6               	movwf	___fldiv@b
  2178  0503  120A  158A  215F  120A  118A  	fcall	___fldiv
  2179  0508  1283               	bcf	3,5	;RP0=0, select bank0
  2180  0509  1303               	bcf	3,6	;RP1=0, select bank0
  2181  050A  0835               	movf	?___fldiv+3,w
  2182  050B  1683               	bsf	3,5	;RP0=1, select bank1
  2183  050C  1303               	bcf	3,6	;RP1=0, select bank1
  2184  050D  00D4               	movwf	(convert@x+3)^(0+128)
  2185  050E  1283               	bcf	3,5	;RP0=0, select bank0
  2186  050F  1303               	bcf	3,6	;RP1=0, select bank0
  2187  0510  0834               	movf	?___fldiv+2,w
  2188  0511  1683               	bsf	3,5	;RP0=1, select bank1
  2189  0512  1303               	bcf	3,6	;RP1=0, select bank1
  2190  0513  00D3               	movwf	(convert@x+2)^(0+128)
  2191  0514  1283               	bcf	3,5	;RP0=0, select bank0
  2192  0515  1303               	bcf	3,6	;RP1=0, select bank0
  2193  0516  0833               	movf	?___fldiv+1,w
  2194  0517  1683               	bsf	3,5	;RP0=1, select bank1
  2195  0518  1303               	bcf	3,6	;RP1=0, select bank1
  2196  0519  00D2               	movwf	(convert@x+1)^(0+128)
  2197  051A  1283               	bcf	3,5	;RP0=0, select bank0
  2198  051B  1303               	bcf	3,6	;RP1=0, select bank0
  2199  051C  0832               	movf	?___fldiv,w
  2200  051D  1683               	bsf	3,5	;RP0=1, select bank1
  2201  051E  1303               	bcf	3,6	;RP1=0, select bank1
  2202  051F  00D1               	movwf	convert@x^(0+128)
  2203                           
  2204                           ;Librerias.c: 213:          a=a-((int)x*mu);
  2205  0520  085A               	movf	(convert@mu+1)^(0+128),w
  2206  0521  1283               	bcf	3,5	;RP0=0, select bank0
  2207  0522  1303               	bcf	3,6	;RP1=0, select bank0
  2208  0523  00A3               	movwf	___wmul@multiplicand+1
  2209  0524  1683               	bsf	3,5	;RP0=1, select bank1
  2210  0525  1303               	bcf	3,6	;RP1=0, select bank1
  2211  0526  0859               	movf	convert@mu^(0+128),w
  2212  0527  1283               	bcf	3,5	;RP0=0, select bank0
  2213  0528  1303               	bcf	3,6	;RP1=0, select bank0
  2214  0529  00A2               	movwf	___wmul@multiplicand
  2215  052A  1683               	bsf	3,5	;RP0=1, select bank1
  2216  052B  1303               	bcf	3,6	;RP1=0, select bank1
  2217  052C  0854               	movf	(convert@x+3)^(0+128),w
  2218  052D  00F3               	movwf	___fltol@f1+3
  2219  052E  0853               	movf	(convert@x+2)^(0+128),w
  2220  052F  00F2               	movwf	___fltol@f1+2
  2221  0530  0852               	movf	(convert@x+1)^(0+128),w
  2222  0531  00F1               	movwf	___fltol@f1+1
  2223  0532  0851               	movf	convert@x^(0+128),w
  2224  0533  00F0               	movwf	___fltol@f1
  2225  0534  120A  118A  2020  120A  118A  	fcall	___fltol
  2226  0539  0871               	movf	?___fltol+1,w
  2227  053A  1283               	bcf	3,5	;RP0=0, select bank0
  2228  053B  1303               	bcf	3,6	;RP1=0, select bank0
  2229  053C  00A1               	movwf	___wmul@multiplier+1
  2230  053D  0870               	movf	?___fltol,w
  2231  053E  00A0               	movwf	___wmul@multiplier
  2232  053F  160A  118A  2631  120A  118A  	fcall	___wmul
  2233  0544  1283               	bcf	3,5	;RP0=0, select bank0
  2234  0545  1303               	bcf	3,6	;RP1=0, select bank0
  2235  0546  0820               	movf	?___wmul,w
  2236  0547  00A4               	movwf	___xxtofl@val
  2237  0548  0821               	movf	?___wmul+1,w
  2238  0549  00A5               	movwf	___xxtofl@val+1
  2239  054A  3000               	movlw	0
  2240  054B  1BA5               	btfsc	___xxtofl@val+1,7
  2241  054C  30FF               	movlw	255
  2242  054D  00A6               	movwf	___xxtofl@val+2
  2243  054E  00A7               	movwf	___xxtofl@val+3
  2244  054F  3001               	movlw	1
  2245  0550  120A  158A  20A3  120A  118A  	fcall	___xxtofl
  2246  0555  1283               	bcf	3,5	;RP0=0, select bank0
  2247  0556  1303               	bcf	3,6	;RP1=0, select bank0
  2248  0557  0827               	movf	?___xxtofl+3,w
  2249  0558  00B5               	movwf	___flsub@a+3
  2250  0559  0826               	movf	?___xxtofl+2,w
  2251  055A  00B4               	movwf	___flsub@a+2
  2252  055B  0825               	movf	?___xxtofl+1,w
  2253  055C  00B3               	movwf	___flsub@a+1
  2254  055D  0824               	movf	?___xxtofl,w
  2255  055E  00B2               	movwf	___flsub@a
  2256  055F  0869               	movf	convert@a+3,w
  2257  0560  00B9               	movwf	___flsub@b+3
  2258  0561  0868               	movf	convert@a+2,w
  2259  0562  00B8               	movwf	___flsub@b+2
  2260  0563  0867               	movf	convert@a+1,w
  2261  0564  00B7               	movwf	___flsub@b+1
  2262  0565  0866               	movf	convert@a,w
  2263  0566  00B6               	movwf	___flsub@b
  2264  0567  160A  118A  25E6  120A  118A  	fcall	___flsub
  2265  056C  1283               	bcf	3,5	;RP0=0, select bank0
  2266  056D  1303               	bcf	3,6	;RP1=0, select bank0
  2267  056E  0835               	movf	?___flsub+3,w
  2268  056F  00E9               	movwf	convert@a+3
  2269  0570  0834               	movf	?___flsub+2,w
  2270  0571  00E8               	movwf	convert@a+2
  2271  0572  0833               	movf	?___flsub+1,w
  2272  0573  00E7               	movwf	convert@a+1
  2273  0574  0832               	movf	?___flsub,w
  2274  0575  00E6               	movwf	convert@a
  2275  0576                     l2591:
  2276                           
  2277                           ;Librerias.c: 214:          data[i]=0x30+((int)x);
  2278  0576  1683               	bsf	3,5	;RP0=1, select bank1
  2279  0577  1303               	bcf	3,6	;RP1=0, select bank1
  2280  0578  0854               	movf	(convert@x+3)^(0+128),w
  2281  0579  00F3               	movwf	___fltol@f1+3
  2282  057A  0853               	movf	(convert@x+2)^(0+128),w
  2283  057B  00F2               	movwf	___fltol@f1+2
  2284  057C  0852               	movf	(convert@x+1)^(0+128),w
  2285  057D  00F1               	movwf	___fltol@f1+1
  2286  057E  0851               	movf	convert@x^(0+128),w
  2287  057F  00F0               	movwf	___fltol@f1
  2288  0580  120A  118A  2020  120A  118A  	fcall	___fltol
  2289  0585  0870               	movf	?___fltol,w
  2290  0586  3E30               	addlw	48
  2291  0587  1283               	bcf	3,5	;RP0=0, select bank0
  2292  0588  1303               	bcf	3,6	;RP1=0, select bank0
  2293  0589  00EC               	movwf	??_convert
  2294  058A  1683               	bsf	3,5	;RP0=1, select bank1
  2295  058B  1303               	bcf	3,6	;RP1=0, select bank1
  2296  058C  0855               	movf	convert@i^(0+128),w
  2297  058D  0750               	addwf	convert@data^(0+128),w
  2298  058E  1283               	bcf	3,5	;RP0=0, select bank0
  2299  058F  1303               	bcf	3,6	;RP1=0, select bank0
  2300  0590  00ED               	movwf	??_convert+1
  2301  0591  086D               	movf	??_convert+1,w
  2302  0592  0084               	movwf	4
  2303  0593  086C               	movf	??_convert,w
  2304  0594  1383               	bcf	3,7	;select IRP bank0
  2305  0595  0080               	movwf	0
  2306  0596                     l2593:
  2307                           
  2308                           ;Librerias.c: 215:          i++;
  2309  0596  3001               	movlw	1
  2310  0597  1683               	bsf	3,5	;RP0=1, select bank1
  2311  0598  1303               	bcf	3,6	;RP1=0, select bank1
  2312  0599  07D5               	addwf	convert@i^(0+128),f
  2313  059A  1803               	skipnc
  2314  059B  0AD6               	incf	(convert@i+1)^(0+128),f
  2315  059C  3000               	movlw	0
  2316  059D  07D6               	addwf	(convert@i+1)^(0+128),f
  2317  059E                     l2595:
  2318                           
  2319                           ;Librerias.c: 216:          digits--;
  2320  059E  30FF               	movlw	255
  2321  059F  07D7               	addwf	convert@digits^(0+128),f
  2322  05A0  1803               	skipnc
  2323  05A1  0AD8               	incf	(convert@digits+1)^(0+128),f
  2324  05A2  30FF               	movlw	255
  2325  05A3  07D8               	addwf	(convert@digits+1)^(0+128),f
  2326  05A4                     l2597:
  2327                           
  2328                           ;Librerias.c: 217:          mu=1;
  2329  05A4  3001               	movlw	1
  2330  05A5  00D9               	movwf	convert@mu^(0+128)
  2331  05A6  3000               	movlw	0
  2332  05A7  00DA               	movwf	(convert@mu^(0+128)+1)
  2333  05A8                     l2599:
  2334                           
  2335                           ;Librerias.c: 207:      while(digits!=0)
  2336  05A8  0857               	movf	convert@digits^(0+128),w
  2337  05A9  0458               	iorwf	(convert@digits+1)^(0+128),w
  2338  05AA  1D03               	btfss	3,2
  2339  05AB  2DAD               	goto	u3621
  2340  05AC  2DAE               	goto	u3620
  2341  05AD                     u3621:
  2342  05AD  2C8D               	goto	l2577
  2343  05AE                     u3620:
  2344  05AE                     l2601:
  2345                           
  2346                           ;Librerias.c: 220:      data[i]='.';
  2347  05AE  302E               	movlw	46
  2348  05AF  1283               	bcf	3,5	;RP0=0, select bank0
  2349  05B0  1303               	bcf	3,6	;RP1=0, select bank0
  2350  05B1  00EC               	movwf	??_convert
  2351  05B2  1683               	bsf	3,5	;RP0=1, select bank1
  2352  05B3  1303               	bcf	3,6	;RP1=0, select bank1
  2353  05B4  0855               	movf	convert@i^(0+128),w
  2354  05B5  0750               	addwf	convert@data^(0+128),w
  2355  05B6  1283               	bcf	3,5	;RP0=0, select bank0
  2356  05B7  1303               	bcf	3,6	;RP1=0, select bank0
  2357  05B8  00ED               	movwf	??_convert+1
  2358  05B9  086D               	movf	??_convert+1,w
  2359  05BA  0084               	movwf	4
  2360  05BB  086C               	movf	??_convert,w
  2361  05BC  1383               	bcf	3,7	;select IRP bank0
  2362  05BD  0080               	movwf	0
  2363  05BE                     l2603:
  2364                           
  2365                           ;Librerias.c: 221:      i++;
  2366  05BE  3001               	movlw	1
  2367  05BF  1683               	bsf	3,5	;RP0=1, select bank1
  2368  05C0  1303               	bcf	3,6	;RP1=0, select bank1
  2369  05C1  07D5               	addwf	convert@i^(0+128),f
  2370  05C2  1803               	skipnc
  2371  05C3  0AD6               	incf	(convert@i+1)^(0+128),f
  2372  05C4  3000               	movlw	0
  2373  05C5  07D6               	addwf	(convert@i+1)^(0+128),f
  2374  05C6                     l2605:
  2375  05C6                     l2607:
  2376                           
  2377                           ;Librerias.c: 223:      for(j=1;j<=place;j++)mu=mu*10;
  2378  05C6  3001               	movlw	1
  2379  05C7  00CE               	movwf	convert@j^(0+128)
  2380  05C8  3000               	movlw	0
  2381  05C9  00CF               	movwf	(convert@j^(0+128)+1)
  2382  05CA  2DF2               	goto	l2613
  2383  05CB                     l2609:
  2384  05CB  1683               	bsf	3,5	;RP0=1, select bank1
  2385  05CC  1303               	bcf	3,6	;RP1=0, select bank1
  2386  05CD  085A               	movf	(convert@mu+1)^(0+128),w
  2387  05CE  1283               	bcf	3,5	;RP0=0, select bank0
  2388  05CF  1303               	bcf	3,6	;RP1=0, select bank0
  2389  05D0  00A1               	movwf	___wmul@multiplier+1
  2390  05D1  1683               	bsf	3,5	;RP0=1, select bank1
  2391  05D2  1303               	bcf	3,6	;RP1=0, select bank1
  2392  05D3  0859               	movf	convert@mu^(0+128),w
  2393  05D4  1283               	bcf	3,5	;RP0=0, select bank0
  2394  05D5  1303               	bcf	3,6	;RP1=0, select bank0
  2395  05D6  00A0               	movwf	___wmul@multiplier
  2396  05D7  300A               	movlw	10
  2397  05D8  00A2               	movwf	___wmul@multiplicand
  2398  05D9  3000               	movlw	0
  2399  05DA  00A3               	movwf	___wmul@multiplicand+1
  2400  05DB  160A  118A  2631  120A  118A  	fcall	___wmul
  2401  05E0  1283               	bcf	3,5	;RP0=0, select bank0
  2402  05E1  1303               	bcf	3,6	;RP1=0, select bank0
  2403  05E2  0821               	movf	?___wmul+1,w
  2404  05E3  1683               	bsf	3,5	;RP0=1, select bank1
  2405  05E4  1303               	bcf	3,6	;RP1=0, select bank1
  2406  05E5  00DA               	movwf	(convert@mu+1)^(0+128)
  2407  05E6  1283               	bcf	3,5	;RP0=0, select bank0
  2408  05E7  1303               	bcf	3,6	;RP1=0, select bank0
  2409  05E8  0820               	movf	?___wmul,w
  2410  05E9  1683               	bsf	3,5	;RP0=1, select bank1
  2411  05EA  1303               	bcf	3,6	;RP1=0, select bank1
  2412  05EB  00D9               	movwf	convert@mu^(0+128)
  2413  05EC                     l2611:
  2414  05EC  3001               	movlw	1
  2415  05ED  07CE               	addwf	convert@j^(0+128),f
  2416  05EE  1803               	skipnc
  2417  05EF  0ACF               	incf	(convert@j+1)^(0+128),f
  2418  05F0  3000               	movlw	0
  2419  05F1  07CF               	addwf	(convert@j+1)^(0+128),f
  2420  05F2                     l2613:
  2421  05F2  1283               	bcf	3,5	;RP0=0, select bank0
  2422  05F3  1303               	bcf	3,6	;RP1=0, select bank0
  2423  05F4  086B               	movf	convert@place+1,w
  2424  05F5  3A80               	xorlw	128
  2425  05F6  00EC               	movwf	??_convert
  2426  05F7  1683               	bsf	3,5	;RP0=1, select bank1
  2427  05F8  1303               	bcf	3,6	;RP1=0, select bank1
  2428  05F9  084F               	movf	(convert@j+1)^(0+128),w
  2429  05FA  3A80               	xorlw	128
  2430  05FB  1283               	bcf	3,5	;RP0=0, select bank0
  2431  05FC  1303               	bcf	3,6	;RP1=0, select bank0
  2432  05FD  026C               	subwf	??_convert,w
  2433  05FE  1D03               	skipz
  2434  05FF  2E06               	goto	u3635
  2435  0600  1683               	bsf	3,5	;RP0=1, select bank1
  2436  0601  1303               	bcf	3,6	;RP1=0, select bank1
  2437  0602  084E               	movf	convert@j^(0+128),w
  2438  0603  1283               	bcf	3,5	;RP0=0, select bank0
  2439  0604  1303               	bcf	3,6	;RP1=0, select bank0
  2440  0605  026A               	subwf	convert@place,w
  2441  0606                     u3635:
  2442  0606  1803               	skipnc
  2443  0607  2E09               	goto	u3631
  2444  0608  2E0A               	goto	u3630
  2445  0609                     u3631:
  2446  0609  2DCB               	goto	l2609
  2447  060A                     u3630:
  2448  060A                     l2615:
  2449                           
  2450                           ;Librerias.c: 224:      x=(a-(int)a)*mu;
  2451  060A  1683               	bsf	3,5	;RP0=1, select bank1
  2452  060B  1303               	bcf	3,6	;RP1=0, select bank1
  2453  060C  0859               	movf	convert@mu^(0+128),w
  2454  060D  1283               	bcf	3,5	;RP0=0, select bank0
  2455  060E  1303               	bcf	3,6	;RP1=0, select bank0
  2456  060F  00A4               	movwf	___xxtofl@val
  2457  0610  1683               	bsf	3,5	;RP0=1, select bank1
  2458  0611  1303               	bcf	3,6	;RP1=0, select bank1
  2459  0612  085A               	movf	(convert@mu+1)^(0+128),w
  2460  0613  1283               	bcf	3,5	;RP0=0, select bank0
  2461  0614  1303               	bcf	3,6	;RP1=0, select bank0
  2462  0615  00A5               	movwf	___xxtofl@val+1
  2463  0616  3000               	movlw	0
  2464  0617  1BA5               	btfsc	___xxtofl@val+1,7
  2465  0618  30FF               	movlw	255
  2466  0619  00A6               	movwf	___xxtofl@val+2
  2467  061A  00A7               	movwf	___xxtofl@val+3
  2468  061B  3001               	movlw	1
  2469  061C  120A  158A  20A3  120A  118A  	fcall	___xxtofl
  2470  0621  1283               	bcf	3,5	;RP0=0, select bank0
  2471  0622  1303               	bcf	3,6	;RP1=0, select bank0
  2472  0623  0827               	movf	?___xxtofl+3,w
  2473  0624  00CF               	movwf	___flmul@b+3
  2474  0625  0826               	movf	?___xxtofl+2,w
  2475  0626  00CE               	movwf	___flmul@b+2
  2476  0627  0825               	movf	?___xxtofl+1,w
  2477  0628  00CD               	movwf	___flmul@b+1
  2478  0629  0824               	movf	?___xxtofl,w
  2479  062A  00CC               	movwf	___flmul@b
  2480  062B  0869               	movf	convert@a+3,w
  2481  062C  00F3               	movwf	___fltol@f1+3
  2482  062D  0868               	movf	convert@a+2,w
  2483  062E  00F2               	movwf	___fltol@f1+2
  2484  062F  0867               	movf	convert@a+1,w
  2485  0630  00F1               	movwf	___fltol@f1+1
  2486  0631  0866               	movf	convert@a,w
  2487  0632  00F0               	movwf	___fltol@f1
  2488  0633  120A  118A  2020  120A  118A  	fcall	___fltol
  2489  0638  0870               	movf	?___fltol,w
  2490  0639  1283               	bcf	3,5	;RP0=0, select bank0
  2491  063A  1303               	bcf	3,6	;RP1=0, select bank0
  2492  063B  00A4               	movwf	___xxtofl@val
  2493  063C  0871               	movf	?___fltol+1,w
  2494  063D  00A5               	movwf	___xxtofl@val+1
  2495  063E  3000               	movlw	0
  2496  063F  1BA5               	btfsc	___xxtofl@val+1,7
  2497  0640  30FF               	movlw	255
  2498  0641  00A6               	movwf	___xxtofl@val+2
  2499  0642  00A7               	movwf	___xxtofl@val+3
  2500  0643  3001               	movlw	1
  2501  0644  120A  158A  20A3  120A  118A  	fcall	___xxtofl
  2502  0649  1283               	bcf	3,5	;RP0=0, select bank0
  2503  064A  1303               	bcf	3,6	;RP1=0, select bank0
  2504  064B  0827               	movf	?___xxtofl+3,w
  2505  064C  00B5               	movwf	___flsub@a+3
  2506  064D  0826               	movf	?___xxtofl+2,w
  2507  064E  00B4               	movwf	___flsub@a+2
  2508  064F  0825               	movf	?___xxtofl+1,w
  2509  0650  00B3               	movwf	___flsub@a+1
  2510  0651  0824               	movf	?___xxtofl,w
  2511  0652  00B2               	movwf	___flsub@a
  2512  0653  0869               	movf	convert@a+3,w
  2513  0654  00B9               	movwf	___flsub@b+3
  2514  0655  0868               	movf	convert@a+2,w
  2515  0656  00B8               	movwf	___flsub@b+2
  2516  0657  0867               	movf	convert@a+1,w
  2517  0658  00B7               	movwf	___flsub@b+1
  2518  0659  0866               	movf	convert@a,w
  2519  065A  00B6               	movwf	___flsub@b
  2520  065B  160A  118A  25E6  120A  118A  	fcall	___flsub
  2521  0660  1283               	bcf	3,5	;RP0=0, select bank0
  2522  0661  1303               	bcf	3,6	;RP1=0, select bank0
  2523  0662  0835               	movf	?___flsub+3,w
  2524  0663  00D3               	movwf	___flmul@a+3
  2525  0664  0834               	movf	?___flsub+2,w
  2526  0665  00D2               	movwf	___flmul@a+2
  2527  0666  0833               	movf	?___flsub+1,w
  2528  0667  00D1               	movwf	___flmul@a+1
  2529  0668  0832               	movf	?___flsub,w
  2530  0669  00D0               	movwf	___flmul@a
  2531  066A  120A  118A  209A  120A  118A  	fcall	___flmul
  2532  066F  1283               	bcf	3,5	;RP0=0, select bank0
  2533  0670  1303               	bcf	3,6	;RP1=0, select bank0
  2534  0671  084F               	movf	?___flmul+3,w
  2535  0672  1683               	bsf	3,5	;RP0=1, select bank1
  2536  0673  1303               	bcf	3,6	;RP1=0, select bank1
  2537  0674  00D4               	movwf	(convert@x+3)^(0+128)
  2538  0675  1283               	bcf	3,5	;RP0=0, select bank0
  2539  0676  1303               	bcf	3,6	;RP1=0, select bank0
  2540  0677  084E               	movf	?___flmul+2,w
  2541  0678  1683               	bsf	3,5	;RP0=1, select bank1
  2542  0679  1303               	bcf	3,6	;RP1=0, select bank1
  2543  067A  00D3               	movwf	(convert@x+2)^(0+128)
  2544  067B  1283               	bcf	3,5	;RP0=0, select bank0
  2545  067C  1303               	bcf	3,6	;RP1=0, select bank0
  2546  067D  084D               	movf	?___flmul+1,w
  2547  067E  1683               	bsf	3,5	;RP0=1, select bank1
  2548  067F  1303               	bcf	3,6	;RP1=0, select bank1
  2549  0680  00D2               	movwf	(convert@x+1)^(0+128)
  2550  0681  1283               	bcf	3,5	;RP0=0, select bank0
  2551  0682  1303               	bcf	3,6	;RP1=0, select bank0
  2552  0683  084C               	movf	?___flmul,w
  2553  0684  1683               	bsf	3,5	;RP0=1, select bank1
  2554  0685  1303               	bcf	3,6	;RP1=0, select bank1
  2555  0686  00D1               	movwf	convert@x^(0+128)
  2556  0687                     l2617:
  2557                           
  2558                           ;Librerias.c: 225:      a=x;
  2559  0687  0854               	movf	(convert@x+3)^(0+128),w
  2560  0688  1283               	bcf	3,5	;RP0=0, select bank0
  2561  0689  1303               	bcf	3,6	;RP1=0, select bank0
  2562  068A  00E9               	movwf	convert@a+3
  2563  068B  1683               	bsf	3,5	;RP0=1, select bank1
  2564  068C  1303               	bcf	3,6	;RP1=0, select bank1
  2565  068D  0853               	movf	(convert@x+2)^(0+128),w
  2566  068E  1283               	bcf	3,5	;RP0=0, select bank0
  2567  068F  1303               	bcf	3,6	;RP1=0, select bank0
  2568  0690  00E8               	movwf	convert@a+2
  2569  0691  1683               	bsf	3,5	;RP0=1, select bank1
  2570  0692  1303               	bcf	3,6	;RP1=0, select bank1
  2571  0693  0852               	movf	(convert@x+1)^(0+128),w
  2572  0694  1283               	bcf	3,5	;RP0=0, select bank0
  2573  0695  1303               	bcf	3,6	;RP1=0, select bank0
  2574  0696  00E7               	movwf	convert@a+1
  2575  0697  1683               	bsf	3,5	;RP0=1, select bank1
  2576  0698  1303               	bcf	3,6	;RP1=0, select bank1
  2577  0699  0851               	movf	convert@x^(0+128),w
  2578  069A  1283               	bcf	3,5	;RP0=0, select bank0
  2579  069B  1303               	bcf	3,6	;RP1=0, select bank0
  2580  069C  00E6               	movwf	convert@a
  2581  069D                     l2619:
  2582  069D  0869               	movf	convert@a+3,w
  2583  069E  00F3               	movwf	___fltol@f1+3
  2584  069F  0868               	movf	convert@a+2,w
  2585  06A0  00F2               	movwf	___fltol@f1+2
  2586  06A1  0867               	movf	convert@a+1,w
  2587  06A2  00F1               	movwf	___fltol@f1+1
  2588  06A3  0866               	movf	convert@a,w
  2589  06A4  00F0               	movwf	___fltol@f1
  2590  06A5  120A  118A  2020  120A  118A  	fcall	___fltol
  2591  06AA                     l2621:
  2592  06AA                     l2623:
  2593                           
  2594                           ;Librerias.c: 228:      mu=1;
  2595  06AA  3001               	movlw	1
  2596  06AB  1683               	bsf	3,5	;RP0=1, select bank1
  2597  06AC  1303               	bcf	3,6	;RP1=0, select bank1
  2598  06AD  00D9               	movwf	convert@mu^(0+128)
  2599  06AE  3000               	movlw	0
  2600  06AF  00DA               	movwf	(convert@mu^(0+128)+1)
  2601  06B0                     l2625:
  2602                           
  2603                           ;Librerias.c: 229:      digits=place;
  2604  06B0  1283               	bcf	3,5	;RP0=0, select bank0
  2605  06B1  1303               	bcf	3,6	;RP1=0, select bank0
  2606  06B2  086B               	movf	convert@place+1,w
  2607  06B3  1683               	bsf	3,5	;RP0=1, select bank1
  2608  06B4  1303               	bcf	3,6	;RP1=0, select bank1
  2609  06B5  00D8               	movwf	(convert@digits+1)^(0+128)
  2610  06B6  1283               	bcf	3,5	;RP0=0, select bank0
  2611  06B7  1303               	bcf	3,6	;RP1=0, select bank0
  2612  06B8  086A               	movf	convert@place,w
  2613  06B9  1683               	bsf	3,5	;RP0=1, select bank1
  2614  06BA  1303               	bcf	3,6	;RP1=0, select bank1
  2615  06BB  00D7               	movwf	convert@digits^(0+128)
  2616                           
  2617                           ;Librerias.c: 230:      while(digits!=0)
  2618  06BC  2FD8               	goto	l2649
  2619  06BD                     l2627:
  2620                           
  2621                           ;Librerias.c: 231:      {;Librerias.c: 232:          if(digits==1)mu=1;
  2622  06BD  0357               	decf	convert@digits^(0+128),w
  2623  06BE  0458               	iorwf	(convert@digits+1)^(0+128),w
  2624  06BF  1D03               	btfss	3,2
  2625  06C0  2EC2               	goto	u3641
  2626  06C1  2EC3               	goto	u3640
  2627  06C2                     u3641:
  2628  06C2  2EC8               	goto	l2631
  2629  06C3                     u3640:
  2630  06C3                     l2629:
  2631  06C3  3001               	movlw	1
  2632  06C4  00D9               	movwf	convert@mu^(0+128)
  2633  06C5  3000               	movlw	0
  2634  06C6  00DA               	movwf	(convert@mu^(0+128)+1)
  2635  06C7  2F0A               	goto	l2639
  2636  06C8                     l2631:
  2637  06C8  3002               	movlw	2
  2638  06C9  00CE               	movwf	convert@j^(0+128)
  2639  06CA  3000               	movlw	0
  2640  06CB  00CF               	movwf	(convert@j^(0+128)+1)
  2641  06CC  2EF4               	goto	l2637
  2642  06CD                     l2633:
  2643  06CD  1683               	bsf	3,5	;RP0=1, select bank1
  2644  06CE  1303               	bcf	3,6	;RP1=0, select bank1
  2645  06CF  085A               	movf	(convert@mu+1)^(0+128),w
  2646  06D0  1283               	bcf	3,5	;RP0=0, select bank0
  2647  06D1  1303               	bcf	3,6	;RP1=0, select bank0
  2648  06D2  00A1               	movwf	___wmul@multiplier+1
  2649  06D3  1683               	bsf	3,5	;RP0=1, select bank1
  2650  06D4  1303               	bcf	3,6	;RP1=0, select bank1
  2651  06D5  0859               	movf	convert@mu^(0+128),w
  2652  06D6  1283               	bcf	3,5	;RP0=0, select bank0
  2653  06D7  1303               	bcf	3,6	;RP1=0, select bank0
  2654  06D8  00A0               	movwf	___wmul@multiplier
  2655  06D9  300A               	movlw	10
  2656  06DA  00A2               	movwf	___wmul@multiplicand
  2657  06DB  3000               	movlw	0
  2658  06DC  00A3               	movwf	___wmul@multiplicand+1
  2659  06DD  160A  118A  2631  120A  118A  	fcall	___wmul
  2660  06E2  1283               	bcf	3,5	;RP0=0, select bank0
  2661  06E3  1303               	bcf	3,6	;RP1=0, select bank0
  2662  06E4  0821               	movf	?___wmul+1,w
  2663  06E5  1683               	bsf	3,5	;RP0=1, select bank1
  2664  06E6  1303               	bcf	3,6	;RP1=0, select bank1
  2665  06E7  00DA               	movwf	(convert@mu+1)^(0+128)
  2666  06E8  1283               	bcf	3,5	;RP0=0, select bank0
  2667  06E9  1303               	bcf	3,6	;RP1=0, select bank0
  2668  06EA  0820               	movf	?___wmul,w
  2669  06EB  1683               	bsf	3,5	;RP0=1, select bank1
  2670  06EC  1303               	bcf	3,6	;RP1=0, select bank1
  2671  06ED  00D9               	movwf	convert@mu^(0+128)
  2672  06EE                     l2635:
  2673  06EE  3001               	movlw	1
  2674  06EF  07CE               	addwf	convert@j^(0+128),f
  2675  06F0  1803               	skipnc
  2676  06F1  0ACF               	incf	(convert@j+1)^(0+128),f
  2677  06F2  3000               	movlw	0
  2678  06F3  07CF               	addwf	(convert@j+1)^(0+128),f
  2679  06F4                     l2637:
  2680  06F4  0858               	movf	(convert@digits+1)^(0+128),w
  2681  06F5  3A80               	xorlw	128
  2682  06F6  1283               	bcf	3,5	;RP0=0, select bank0
  2683  06F7  1303               	bcf	3,6	;RP1=0, select bank0
  2684  06F8  00EC               	movwf	??_convert
  2685  06F9  1683               	bsf	3,5	;RP0=1, select bank1
  2686  06FA  1303               	bcf	3,6	;RP1=0, select bank1
  2687  06FB  084F               	movf	(convert@j+1)^(0+128),w
  2688  06FC  3A80               	xorlw	128
  2689  06FD  1283               	bcf	3,5	;RP0=0, select bank0
  2690  06FE  1303               	bcf	3,6	;RP1=0, select bank0
  2691  06FF  026C               	subwf	??_convert,w
  2692  0700  1D03               	skipz
  2693  0701  2F06               	goto	u3655
  2694  0702  1683               	bsf	3,5	;RP0=1, select bank1
  2695  0703  1303               	bcf	3,6	;RP1=0, select bank1
  2696  0704  084E               	movf	convert@j^(0+128),w
  2697  0705  0257               	subwf	convert@digits^(0+128),w
  2698  0706                     u3655:
  2699  0706  1803               	skipnc
  2700  0707  2F09               	goto	u3651
  2701  0708  2F0A               	goto	u3650
  2702  0709                     u3651:
  2703  0709  2ECD               	goto	l2633
  2704  070A                     u3650:
  2705  070A                     l2639:
  2706                           
  2707                           ;Librerias.c: 235:          x=a/mu;
  2708  070A  1683               	bsf	3,5	;RP0=1, select bank1
  2709  070B  1303               	bcf	3,6	;RP1=0, select bank1
  2710  070C  0859               	movf	convert@mu^(0+128),w
  2711  070D  1283               	bcf	3,5	;RP0=0, select bank0
  2712  070E  1303               	bcf	3,6	;RP1=0, select bank0
  2713  070F  00A4               	movwf	___xxtofl@val
  2714  0710  1683               	bsf	3,5	;RP0=1, select bank1
  2715  0711  1303               	bcf	3,6	;RP1=0, select bank1
  2716  0712  085A               	movf	(convert@mu+1)^(0+128),w
  2717  0713  1283               	bcf	3,5	;RP0=0, select bank0
  2718  0714  1303               	bcf	3,6	;RP1=0, select bank0
  2719  0715  00A5               	movwf	___xxtofl@val+1
  2720  0716  3000               	movlw	0
  2721  0717  1BA5               	btfsc	___xxtofl@val+1,7
  2722  0718  30FF               	movlw	255
  2723  0719  00A6               	movwf	___xxtofl@val+2
  2724  071A  00A7               	movwf	___xxtofl@val+3
  2725  071B  3001               	movlw	1
  2726  071C  120A  158A  20A3  120A  118A  	fcall	___xxtofl
  2727  0721  1283               	bcf	3,5	;RP0=0, select bank0
  2728  0722  1303               	bcf	3,6	;RP1=0, select bank0
  2729  0723  0827               	movf	?___xxtofl+3,w
  2730  0724  00B5               	movwf	___fldiv@a+3
  2731  0725  0826               	movf	?___xxtofl+2,w
  2732  0726  00B4               	movwf	___fldiv@a+2
  2733  0727  0825               	movf	?___xxtofl+1,w
  2734  0728  00B3               	movwf	___fldiv@a+1
  2735  0729  0824               	movf	?___xxtofl,w
  2736  072A  00B2               	movwf	___fldiv@a
  2737  072B  0869               	movf	convert@a+3,w
  2738  072C  00B9               	movwf	___fldiv@b+3
  2739  072D  0868               	movf	convert@a+2,w
  2740  072E  00B8               	movwf	___fldiv@b+2
  2741  072F  0867               	movf	convert@a+1,w
  2742  0730  00B7               	movwf	___fldiv@b+1
  2743  0731  0866               	movf	convert@a,w
  2744  0732  00B6               	movwf	___fldiv@b
  2745  0733  120A  158A  215F  120A  118A  	fcall	___fldiv
  2746  0738  1283               	bcf	3,5	;RP0=0, select bank0
  2747  0739  1303               	bcf	3,6	;RP1=0, select bank0
  2748  073A  0835               	movf	?___fldiv+3,w
  2749  073B  1683               	bsf	3,5	;RP0=1, select bank1
  2750  073C  1303               	bcf	3,6	;RP1=0, select bank1
  2751  073D  00D4               	movwf	(convert@x+3)^(0+128)
  2752  073E  1283               	bcf	3,5	;RP0=0, select bank0
  2753  073F  1303               	bcf	3,6	;RP1=0, select bank0
  2754  0740  0834               	movf	?___fldiv+2,w
  2755  0741  1683               	bsf	3,5	;RP0=1, select bank1
  2756  0742  1303               	bcf	3,6	;RP1=0, select bank1
  2757  0743  00D3               	movwf	(convert@x+2)^(0+128)
  2758  0744  1283               	bcf	3,5	;RP0=0, select bank0
  2759  0745  1303               	bcf	3,6	;RP1=0, select bank0
  2760  0746  0833               	movf	?___fldiv+1,w
  2761  0747  1683               	bsf	3,5	;RP0=1, select bank1
  2762  0748  1303               	bcf	3,6	;RP1=0, select bank1
  2763  0749  00D2               	movwf	(convert@x+1)^(0+128)
  2764  074A  1283               	bcf	3,5	;RP0=0, select bank0
  2765  074B  1303               	bcf	3,6	;RP1=0, select bank0
  2766  074C  0832               	movf	?___fldiv,w
  2767  074D  1683               	bsf	3,5	;RP0=1, select bank1
  2768  074E  1303               	bcf	3,6	;RP1=0, select bank1
  2769  074F  00D1               	movwf	convert@x^(0+128)
  2770                           
  2771                           ;Librerias.c: 236:          a=a-((int)x*mu);
  2772  0750  085A               	movf	(convert@mu+1)^(0+128),w
  2773  0751  1283               	bcf	3,5	;RP0=0, select bank0
  2774  0752  1303               	bcf	3,6	;RP1=0, select bank0
  2775  0753  00A3               	movwf	___wmul@multiplicand+1
  2776  0754  1683               	bsf	3,5	;RP0=1, select bank1
  2777  0755  1303               	bcf	3,6	;RP1=0, select bank1
  2778  0756  0859               	movf	convert@mu^(0+128),w
  2779  0757  1283               	bcf	3,5	;RP0=0, select bank0
  2780  0758  1303               	bcf	3,6	;RP1=0, select bank0
  2781  0759  00A2               	movwf	___wmul@multiplicand
  2782  075A  1683               	bsf	3,5	;RP0=1, select bank1
  2783  075B  1303               	bcf	3,6	;RP1=0, select bank1
  2784  075C  0854               	movf	(convert@x+3)^(0+128),w
  2785  075D  00F3               	movwf	___fltol@f1+3
  2786  075E  0853               	movf	(convert@x+2)^(0+128),w
  2787  075F  00F2               	movwf	___fltol@f1+2
  2788  0760  0852               	movf	(convert@x+1)^(0+128),w
  2789  0761  00F1               	movwf	___fltol@f1+1
  2790  0762  0851               	movf	convert@x^(0+128),w
  2791  0763  00F0               	movwf	___fltol@f1
  2792  0764  120A  118A  2020  120A  118A  	fcall	___fltol
  2793  0769  0871               	movf	?___fltol+1,w
  2794  076A  1283               	bcf	3,5	;RP0=0, select bank0
  2795  076B  1303               	bcf	3,6	;RP1=0, select bank0
  2796  076C  00A1               	movwf	___wmul@multiplier+1
  2797  076D  0870               	movf	?___fltol,w
  2798  076E  00A0               	movwf	___wmul@multiplier
  2799  076F  160A  118A  2631  120A  118A  	fcall	___wmul
  2800  0774  1283               	bcf	3,5	;RP0=0, select bank0
  2801  0775  1303               	bcf	3,6	;RP1=0, select bank0
  2802  0776  0820               	movf	?___wmul,w
  2803  0777  00A4               	movwf	___xxtofl@val
  2804  0778  0821               	movf	?___wmul+1,w
  2805  0779  00A5               	movwf	___xxtofl@val+1
  2806  077A  3000               	movlw	0
  2807  077B  1BA5               	btfsc	___xxtofl@val+1,7
  2808  077C  30FF               	movlw	255
  2809  077D  00A6               	movwf	___xxtofl@val+2
  2810  077E  00A7               	movwf	___xxtofl@val+3
  2811  077F  3001               	movlw	1
  2812  0780  120A  158A  20A3  120A  118A  	fcall	___xxtofl
  2813  0785  1283               	bcf	3,5	;RP0=0, select bank0
  2814  0786  1303               	bcf	3,6	;RP1=0, select bank0
  2815  0787  0827               	movf	?___xxtofl+3,w
  2816  0788  00B5               	movwf	___flsub@a+3
  2817  0789  0826               	movf	?___xxtofl+2,w
  2818  078A  00B4               	movwf	___flsub@a+2
  2819  078B  0825               	movf	?___xxtofl+1,w
  2820  078C  00B3               	movwf	___flsub@a+1
  2821  078D  0824               	movf	?___xxtofl,w
  2822  078E  00B2               	movwf	___flsub@a
  2823  078F  0869               	movf	convert@a+3,w
  2824  0790  00B9               	movwf	___flsub@b+3
  2825  0791  0868               	movf	convert@a+2,w
  2826  0792  00B8               	movwf	___flsub@b+2
  2827  0793  0867               	movf	convert@a+1,w
  2828  0794  00B7               	movwf	___flsub@b+1
  2829  0795  0866               	movf	convert@a,w
  2830  0796  00B6               	movwf	___flsub@b
  2831  0797  160A  118A  25E6  120A  118A  	fcall	___flsub
  2832  079C  1283               	bcf	3,5	;RP0=0, select bank0
  2833  079D  1303               	bcf	3,6	;RP1=0, select bank0
  2834  079E  0835               	movf	?___flsub+3,w
  2835  079F  00E9               	movwf	convert@a+3
  2836  07A0  0834               	movf	?___flsub+2,w
  2837  07A1  00E8               	movwf	convert@a+2
  2838  07A2  0833               	movf	?___flsub+1,w
  2839  07A3  00E7               	movwf	convert@a+1
  2840  07A4  0832               	movf	?___flsub,w
  2841  07A5  00E6               	movwf	convert@a
  2842  07A6                     l2641:
  2843                           
  2844                           ;Librerias.c: 237:          data[i]=0x30+((int)x);
  2845  07A6  1683               	bsf	3,5	;RP0=1, select bank1
  2846  07A7  1303               	bcf	3,6	;RP1=0, select bank1
  2847  07A8  0854               	movf	(convert@x+3)^(0+128),w
  2848  07A9  00F3               	movwf	___fltol@f1+3
  2849  07AA  0853               	movf	(convert@x+2)^(0+128),w
  2850  07AB  00F2               	movwf	___fltol@f1+2
  2851  07AC  0852               	movf	(convert@x+1)^(0+128),w
  2852  07AD  00F1               	movwf	___fltol@f1+1
  2853  07AE  0851               	movf	convert@x^(0+128),w
  2854  07AF  00F0               	movwf	___fltol@f1
  2855  07B0  120A  118A  2020  120A  118A  	fcall	___fltol
  2856  07B5  0870               	movf	?___fltol,w
  2857  07B6  3E30               	addlw	48
  2858  07B7  1283               	bcf	3,5	;RP0=0, select bank0
  2859  07B8  1303               	bcf	3,6	;RP1=0, select bank0
  2860  07B9  00EC               	movwf	??_convert
  2861  07BA  1683               	bsf	3,5	;RP0=1, select bank1
  2862  07BB  1303               	bcf	3,6	;RP1=0, select bank1
  2863  07BC  0855               	movf	convert@i^(0+128),w
  2864  07BD  0750               	addwf	convert@data^(0+128),w
  2865  07BE  1283               	bcf	3,5	;RP0=0, select bank0
  2866  07BF  1303               	bcf	3,6	;RP1=0, select bank0
  2867  07C0  00ED               	movwf	??_convert+1
  2868  07C1  086D               	movf	??_convert+1,w
  2869  07C2  0084               	movwf	4
  2870  07C3  086C               	movf	??_convert,w
  2871  07C4  1383               	bcf	3,7	;select IRP bank0
  2872  07C5  0080               	movwf	0
  2873  07C6                     l2643:
  2874                           
  2875                           ;Librerias.c: 238:          i++;
  2876  07C6  3001               	movlw	1
  2877  07C7  1683               	bsf	3,5	;RP0=1, select bank1
  2878  07C8  1303               	bcf	3,6	;RP1=0, select bank1
  2879  07C9  07D5               	addwf	convert@i^(0+128),f
  2880  07CA  1803               	skipnc
  2881  07CB  0AD6               	incf	(convert@i+1)^(0+128),f
  2882  07CC  3000               	movlw	0
  2883  07CD  07D6               	addwf	(convert@i+1)^(0+128),f
  2884  07CE                     l2645:
  2885                           
  2886                           ;Librerias.c: 239:          digits--;
  2887  07CE  30FF               	movlw	255
  2888  07CF  07D7               	addwf	convert@digits^(0+128),f
  2889  07D0  1803               	skipnc
  2890  07D1  0AD8               	incf	(convert@digits+1)^(0+128),f
  2891  07D2  30FF               	movlw	255
  2892  07D3  07D8               	addwf	(convert@digits+1)^(0+128),f
  2893  07D4                     l2647:
  2894                           
  2895                           ;Librerias.c: 240:          mu=1;
  2896  07D4  3001               	movlw	1
  2897  07D5  00D9               	movwf	convert@mu^(0+128)
  2898  07D6  3000               	movlw	0
  2899  07D7  00DA               	movwf	(convert@mu^(0+128)+1)
  2900  07D8                     l2649:
  2901                           
  2902                           ;Librerias.c: 230:      while(digits!=0)
  2903  07D8  0857               	movf	convert@digits^(0+128),w
  2904  07D9  0458               	iorwf	(convert@digits+1)^(0+128),w
  2905  07DA  1D03               	btfss	3,2
  2906  07DB  2FDD               	goto	u3661
  2907  07DC  2FDE               	goto	u3660
  2908  07DD                     u3661:
  2909  07DD  2EBD               	goto	l2627
  2910  07DE                     u3660:
  2911  07DE                     l2651:
  2912                           
  2913                           ;Librerias.c: 243:     data[i]='\n';
  2914  07DE  300A               	movlw	10
  2915  07DF  1283               	bcf	3,5	;RP0=0, select bank0
  2916  07E0  1303               	bcf	3,6	;RP1=0, select bank0
  2917  07E1  00EC               	movwf	??_convert
  2918  07E2  1683               	bsf	3,5	;RP0=1, select bank1
  2919  07E3  1303               	bcf	3,6	;RP1=0, select bank1
  2920  07E4  0855               	movf	convert@i^(0+128),w
  2921  07E5  0750               	addwf	convert@data^(0+128),w
  2922  07E6  1283               	bcf	3,5	;RP0=0, select bank0
  2923  07E7  1303               	bcf	3,6	;RP1=0, select bank0
  2924  07E8  00ED               	movwf	??_convert+1
  2925  07E9  086D               	movf	??_convert+1,w
  2926  07EA  0084               	movwf	4
  2927  07EB  086C               	movf	??_convert,w
  2928  07EC  1383               	bcf	3,7	;select IRP bank0
  2929  07ED  0080               	movwf	0
  2930  07EE                     l189:
  2931  07EE  0008               	return
  2932  07EF                     __end_of_convert:
  2933                           
  2934                           	psect	text5
  2935  08A3                     __ptext5:	
  2936 ;; *************** function ___xxtofl *****************
  2937 ;; Defined at:
  2938 ;;		line 10 in file "C:\Program Files\Microchip\xc8\v2.31\pic\sources\c90\common\xxtofl.c"
  2939 ;; Parameters:    Size  Location     Type
  2940 ;;  sign            1    wreg     unsigned char 
  2941 ;;  val             4    4[BANK0 ] long 
  2942 ;; Auto vars:     Size  Location     Type
  2943 ;;  sign            1   12[BANK0 ] unsigned char 
  2944 ;;  arg             4   14[BANK0 ] unsigned long 
  2945 ;;  exp             1   13[BANK0 ] unsigned char 
  2946 ;; Return value:  Size  Location     Type
  2947 ;;                  4    4[BANK0 ] unsigned char 
  2948 ;; Registers used:
  2949 ;;		wreg, status,2, status,0
  2950 ;; Tracked objects:
  2951 ;;		On entry : 0/0
  2952 ;;		On exit  : 0/0
  2953 ;;		Unchanged: 0/0
  2954 ;; Data sizes:     COMMON   BANK0   BANK1   BANK3   BANK2
  2955 ;;      Params:         0       4       0       0       0
  2956 ;;      Locals:         0       6       0       0       0
  2957 ;;      Temps:          0       4       0       0       0
  2958 ;;      Totals:         0      14       0       0       0
  2959 ;;Total ram usage:       14 bytes
  2960 ;; Hardware stack levels used:    1
  2961 ;; This function calls:
  2962 ;;		Nothing
  2963 ;; This function is called by:
  2964 ;;		_main
  2965 ;;		_convert
  2966 ;; This function uses a non-reentrant model
  2967 ;;
  2968                           
  2969                           
  2970                           ;psect for function ___xxtofl
  2971  08A3                     ___xxtofl:
  2972                           
  2973                           ;incstack = 0
  2974                           ; Regs used in ___xxtofl: [wreg+status,2+status,0]
  2975                           ;___xxtofl@sign stored from wreg
  2976  08A3  1283               	bcf	3,5	;RP0=0, select bank0
  2977  08A4  1303               	bcf	3,6	;RP1=0, select bank0
  2978  08A5  00AC               	movwf	___xxtofl@sign
  2979  08A6                     l2431:
  2980  08A6  082C               	movf	___xxtofl@sign,w
  2981  08A7  1903               	btfsc	3,2
  2982  08A8  28AA               	goto	u3401
  2983  08A9  28AB               	goto	u3400
  2984  08AA                     u3401:
  2985  08AA  28BF               	goto	l2437
  2986  08AB                     u3400:
  2987  08AB                     l2433:
  2988  08AB  1FA7               	btfss	___xxtofl@val+3,7
  2989  08AC  28AE               	goto	u3411
  2990  08AD  28AF               	goto	u3410
  2991  08AE                     u3411:
  2992  08AE  28BF               	goto	l2437
  2993  08AF                     u3410:
  2994  08AF                     l2435:
  2995  08AF  0924               	comf	___xxtofl@val,w
  2996  08B0  00AE               	movwf	___xxtofl@arg
  2997  08B1  0925               	comf	___xxtofl@val+1,w
  2998  08B2  00AF               	movwf	___xxtofl@arg+1
  2999  08B3  0926               	comf	___xxtofl@val+2,w
  3000  08B4  00B0               	movwf	___xxtofl@arg+2
  3001  08B5  0927               	comf	___xxtofl@val+3,w
  3002  08B6  00B1               	movwf	___xxtofl@arg+3
  3003  08B7  0AAE               	incf	___xxtofl@arg,f
  3004  08B8  1903               	skipnz
  3005  08B9  0AAF               	incf	___xxtofl@arg+1,f
  3006  08BA  1903               	skipnz
  3007  08BB  0AB0               	incf	___xxtofl@arg+2,f
  3008  08BC  1903               	skipnz
  3009  08BD  0AB1               	incf	___xxtofl@arg+3,f
  3010  08BE  28C7               	goto	l708
  3011  08BF                     l2437:
  3012  08BF  0827               	movf	___xxtofl@val+3,w
  3013  08C0  00B1               	movwf	___xxtofl@arg+3
  3014  08C1  0826               	movf	___xxtofl@val+2,w
  3015  08C2  00B0               	movwf	___xxtofl@arg+2
  3016  08C3  0825               	movf	___xxtofl@val+1,w
  3017  08C4  00AF               	movwf	___xxtofl@arg+1
  3018  08C5  0824               	movf	___xxtofl@val,w
  3019  08C6  00AE               	movwf	___xxtofl@arg
  3020  08C7                     l708:
  3021  08C7  0827               	movf	___xxtofl@val+3,w
  3022  08C8  0426               	iorwf	___xxtofl@val+2,w
  3023  08C9  0425               	iorwf	___xxtofl@val+1,w
  3024  08CA  0424               	iorwf	___xxtofl@val,w
  3025  08CB  1D03               	skipz
  3026  08CC  28CE               	goto	u3421
  3027  08CD  28CF               	goto	u3420
  3028  08CE                     u3421:
  3029  08CE  28D8               	goto	l2443
  3030  08CF                     u3420:
  3031  08CF                     l2439:
  3032  08CF  3000               	movlw	0
  3033  08D0  00A7               	movwf	?___xxtofl+3
  3034  08D1  3000               	movlw	0
  3035  08D2  00A6               	movwf	?___xxtofl+2
  3036  08D3  3000               	movlw	0
  3037  08D4  00A5               	movwf	?___xxtofl+1
  3038  08D5  3000               	movlw	0
  3039  08D6  00A4               	movwf	?___xxtofl
  3040  08D7  295E               	goto	l710
  3041  08D8                     l2443:
  3042  08D8  3096               	movlw	150
  3043  08D9  00A8               	movwf	??___xxtofl
  3044  08DA  0828               	movf	??___xxtofl,w
  3045  08DB  00AD               	movwf	___xxtofl@exp
  3046  08DC  28EA               	goto	l2447
  3047  08DD                     l2445:
  3048  08DD  3001               	movlw	1
  3049  08DE  00A8               	movwf	??___xxtofl
  3050  08DF  0828               	movf	??___xxtofl,w
  3051  08E0  07AD               	addwf	___xxtofl@exp,f
  3052  08E1  3001               	movlw	1
  3053  08E2                     u3435:
  3054  08E2  1003               	clrc
  3055  08E3  0CB1               	rrf	___xxtofl@arg+3,f
  3056  08E4  0CB0               	rrf	___xxtofl@arg+2,f
  3057  08E5  0CAF               	rrf	___xxtofl@arg+1,f
  3058  08E6  0CAE               	rrf	___xxtofl@arg,f
  3059  08E7  3EFF               	addlw	-1
  3060  08E8  1D03               	skipz
  3061  08E9  28E2               	goto	u3435
  3062  08EA                     l2447:
  3063  08EA  30FE               	movlw	254
  3064  08EB  0531               	andwf	___xxtofl@arg+3,w
  3065  08EC  1D03               	btfss	3,2
  3066  08ED  28EF               	goto	u3441
  3067  08EE  28F0               	goto	u3440
  3068  08EF                     u3441:
  3069  08EF  28DD               	goto	l2445
  3070  08F0                     u3440:
  3071  08F0  290C               	goto	l714
  3072  08F1                     l2449:
  3073  08F1  3001               	movlw	1
  3074  08F2  00A8               	movwf	??___xxtofl
  3075  08F3  0828               	movf	??___xxtofl,w
  3076  08F4  07AD               	addwf	___xxtofl@exp,f
  3077  08F5                     l2451:
  3078  08F5  3001               	movlw	1
  3079  08F6  07AE               	addwf	___xxtofl@arg,f
  3080  08F7  3000               	movlw	0
  3081  08F8  1803               	skipnc
  3082  08F9  3001               	movlw	1
  3083  08FA  07AF               	addwf	___xxtofl@arg+1,f
  3084  08FB  3000               	movlw	0
  3085  08FC  1803               	skipnc
  3086  08FD  3001               	movlw	1
  3087  08FE  07B0               	addwf	___xxtofl@arg+2,f
  3088  08FF  3000               	movlw	0
  3089  0900  1803               	skipnc
  3090  0901  3001               	movlw	1
  3091  0902  07B1               	addwf	___xxtofl@arg+3,f
  3092  0903                     l2453:
  3093  0903  3001               	movlw	1
  3094  0904                     u3455:
  3095  0904  1003               	clrc
  3096  0905  0CB1               	rrf	___xxtofl@arg+3,f
  3097  0906  0CB0               	rrf	___xxtofl@arg+2,f
  3098  0907  0CAF               	rrf	___xxtofl@arg+1,f
  3099  0908  0CAE               	rrf	___xxtofl@arg,f
  3100  0909  3EFF               	addlw	-1
  3101  090A  1D03               	skipz
  3102  090B  2904               	goto	u3455
  3103  090C                     l714:
  3104  090C  30FF               	movlw	255
  3105  090D  0531               	andwf	___xxtofl@arg+3,w
  3106  090E  1D03               	btfss	3,2
  3107  090F  2911               	goto	u3461
  3108  0910  2912               	goto	u3460
  3109  0911                     u3461:
  3110  0911  28F1               	goto	l2449
  3111  0912                     u3460:
  3112  0912  291E               	goto	l2457
  3113  0913                     l2455:
  3114  0913  3001               	movlw	1
  3115  0914  02AD               	subwf	___xxtofl@exp,f
  3116  0915  3001               	movlw	1
  3117  0916  00A8               	movwf	??___xxtofl
  3118  0917                     u3475:
  3119  0917  1003               	clrc
  3120  0918  0DAE               	rlf	___xxtofl@arg,f
  3121  0919  0DAF               	rlf	___xxtofl@arg+1,f
  3122  091A  0DB0               	rlf	___xxtofl@arg+2,f
  3123  091B  0DB1               	rlf	___xxtofl@arg+3,f
  3124  091C  0BA8               	decfsz	??___xxtofl,f
  3125  091D  2917               	goto	u3475
  3126  091E                     l2457:
  3127  091E  1BB0               	btfsc	___xxtofl@arg+2,7
  3128  091F  2921               	goto	u3481
  3129  0920  2922               	goto	u3480
  3130  0921                     u3481:
  3131  0921  2928               	goto	l721
  3132  0922                     u3480:
  3133  0922                     l2459:
  3134  0922  3002               	movlw	2
  3135  0923  022D               	subwf	___xxtofl@exp,w
  3136  0924  1803               	skipnc
  3137  0925  2927               	goto	u3491
  3138  0926  2928               	goto	u3490
  3139  0927                     u3491:
  3140  0927  2913               	goto	l2455
  3141  0928                     u3490:
  3142  0928                     l721:
  3143  0928  182D               	btfsc	___xxtofl@exp,0
  3144  0929  292B               	goto	u3501
  3145  092A  292C               	goto	u3500
  3146  092B                     u3501:
  3147  092B  2934               	goto	l722
  3148  092C                     u3500:
  3149  092C                     l2461:
  3150  092C  30FF               	movlw	255
  3151  092D  05AE               	andwf	___xxtofl@arg,f
  3152  092E  30FF               	movlw	255
  3153  092F  05AF               	andwf	___xxtofl@arg+1,f
  3154  0930  307F               	movlw	127
  3155  0931  05B0               	andwf	___xxtofl@arg+2,f
  3156  0932  30FF               	movlw	255
  3157  0933  05B1               	andwf	___xxtofl@arg+3,f
  3158  0934                     l722:
  3159  0934  1003               	clrc
  3160  0935  0CAD               	rrf	___xxtofl@exp,f
  3161  0936                     l2463:
  3162  0936  082D               	movf	___xxtofl@exp,w
  3163  0937  00A8               	movwf	??___xxtofl
  3164  0938  01A9               	clrf	??___xxtofl+1
  3165  0939  01AA               	clrf	??___xxtofl+2
  3166  093A  01AB               	clrf	??___xxtofl+3
  3167  093B  3018               	movlw	24
  3168  093C                     u3515:
  3169  093C  1003               	clrc
  3170  093D  0DA8               	rlf	??___xxtofl,f
  3171  093E  0DA9               	rlf	??___xxtofl+1,f
  3172  093F  0DAA               	rlf	??___xxtofl+2,f
  3173  0940  0DAB               	rlf	??___xxtofl+3,f
  3174  0941                     u3510:
  3175  0941  3EFF               	addlw	-1
  3176  0942  1D03               	skipz
  3177  0943  293C               	goto	u3515
  3178  0944  0828               	movf	??___xxtofl,w
  3179  0945  04AE               	iorwf	___xxtofl@arg,f
  3180  0946  0829               	movf	??___xxtofl+1,w
  3181  0947  04AF               	iorwf	___xxtofl@arg+1,f
  3182  0948  082A               	movf	??___xxtofl+2,w
  3183  0949  04B0               	iorwf	___xxtofl@arg+2,f
  3184  094A  082B               	movf	??___xxtofl+3,w
  3185  094B  04B1               	iorwf	___xxtofl@arg+3,f
  3186  094C                     l2465:
  3187  094C  082C               	movf	___xxtofl@sign,w
  3188  094D  1903               	btfsc	3,2
  3189  094E  2950               	goto	u3521
  3190  094F  2951               	goto	u3520
  3191  0950                     u3521:
  3192  0950  2956               	goto	l2471
  3193  0951                     u3520:
  3194  0951                     l2467:
  3195  0951  1FA7               	btfss	___xxtofl@val+3,7
  3196  0952  2954               	goto	u3531
  3197  0953  2955               	goto	u3530
  3198  0954                     u3531:
  3199  0954  2956               	goto	l2471
  3200  0955                     u3530:
  3201  0955                     l2469:
  3202  0955  17B1               	bsf	___xxtofl@arg+3,7
  3203  0956                     l2471:
  3204  0956  0831               	movf	___xxtofl@arg+3,w
  3205  0957  00A7               	movwf	?___xxtofl+3
  3206  0958  0830               	movf	___xxtofl@arg+2,w
  3207  0959  00A6               	movwf	?___xxtofl+2
  3208  095A  082F               	movf	___xxtofl@arg+1,w
  3209  095B  00A5               	movwf	?___xxtofl+1
  3210  095C  082E               	movf	___xxtofl@arg,w
  3211  095D  00A4               	movwf	?___xxtofl
  3212  095E                     l710:
  3213  095E  0008               	return
  3214  095F                     __end_of___xxtofl:
  3215                           
  3216                           	psect	text6
  3217  1631                     __ptext6:	
  3218 ;; *************** function ___wmul *****************
  3219 ;; Defined at:
  3220 ;;		line 15 in file "C:\Program Files\Microchip\xc8\v2.31\pic\sources\c90\common\Umul16.c"
  3221 ;; Parameters:    Size  Location     Type
  3222 ;;  multiplier      2    0[BANK0 ] unsigned int 
  3223 ;;  multiplicand    2    2[BANK0 ] unsigned int 
  3224 ;; Auto vars:     Size  Location     Type
  3225 ;;  product         2   11[COMMON] unsigned int 
  3226 ;; Return value:  Size  Location     Type
  3227 ;;                  2    0[BANK0 ] unsigned int 
  3228 ;; Registers used:
  3229 ;;		wreg, status,2, status,0
  3230 ;; Tracked objects:
  3231 ;;		On entry : 0/0
  3232 ;;		On exit  : 0/0
  3233 ;;		Unchanged: 0/0
  3234 ;; Data sizes:     COMMON   BANK0   BANK1   BANK3   BANK2
  3235 ;;      Params:         0       4       0       0       0
  3236 ;;      Locals:         2       0       0       0       0
  3237 ;;      Temps:          0       0       0       0       0
  3238 ;;      Totals:         2       4       0       0       0
  3239 ;;Total ram usage:        6 bytes
  3240 ;; Hardware stack levels used:    1
  3241 ;; This function calls:
  3242 ;;		Nothing
  3243 ;; This function is called by:
  3244 ;;		_convert
  3245 ;; This function uses a non-reentrant model
  3246 ;;
  3247                           
  3248                           
  3249                           ;psect for function ___wmul
  3250  1631                     ___wmul:
  3251  1631                     l2029:	
  3252                           ;incstack = 0
  3253                           ; Regs used in ___wmul: [wreg+status,2+status,0]
  3254                           
  3255  1631  01FB               	clrf	___wmul@product
  3256  1632  01FC               	clrf	___wmul@product+1
  3257  1633                     l2031:
  3258  1633  1283               	bcf	3,5	;RP0=0, select bank0
  3259  1634  1303               	bcf	3,6	;RP1=0, select bank0
  3260  1635  1C20               	btfss	___wmul@multiplier,0
  3261  1636  2E38               	goto	u2431
  3262  1637  2E39               	goto	u2430
  3263  1638                     u2431:
  3264  1638  2E3F               	goto	l275
  3265  1639                     u2430:
  3266  1639                     l2033:
  3267  1639  0822               	movf	___wmul@multiplicand,w
  3268  163A  07FB               	addwf	___wmul@product,f
  3269  163B  1803               	skipnc
  3270  163C  0AFC               	incf	___wmul@product+1,f
  3271  163D  0823               	movf	___wmul@multiplicand+1,w
  3272  163E  07FC               	addwf	___wmul@product+1,f
  3273  163F                     l275:
  3274  163F  3001               	movlw	1
  3275  1640                     u2445:
  3276  1640  1003               	clrc
  3277  1641  0DA2               	rlf	___wmul@multiplicand,f
  3278  1642  0DA3               	rlf	___wmul@multiplicand+1,f
  3279  1643  3EFF               	addlw	-1
  3280  1644  1D03               	skipz
  3281  1645  2E40               	goto	u2445
  3282  1646                     l2035:
  3283  1646  3001               	movlw	1
  3284  1647                     u2455:
  3285  1647  1003               	clrc
  3286  1648  0CA1               	rrf	___wmul@multiplier+1,f
  3287  1649  0CA0               	rrf	___wmul@multiplier,f
  3288  164A  3EFF               	addlw	-1
  3289  164B  1D03               	skipz
  3290  164C  2E47               	goto	u2455
  3291  164D                     l2037:
  3292  164D  0820               	movf	___wmul@multiplier,w
  3293  164E  0421               	iorwf	___wmul@multiplier+1,w
  3294  164F  1D03               	btfss	3,2
  3295  1650  2E52               	goto	u2461
  3296  1651  2E53               	goto	u2460
  3297  1652                     u2461:
  3298  1652  2E33               	goto	l2031
  3299  1653                     u2460:
  3300  1653                     l2039:
  3301  1653  087C               	movf	___wmul@product+1,w
  3302  1654  00A1               	movwf	?___wmul+1
  3303  1655  087B               	movf	___wmul@product,w
  3304  1656  00A0               	movwf	?___wmul
  3305  1657                     l277:
  3306  1657  0008               	return
  3307  1658                     __end_of___wmul:
  3308                           
  3309                           	psect	text7
  3310  0020                     __ptext7:	
  3311 ;; *************** function ___fltol *****************
  3312 ;; Defined at:
  3313 ;;		line 43 in file "C:\Program Files\Microchip\xc8\v2.31\pic\sources\c90\common\fltol.c"
  3314 ;; Parameters:    Size  Location     Type
  3315 ;;  f1              4    0[COMMON] unsigned int 
  3316 ;; Auto vars:     Size  Location     Type
  3317 ;;  exp1            1   10[COMMON] unsigned char 
  3318 ;;  sign1           1    9[COMMON] unsigned char 
  3319 ;; Return value:  Size  Location     Type
  3320 ;;                  4    0[COMMON] long 
  3321 ;; Registers used:
  3322 ;;		wreg, status,2, status,0
  3323 ;; Tracked objects:
  3324 ;;		On entry : 0/0
  3325 ;;		On exit  : 0/0
  3326 ;;		Unchanged: 0/0
  3327 ;; Data sizes:     COMMON   BANK0   BANK1   BANK3   BANK2
  3328 ;;      Params:         4       0       0       0       0
  3329 ;;      Locals:         2       0       0       0       0
  3330 ;;      Temps:          5       0       0       0       0
  3331 ;;      Totals:        11       0       0       0       0
  3332 ;;Total ram usage:       11 bytes
  3333 ;; Hardware stack levels used:    1
  3334 ;; This function calls:
  3335 ;;		Nothing
  3336 ;; This function is called by:
  3337 ;;		_convert
  3338 ;; This function uses a non-reentrant model
  3339 ;;
  3340                           
  3341                           
  3342                           ;psect for function ___fltol
  3343  0020                     ___fltol:
  3344  0020                     l2107:	
  3345                           ;incstack = 0
  3346                           ; Regs used in ___fltol: [wreg+status,2+status,0]
  3347                           
  3348  0020  1003               	clrc
  3349  0021  0D72               	rlf	___fltol@f1+2,w
  3350  0022  0D73               	rlf	___fltol@f1+3,w
  3351  0023  00F4               	movwf	??___fltol
  3352  0024  0874               	movf	??___fltol,w
  3353  0025  00FA               	movwf	___fltol@exp1
  3354  0026  087A               	movf	___fltol@exp1,w
  3355  0027  1D03               	btfss	3,2
  3356  0028  282A               	goto	u2641
  3357  0029  282B               	goto	u2640
  3358  002A                     u2641:
  3359  002A  2834               	goto	l2113
  3360  002B                     u2640:
  3361  002B                     l2109:
  3362  002B  3000               	movlw	0
  3363  002C  00F3               	movwf	?___fltol+3
  3364  002D  3000               	movlw	0
  3365  002E  00F2               	movwf	?___fltol+2
  3366  002F  3000               	movlw	0
  3367  0030  00F1               	movwf	?___fltol+1
  3368  0031  3000               	movlw	0
  3369  0032  00F0               	movwf	?___fltol
  3370  0033  2899               	goto	l461
  3371  0034                     l2113:
  3372  0034  0870               	movf	___fltol@f1,w
  3373  0035  00F4               	movwf	??___fltol
  3374  0036  0871               	movf	___fltol@f1+1,w
  3375  0037  00F5               	movwf	??___fltol+1
  3376  0038  0872               	movf	___fltol@f1+2,w
  3377  0039  00F6               	movwf	??___fltol+2
  3378  003A  0873               	movf	___fltol@f1+3,w
  3379  003B  00F7               	movwf	??___fltol+3
  3380  003C  301F               	movlw	31
  3381  003D                     u2655:
  3382  003D  1003               	clrc
  3383  003E  0CF7               	rrf	??___fltol+3,f
  3384  003F  0CF6               	rrf	??___fltol+2,f
  3385  0040  0CF5               	rrf	??___fltol+1,f
  3386  0041  0CF4               	rrf	??___fltol,f
  3387  0042                     u2650:
  3388  0042  3EFF               	addlw	-1
  3389  0043  1D03               	skipz
  3390  0044  283D               	goto	u2655
  3391  0045  0874               	movf	??___fltol,w
  3392  0046  00F8               	movwf	??___fltol+4
  3393  0047  0878               	movf	??___fltol+4,w
  3394  0048  00F9               	movwf	___fltol@sign1
  3395  0049                     l2115:
  3396  0049  17F2               	bsf	___fltol@f1+2,7
  3397  004A                     l2117:
  3398  004A  30FF               	movlw	255
  3399  004B  05F0               	andwf	___fltol@f1,f
  3400  004C  30FF               	movlw	255
  3401  004D  05F1               	andwf	___fltol@f1+1,f
  3402  004E  30FF               	movlw	255
  3403  004F  05F2               	andwf	___fltol@f1+2,f
  3404  0050  3000               	movlw	0
  3405  0051  05F3               	andwf	___fltol@f1+3,f
  3406  0052                     l2119:
  3407  0052  3096               	movlw	150
  3408  0053  02FA               	subwf	___fltol@exp1,f
  3409  0054                     l2121:
  3410  0054  1FFA               	btfss	___fltol@exp1,7
  3411  0055  2857               	goto	u2661
  3412  0056  2858               	goto	u2660
  3413  0057                     u2661:
  3414  0057  2872               	goto	l2131
  3415  0058                     u2660:
  3416  0058                     l2123:
  3417  0058  087A               	movf	___fltol@exp1,w
  3418  0059  3A80               	xorlw	128
  3419  005A  3E97               	addlw	151
  3420  005B  1803               	skipnc
  3421  005C  285E               	goto	u2671
  3422  005D  285F               	goto	u2670
  3423  005E                     u2671:
  3424  005E  2860               	goto	l2129
  3425  005F                     u2670:
  3426  005F  282B               	goto	l2109
  3427  0060                     l2129:
  3428  0060  3001               	movlw	1
  3429  0061                     u2685:
  3430  0061  1003               	clrc
  3431  0062  0CF3               	rrf	___fltol@f1+3,f
  3432  0063  0CF2               	rrf	___fltol@f1+2,f
  3433  0064  0CF1               	rrf	___fltol@f1+1,f
  3434  0065  0CF0               	rrf	___fltol@f1,f
  3435  0066  3EFF               	addlw	-1
  3436  0067  1D03               	skipz
  3437  0068  2861               	goto	u2685
  3438  0069  3001               	movlw	1
  3439  006A  00F4               	movwf	??___fltol
  3440  006B  0874               	movf	??___fltol,w
  3441  006C  07FA               	addwf	___fltol@exp1,f
  3442  006D  1D03               	btfss	3,2
  3443  006E  2870               	goto	u2691
  3444  006F  2871               	goto	u2690
  3445  0070                     u2691:
  3446  0070  2860               	goto	l2129
  3447  0071                     u2690:
  3448  0071  2889               	goto	l2139
  3449  0072                     l2131:
  3450  0072  3020               	movlw	32
  3451  0073  027A               	subwf	___fltol@exp1,w
  3452  0074  1C03               	skipc
  3453  0075  2877               	goto	u2701
  3454  0076  2878               	goto	u2700
  3455  0077                     u2701:
  3456  0077  2884               	goto	l468
  3457  0078                     u2700:
  3458  0078  282B               	goto	l2109
  3459  0079                     l2137:
  3460  0079  3001               	movlw	1
  3461  007A  00F4               	movwf	??___fltol
  3462  007B                     u2715:
  3463  007B  1003               	clrc
  3464  007C  0DF0               	rlf	___fltol@f1,f
  3465  007D  0DF1               	rlf	___fltol@f1+1,f
  3466  007E  0DF2               	rlf	___fltol@f1+2,f
  3467  007F  0DF3               	rlf	___fltol@f1+3,f
  3468  0080  0BF4               	decfsz	??___fltol,f
  3469  0081  287B               	goto	u2715
  3470  0082  3001               	movlw	1
  3471  0083  02FA               	subwf	___fltol@exp1,f
  3472  0084                     l468:
  3473  0084  087A               	movf	___fltol@exp1,w
  3474  0085  1D03               	btfss	3,2
  3475  0086  2888               	goto	u2721
  3476  0087  2889               	goto	u2720
  3477  0088                     u2721:
  3478  0088  2879               	goto	l2137
  3479  0089                     u2720:
  3480  0089                     l2139:
  3481  0089  0879               	movf	___fltol@sign1,w
  3482  008A  1903               	btfsc	3,2
  3483  008B  288D               	goto	u2731
  3484  008C  288E               	goto	u2730
  3485  008D                     u2731:
  3486  008D  2899               	goto	l471
  3487  008E                     u2730:
  3488  008E                     l2141:
  3489  008E  09F0               	comf	___fltol@f1,f
  3490  008F  09F1               	comf	___fltol@f1+1,f
  3491  0090  09F2               	comf	___fltol@f1+2,f
  3492  0091  09F3               	comf	___fltol@f1+3,f
  3493  0092  0AF0               	incf	___fltol@f1,f
  3494  0093  1903               	skipnz
  3495  0094  0AF1               	incf	___fltol@f1+1,f
  3496  0095  1903               	skipnz
  3497  0096  0AF2               	incf	___fltol@f1+2,f
  3498  0097  1903               	skipnz
  3499  0098  0AF3               	incf	___fltol@f1+3,f
  3500  0099                     l471:
  3501  0099                     l461:
  3502  0099  0008               	return
  3503  009A                     __end_of___fltol:
  3504                           
  3505                           	psect	text8
  3506  15E6                     __ptext8:	
  3507 ;; *************** function ___flsub *****************
  3508 ;; Defined at:
  3509 ;;		line 242 in file "C:\Program Files\Microchip\xc8\v2.31\pic\sources\c90\common\sprcadd.c"
  3510 ;; Parameters:    Size  Location     Type
  3511 ;;  a               4   18[BANK0 ] long 
  3512 ;;  b               4   22[BANK0 ] long 
  3513 ;; Auto vars:     Size  Location     Type
  3514 ;;		None
  3515 ;; Return value:  Size  Location     Type
  3516 ;;                  4   18[BANK0 ] long 
  3517 ;; Registers used:
  3518 ;;		wreg, status,2, status,0, btemp+1, pclath, cstack
  3519 ;; Tracked objects:
  3520 ;;		On entry : 0/0
  3521 ;;		On exit  : 0/0
  3522 ;;		Unchanged: 0/0
  3523 ;; Data sizes:     COMMON   BANK0   BANK1   BANK3   BANK2
  3524 ;;      Params:         0       8       0       0       0
  3525 ;;      Locals:         0       0       0       0       0
  3526 ;;      Temps:          0       0       0       0       0
  3527 ;;      Totals:         0       8       0       0       0
  3528 ;;Total ram usage:        8 bytes
  3529 ;; Hardware stack levels used:    1
  3530 ;; Hardware stack levels required when called:    1
  3531 ;; This function calls:
  3532 ;;		___fladd
  3533 ;; This function is called by:
  3534 ;;		_convert
  3535 ;; This function uses a non-reentrant model
  3536 ;;
  3537                           
  3538                           
  3539                           ;psect for function ___flsub
  3540  15E6                     ___flsub:
  3541  15E6                     l2143:	
  3542                           ;incstack = 0
  3543                           ; Regs used in ___flsub: [wreg+status,2+status,0+btemp+1+pclath+cstack]
  3544                           
  3545  15E6  3080               	movlw	128
  3546  15E7  1283               	bcf	3,5	;RP0=0, select bank0
  3547  15E8  1303               	bcf	3,6	;RP1=0, select bank0
  3548  15E9  06B5               	xorwf	___flsub@a+3,f
  3549  15EA                     l2145:
  3550  15EA  0839               	movf	___flsub@b+3,w
  3551  15EB  00F3               	movwf	___fladd@b+3
  3552  15EC  0838               	movf	___flsub@b+2,w
  3553  15ED  00F2               	movwf	___fladd@b+2
  3554  15EE  0837               	movf	___flsub@b+1,w
  3555  15EF  00F1               	movwf	___fladd@b+1
  3556  15F0  0836               	movf	___flsub@b,w
  3557  15F1  00F0               	movwf	___fladd@b
  3558  15F2  0835               	movf	___flsub@a+3,w
  3559  15F3  00F7               	movwf	___fladd@a+3
  3560  15F4  0834               	movf	___flsub@a+2,w
  3561  15F5  00F6               	movwf	___fladd@a+2
  3562  15F6  0833               	movf	___flsub@a+1,w
  3563  15F7  00F5               	movwf	___fladd@a+1
  3564  15F8  0832               	movf	___flsub@a,w
  3565  15F9  00F4               	movwf	___fladd@a
  3566  15FA  120A  158A  2568  160A  118A  	fcall	___fladd
  3567  15FF  0873               	movf	?___fladd+3,w
  3568  1600  1283               	bcf	3,5	;RP0=0, select bank0
  3569  1601  1303               	bcf	3,6	;RP1=0, select bank0
  3570  1602  00B5               	movwf	?___flsub+3
  3571  1603  0872               	movf	?___fladd+2,w
  3572  1604  00B4               	movwf	?___flsub+2
  3573  1605  0871               	movf	?___fladd+1,w
  3574  1606  00B3               	movwf	?___flsub+1
  3575  1607  0870               	movf	?___fladd,w
  3576  1608  00B2               	movwf	?___flsub
  3577  1609                     l614:
  3578  1609  0008               	return
  3579  160A                     __end_of___flsub:
  3580                           
  3581                           	psect	text9
  3582  0D68                     __ptext9:	
  3583 ;; *************** function ___fladd *****************
  3584 ;; Defined at:
  3585 ;;		line 10 in file "C:\Program Files\Microchip\xc8\v2.31\pic\sources\c90\common\sprcadd.c"
  3586 ;; Parameters:    Size  Location     Type
  3587 ;;  b               4    0[COMMON] long 
  3588 ;;  a               4    4[COMMON] long 
  3589 ;; Auto vars:     Size  Location     Type
  3590 ;;  grs             1   11[COMMON] unsigned char 
  3591 ;;  bexp            1   10[COMMON] unsigned char 
  3592 ;;  aexp            1    9[COMMON] unsigned char 
  3593 ;;  signs           1    8[COMMON] unsigned char 
  3594 ;; Return value:  Size  Location     Type
  3595 ;;                  4    0[COMMON] unsigned char 
  3596 ;; Registers used:
  3597 ;;		wreg, status,2, status,0, btemp+1
  3598 ;; Tracked objects:
  3599 ;;		On entry : 0/0
  3600 ;;		On exit  : 0/0
  3601 ;;		Unchanged: 0/0
  3602 ;; Data sizes:     COMMON   BANK0   BANK1   BANK3   BANK2
  3603 ;;      Params:         8       0       0       0       0
  3604 ;;      Locals:         4       0       0       0       0
  3605 ;;      Temps:          0       8       0       0       0
  3606 ;;      Totals:        12       8       0       0       0
  3607 ;;Total ram usage:       20 bytes
  3608 ;; Hardware stack levels used:    1
  3609 ;; This function calls:
  3610 ;;		Nothing
  3611 ;; This function is called by:
  3612 ;;		___flsub
  3613 ;; This function uses a non-reentrant model
  3614 ;;
  3615                           
  3616                           
  3617                           ;psect for function ___fladd
  3618  0D68                     ___fladd:
  3619  0D68                     l1785:	
  3620                           ;incstack = 0
  3621                           ; Regs used in ___fladd: [wreg+status,2+status,0+btemp+1]
  3622                           
  3623  0D68  0873               	movf	___fladd@b+3,w
  3624  0D69  3980               	andlw	128
  3625  0D6A  1283               	bcf	3,5	;RP0=0, select bank0
  3626  0D6B  1303               	bcf	3,6	;RP1=0, select bank0
  3627  0D6C  00A0               	movwf	??___fladd
  3628  0D6D  0820               	movf	??___fladd,w
  3629  0D6E  00F8               	movwf	___fladd@signs
  3630  0D6F                     l1787:
  3631  0D6F  0873               	movf	___fladd@b+3,w
  3632  0D70  00A0               	movwf	??___fladd
  3633  0D71  0720               	addwf	??___fladd,w
  3634  0D72  00A1               	movwf	??___fladd+1
  3635  0D73  0821               	movf	??___fladd+1,w
  3636  0D74  00FA               	movwf	___fladd@bexp
  3637  0D75                     l1789:
  3638  0D75  1FF2               	btfss	___fladd@b+2,7
  3639  0D76  2D78               	goto	u1911
  3640  0D77  2D79               	goto	u1910
  3641  0D78                     u1911:
  3642  0D78  2D7A               	goto	l1793
  3643  0D79                     u1910:
  3644  0D79                     l1791:
  3645  0D79  147A               	bsf	___fladd@bexp,0
  3646  0D7A                     l1793:
  3647  0D7A  087A               	movf	___fladd@bexp,w
  3648  0D7B  1903               	btfsc	3,2
  3649  0D7C  2D7E               	goto	u1921
  3650  0D7D  2D7F               	goto	u1920
  3651  0D7E                     u1921:
  3652  0D7E  2D8F               	goto	l1803
  3653  0D7F                     u1920:
  3654  0D7F                     l1795:
  3655  0D7F  0A7A               	incf	___fladd@bexp,w
  3656  0D80  1D03               	btfss	3,2
  3657  0D81  2D83               	goto	u1931
  3658  0D82  2D84               	goto	u1930
  3659  0D83                     u1931:
  3660  0D83  2D8C               	goto	l1799
  3661  0D84                     u1930:
  3662  0D84                     l1797:
  3663  0D84  3000               	movlw	0
  3664  0D85  00F3               	movwf	___fladd@b+3
  3665  0D86  3000               	movlw	0
  3666  0D87  00F2               	movwf	___fladd@b+2
  3667  0D88  3000               	movlw	0
  3668  0D89  00F1               	movwf	___fladd@b+1
  3669  0D8A  3000               	movlw	0
  3670  0D8B  00F0               	movwf	___fladd@b
  3671  0D8C                     l1799:
  3672  0D8C  17F2               	bsf	___fladd@b+2,7
  3673  0D8D                     l1801:
  3674  0D8D  01F3               	clrf	___fladd@b+3
  3675  0D8E  2D97               	goto	l1805
  3676  0D8F                     l1803:
  3677  0D8F  3000               	movlw	0
  3678  0D90  00F3               	movwf	___fladd@b+3
  3679  0D91  3000               	movlw	0
  3680  0D92  00F2               	movwf	___fladd@b+2
  3681  0D93  3000               	movlw	0
  3682  0D94  00F1               	movwf	___fladd@b+1
  3683  0D95  3000               	movlw	0
  3684  0D96  00F0               	movwf	___fladd@b
  3685  0D97                     l1805:
  3686  0D97  0877               	movf	___fladd@a+3,w
  3687  0D98  3980               	andlw	128
  3688  0D99  00A0               	movwf	??___fladd
  3689  0D9A  0820               	movf	??___fladd,w
  3690  0D9B  00F9               	movwf	___fladd@aexp
  3691  0D9C                     l1807:
  3692  0D9C  0879               	movf	___fladd@aexp,w
  3693  0D9D  0678               	xorwf	___fladd@signs,w
  3694  0D9E  1903               	skipnz
  3695  0D9F  2DA1               	goto	u1941
  3696  0DA0  2DA2               	goto	u1940
  3697  0DA1                     u1941:
  3698  0DA1  2DA3               	goto	l1811
  3699  0DA2                     u1940:
  3700  0DA2                     l1809:
  3701  0DA2  1778               	bsf	___fladd@signs,6
  3702  0DA3                     l1811:
  3703  0DA3  0877               	movf	___fladd@a+3,w
  3704  0DA4  00A0               	movwf	??___fladd
  3705  0DA5  0720               	addwf	??___fladd,w
  3706  0DA6  00A1               	movwf	??___fladd+1
  3707  0DA7  0821               	movf	??___fladd+1,w
  3708  0DA8  00F9               	movwf	___fladd@aexp
  3709  0DA9                     l1813:
  3710  0DA9  1FF6               	btfss	___fladd@a+2,7
  3711  0DAA  2DAC               	goto	u1951
  3712  0DAB  2DAD               	goto	u1950
  3713  0DAC                     u1951:
  3714  0DAC  2DAE               	goto	l1817
  3715  0DAD                     u1950:
  3716  0DAD                     l1815:
  3717  0DAD  1479               	bsf	___fladd@aexp,0
  3718  0DAE                     l1817:
  3719  0DAE  0879               	movf	___fladd@aexp,w
  3720  0DAF  1903               	btfsc	3,2
  3721  0DB0  2DB2               	goto	u1961
  3722  0DB1  2DB3               	goto	u1960
  3723  0DB2                     u1961:
  3724  0DB2  2DC3               	goto	l1827
  3725  0DB3                     u1960:
  3726  0DB3                     l1819:
  3727  0DB3  0A79               	incf	___fladd@aexp,w
  3728  0DB4  1D03               	btfss	3,2
  3729  0DB5  2DB7               	goto	u1971
  3730  0DB6  2DB8               	goto	u1970
  3731  0DB7                     u1971:
  3732  0DB7  2DC0               	goto	l1823
  3733  0DB8                     u1970:
  3734  0DB8                     l1821:
  3735  0DB8  3000               	movlw	0
  3736  0DB9  00F7               	movwf	___fladd@a+3
  3737  0DBA  3000               	movlw	0
  3738  0DBB  00F6               	movwf	___fladd@a+2
  3739  0DBC  3000               	movlw	0
  3740  0DBD  00F5               	movwf	___fladd@a+1
  3741  0DBE  3000               	movlw	0
  3742  0DBF  00F4               	movwf	___fladd@a
  3743  0DC0                     l1823:
  3744  0DC0  17F6               	bsf	___fladd@a+2,7
  3745  0DC1                     l1825:
  3746  0DC1  01F7               	clrf	___fladd@a+3
  3747  0DC2  2DCB               	goto	l568
  3748  0DC3                     l1827:
  3749  0DC3  3000               	movlw	0
  3750  0DC4  00F7               	movwf	___fladd@a+3
  3751  0DC5  3000               	movlw	0
  3752  0DC6  00F6               	movwf	___fladd@a+2
  3753  0DC7  3000               	movlw	0
  3754  0DC8  00F5               	movwf	___fladd@a+1
  3755  0DC9  3000               	movlw	0
  3756  0DCA  00F4               	movwf	___fladd@a
  3757  0DCB                     l568:
  3758  0DCB  087A               	movf	___fladd@bexp,w
  3759  0DCC  0279               	subwf	___fladd@aexp,w
  3760  0DCD  1803               	skipnc
  3761  0DCE  2DD0               	goto	u1981
  3762  0DCF  2DD1               	goto	u1980
  3763  0DD0                     u1981:
  3764  0DD0  2E15               	goto	l1863
  3765  0DD1                     u1980:
  3766  0DD1                     l1829:
  3767  0DD1  1F78               	btfss	___fladd@signs,6
  3768  0DD2  2DD4               	goto	u1991
  3769  0DD3  2DD5               	goto	u1990
  3770  0DD4                     u1991:
  3771  0DD4  2DD9               	goto	l1833
  3772  0DD5                     u1990:
  3773  0DD5                     l1831:
  3774  0DD5  3080               	movlw	128
  3775  0DD6  00A0               	movwf	??___fladd
  3776  0DD7  0820               	movf	??___fladd,w
  3777  0DD8  06F8               	xorwf	___fladd@signs,f
  3778  0DD9                     l1833:
  3779  0DD9  087A               	movf	___fladd@bexp,w
  3780  0DDA  00A0               	movwf	??___fladd
  3781  0DDB  0820               	movf	??___fladd,w
  3782  0DDC  00FB               	movwf	___fladd@grs
  3783  0DDD                     l1835:
  3784  0DDD  0879               	movf	___fladd@aexp,w
  3785  0DDE  00A0               	movwf	??___fladd
  3786  0DDF  0820               	movf	??___fladd,w
  3787  0DE0  00FA               	movwf	___fladd@bexp
  3788  0DE1                     l1837:
  3789  0DE1  087B               	movf	___fladd@grs,w
  3790  0DE2  00A0               	movwf	??___fladd
  3791  0DE3  0820               	movf	??___fladd,w
  3792  0DE4  00F9               	movwf	___fladd@aexp
  3793  0DE5                     l1839:
  3794  0DE5  0870               	movf	___fladd@b,w
  3795  0DE6  00A0               	movwf	??___fladd
  3796  0DE7  0820               	movf	??___fladd,w
  3797  0DE8  00FB               	movwf	___fladd@grs
  3798  0DE9                     l1841:
  3799  0DE9  0874               	movf	___fladd@a,w
  3800  0DEA  00A0               	movwf	??___fladd
  3801  0DEB  0820               	movf	??___fladd,w
  3802  0DEC  00F0               	movwf	___fladd@b
  3803  0DED                     l1843:
  3804  0DED  087B               	movf	___fladd@grs,w
  3805  0DEE  00A0               	movwf	??___fladd
  3806  0DEF  0820               	movf	??___fladd,w
  3807  0DF0  00F4               	movwf	___fladd@a
  3808  0DF1                     l1845:
  3809  0DF1  0871               	movf	___fladd@b+1,w
  3810  0DF2  00A0               	movwf	??___fladd
  3811  0DF3  0820               	movf	??___fladd,w
  3812  0DF4  00FB               	movwf	___fladd@grs
  3813  0DF5                     l1847:
  3814  0DF5  0875               	movf	___fladd@a+1,w
  3815  0DF6  00A0               	movwf	??___fladd
  3816  0DF7  0820               	movf	??___fladd,w
  3817  0DF8  00F1               	movwf	___fladd@b+1
  3818  0DF9                     l1849:
  3819  0DF9  087B               	movf	___fladd@grs,w
  3820  0DFA  00A0               	movwf	??___fladd
  3821  0DFB  0820               	movf	??___fladd,w
  3822  0DFC  00F5               	movwf	___fladd@a+1
  3823  0DFD                     l1851:
  3824  0DFD  0872               	movf	___fladd@b+2,w
  3825  0DFE  00A0               	movwf	??___fladd
  3826  0DFF  0820               	movf	??___fladd,w
  3827  0E00  00FB               	movwf	___fladd@grs
  3828  0E01                     l1853:
  3829  0E01  0876               	movf	___fladd@a+2,w
  3830  0E02  00A0               	movwf	??___fladd
  3831  0E03  0820               	movf	??___fladd,w
  3832  0E04  00F2               	movwf	___fladd@b+2
  3833  0E05                     l1855:
  3834  0E05  087B               	movf	___fladd@grs,w
  3835  0E06  00A0               	movwf	??___fladd
  3836  0E07  0820               	movf	??___fladd,w
  3837  0E08  00F6               	movwf	___fladd@a+2
  3838  0E09                     l1857:
  3839  0E09  0873               	movf	___fladd@b+3,w
  3840  0E0A  00A0               	movwf	??___fladd
  3841  0E0B  0820               	movf	??___fladd,w
  3842  0E0C  00FB               	movwf	___fladd@grs
  3843  0E0D                     l1859:
  3844  0E0D  0877               	movf	___fladd@a+3,w
  3845  0E0E  00A0               	movwf	??___fladd
  3846  0E0F  0820               	movf	??___fladd,w
  3847  0E10  00F3               	movwf	___fladd@b+3
  3848  0E11                     l1861:
  3849  0E11  087B               	movf	___fladd@grs,w
  3850  0E12  00A0               	movwf	??___fladd
  3851  0E13  0820               	movf	??___fladd,w
  3852  0E14  00F7               	movwf	___fladd@a+3
  3853  0E15                     l1863:
  3854  0E15  01FB               	clrf	___fladd@grs
  3855  0E16                     l1865:
  3856  0E16  0879               	movf	___fladd@aexp,w
  3857  0E17  00A0               	movwf	??___fladd
  3858  0E18  01A1               	clrf	??___fladd+1
  3859  0E19  0821               	movf	??___fladd+1,w
  3860  0E1A  00A3               	movwf	??___fladd+3
  3861  0E1B  087A               	movf	___fladd@bexp,w
  3862  0E1C  0220               	subwf	??___fladd,w
  3863  0E1D  00A2               	movwf	??___fladd+2
  3864  0E1E  1C03               	skipc
  3865  0E1F  03A3               	decf	??___fladd+3,f
  3866  0E20  0823               	movf	??___fladd+3,w
  3867  0E21  3A80               	xorlw	128
  3868  0E22  00FF               	movwf	btemp+1
  3869  0E23  3080               	movlw	128
  3870  0E24  027F               	subwf	btemp+1,w
  3871  0E25  1D03               	skipz
  3872  0E26  2E29               	goto	u2005
  3873  0E27  301A               	movlw	26
  3874  0E28  0222               	subwf	??___fladd+2,w
  3875  0E29                     u2005:
  3876  0E29  1C03               	skipc
  3877  0E2A  2E2C               	goto	u2001
  3878  0E2B  2E2D               	goto	u2000
  3879  0E2C                     u2001:
  3880  0E2C  2E6E               	goto	l1881
  3881  0E2D                     u2000:
  3882  0E2D                     l1867:
  3883  0E2D  0873               	movf	___fladd@b+3,w
  3884  0E2E  0472               	iorwf	___fladd@b+2,w
  3885  0E2F  0471               	iorwf	___fladd@b+1,w
  3886  0E30  0470               	iorwf	___fladd@b,w
  3887  0E31  1D03               	skipz
  3888  0E32  2E34               	goto	u2011
  3889  0E33  2E36               	goto	u2010
  3890  0E34                     u2011:
  3891  0E34  3001               	movlw	1
  3892  0E35  2E37               	goto	u2020
  3893  0E36                     u2010:
  3894  0E36  3000               	movlw	0
  3895  0E37                     u2020:
  3896  0E37  1283               	bcf	3,5	;RP0=0, select bank0
  3897  0E38  1303               	bcf	3,6	;RP1=0, select bank0
  3898  0E39  00A0               	movwf	??___fladd
  3899  0E3A  0820               	movf	??___fladd,w
  3900  0E3B  00FB               	movwf	___fladd@grs
  3901  0E3C  3000               	movlw	0
  3902  0E3D  00F3               	movwf	___fladd@b+3
  3903  0E3E  3000               	movlw	0
  3904  0E3F  00F2               	movwf	___fladd@b+2
  3905  0E40  3000               	movlw	0
  3906  0E41  00F1               	movwf	___fladd@b+1
  3907  0E42  3000               	movlw	0
  3908  0E43  00F0               	movwf	___fladd@b
  3909  0E44  0879               	movf	___fladd@aexp,w
  3910  0E45  00A0               	movwf	??___fladd
  3911  0E46  0820               	movf	??___fladd,w
  3912  0E47  00FA               	movwf	___fladd@bexp
  3913  0E48  2E74               	goto	l572
  3914  0E49                     l574:
  3915  0E49  1C7B               	btfss	___fladd@grs,0
  3916  0E4A  2E4C               	goto	u2031
  3917  0E4B  2E4D               	goto	u2030
  3918  0E4C                     u2031:
  3919  0E4C  2E58               	goto	l1871
  3920  0E4D                     u2030:
  3921  0E4D                     l1869:
  3922  0E4D  087B               	movf	___fladd@grs,w
  3923  0E4E  1283               	bcf	3,5	;RP0=0, select bank0
  3924  0E4F  1303               	bcf	3,6	;RP1=0, select bank0
  3925  0E50  00A0               	movwf	??___fladd
  3926  0E51  1003               	clrc
  3927  0E52  0C20               	rrf	??___fladd,w
  3928  0E53  3801               	iorlw	1
  3929  0E54  00A1               	movwf	??___fladd+1
  3930  0E55  0821               	movf	??___fladd+1,w
  3931  0E56  00FB               	movwf	___fladd@grs
  3932  0E57  2E5A               	goto	l1873
  3933  0E58                     l1871:
  3934  0E58  1003               	clrc
  3935  0E59  0CFB               	rrf	___fladd@grs,f
  3936  0E5A                     l1873:
  3937  0E5A  1C70               	btfss	___fladd@b,0
  3938  0E5B  2E5D               	goto	u2041
  3939  0E5C  2E5E               	goto	u2040
  3940  0E5D                     u2041:
  3941  0E5D  2E5F               	goto	l1877
  3942  0E5E                     u2040:
  3943  0E5E                     l1875:
  3944  0E5E  17FB               	bsf	___fladd@grs,7
  3945  0E5F                     l1877:
  3946  0E5F  3001               	movlw	1
  3947  0E60  1283               	bcf	3,5	;RP0=0, select bank0
  3948  0E61  1303               	bcf	3,6	;RP1=0, select bank0
  3949  0E62  00A0               	movwf	??___fladd
  3950  0E63                     u2055:
  3951  0E63  0D73               	rlf	___fladd@b+3,w
  3952  0E64  0CF3               	rrf	___fladd@b+3,f
  3953  0E65  0CF2               	rrf	___fladd@b+2,f
  3954  0E66  0CF1               	rrf	___fladd@b+1,f
  3955  0E67  0CF0               	rrf	___fladd@b,f
  3956  0E68  0BA0               	decfsz	??___fladd& (0+127),f
  3957  0E69  2E63               	goto	u2055
  3958  0E6A                     l1879:
  3959  0E6A  3001               	movlw	1
  3960  0E6B  00A0               	movwf	??___fladd
  3961  0E6C  0820               	movf	??___fladd,w
  3962  0E6D  07FA               	addwf	___fladd@bexp,f
  3963  0E6E                     l1881:
  3964  0E6E  0879               	movf	___fladd@aexp,w
  3965  0E6F  027A               	subwf	___fladd@bexp,w
  3966  0E70  1C03               	skipc
  3967  0E71  2E73               	goto	u2061
  3968  0E72  2E74               	goto	u2060
  3969  0E73                     u2061:
  3970  0E73  2E49               	goto	l574
  3971  0E74                     u2060:
  3972  0E74                     l572:
  3973  0E74  1B78               	btfsc	___fladd@signs,6
  3974  0E75  2E77               	goto	u2071
  3975  0E76  2E78               	goto	u2070
  3976  0E77                     u2071:
  3977  0E77  2EC7               	goto	l1907
  3978  0E78                     u2070:
  3979  0E78                     l1883:
  3980  0E78  087A               	movf	___fladd@bexp,w
  3981  0E79  1D03               	btfss	3,2
  3982  0E7A  2E7C               	goto	u2081
  3983  0E7B  2E7D               	goto	u2080
  3984  0E7C                     u2081:
  3985  0E7C  2E86               	goto	l1889
  3986  0E7D                     u2080:
  3987  0E7D                     l1885:
  3988  0E7D  3000               	movlw	0
  3989  0E7E  00F3               	movwf	?___fladd+3
  3990  0E7F  3000               	movlw	0
  3991  0E80  00F2               	movwf	?___fladd+2
  3992  0E81  3000               	movlw	0
  3993  0E82  00F1               	movwf	?___fladd+1
  3994  0E83  3000               	movlw	0
  3995  0E84  00F0               	movwf	?___fladd
  3996  0E85  2FFF               	goto	l581
  3997  0E86                     l1889:
  3998  0E86  0874               	movf	___fladd@a,w
  3999  0E87  07F0               	addwf	___fladd@b,f
  4000  0E88  0875               	movf	___fladd@a+1,w
  4001  0E89  1103               	clrz
  4002  0E8A  1803               	skipnc
  4003  0E8B  3E01               	addlw	1
  4004  0E8C  1903               	skipnz
  4005  0E8D  2E8F               	goto	u2091
  4006  0E8E  07F1               	addwf	___fladd@b+1,f
  4007  0E8F                     u2091:
  4008  0E8F  0876               	movf	___fladd@a+2,w
  4009  0E90  1103               	clrz
  4010  0E91  1803               	skipnc
  4011  0E92  3E01               	addlw	1
  4012  0E93  1903               	skipnz
  4013  0E94  2E96               	goto	u2092
  4014  0E95  07F2               	addwf	___fladd@b+2,f
  4015  0E96                     u2092:
  4016  0E96  0877               	movf	___fladd@a+3,w
  4017  0E97  1103               	clrz
  4018  0E98  1803               	skipnc
  4019  0E99  3E01               	addlw	1
  4020  0E9A  1903               	skipnz
  4021  0E9B  2E9D               	goto	u2093
  4022  0E9C  07F3               	addwf	___fladd@b+3,f
  4023  0E9D                     u2093:
  4024  0E9D                     l1891:
  4025  0E9D  1C73               	btfss	___fladd@b+3,0
  4026  0E9E  2EA0               	goto	u2101
  4027  0E9F  2EA1               	goto	u2100
  4028  0EA0                     u2101:
  4029  0EA0  2F7F               	goto	l1941
  4030  0EA1                     u2100:
  4031  0EA1                     l1893:
  4032  0EA1  1C7B               	btfss	___fladd@grs,0
  4033  0EA2  2EA4               	goto	u2111
  4034  0EA3  2EA5               	goto	u2110
  4035  0EA4                     u2111:
  4036  0EA4  2EB0               	goto	l1897
  4037  0EA5                     u2110:
  4038  0EA5                     l1895:
  4039  0EA5  087B               	movf	___fladd@grs,w
  4040  0EA6  1283               	bcf	3,5	;RP0=0, select bank0
  4041  0EA7  1303               	bcf	3,6	;RP1=0, select bank0
  4042  0EA8  00A0               	movwf	??___fladd
  4043  0EA9  1003               	clrc
  4044  0EAA  0C20               	rrf	??___fladd,w
  4045  0EAB  3801               	iorlw	1
  4046  0EAC  00A1               	movwf	??___fladd+1
  4047  0EAD  0821               	movf	??___fladd+1,w
  4048  0EAE  00FB               	movwf	___fladd@grs
  4049  0EAF  2EB2               	goto	l1899
  4050  0EB0                     l1897:
  4051  0EB0  1003               	clrc
  4052  0EB1  0CFB               	rrf	___fladd@grs,f
  4053  0EB2                     l1899:
  4054  0EB2  1C70               	btfss	___fladd@b,0
  4055  0EB3  2EB5               	goto	u2121
  4056  0EB4  2EB6               	goto	u2120
  4057  0EB5                     u2121:
  4058  0EB5  2EB7               	goto	l1903
  4059  0EB6                     u2120:
  4060  0EB6                     l1901:
  4061  0EB6  17FB               	bsf	___fladd@grs,7
  4062  0EB7                     l1903:
  4063  0EB7  3001               	movlw	1
  4064  0EB8  1283               	bcf	3,5	;RP0=0, select bank0
  4065  0EB9  1303               	bcf	3,6	;RP1=0, select bank0
  4066  0EBA  00A0               	movwf	??___fladd
  4067  0EBB                     u2135:
  4068  0EBB  0D73               	rlf	___fladd@b+3,w
  4069  0EBC  0CF3               	rrf	___fladd@b+3,f
  4070  0EBD  0CF2               	rrf	___fladd@b+2,f
  4071  0EBE  0CF1               	rrf	___fladd@b+1,f
  4072  0EBF  0CF0               	rrf	___fladd@b,f
  4073  0EC0  0BA0               	decfsz	??___fladd& (0+127),f
  4074  0EC1  2EBB               	goto	u2135
  4075  0EC2                     l1905:
  4076  0EC2  3001               	movlw	1
  4077  0EC3  00A0               	movwf	??___fladd
  4078  0EC4  0820               	movf	??___fladd,w
  4079  0EC5  07FA               	addwf	___fladd@bexp,f
  4080  0EC6  2F7F               	goto	l1941
  4081  0EC7                     l1907:
  4082  0EC7  0873               	movf	___fladd@b+3,w
  4083  0EC8  3A80               	xorlw	128
  4084  0EC9  00FF               	movwf	btemp+1
  4085  0ECA  0877               	movf	___fladd@a+3,w
  4086  0ECB  3A80               	xorlw	128
  4087  0ECC  027F               	subwf	btemp+1,w
  4088  0ECD  1D03               	skipz
  4089  0ECE  2ED9               	goto	u2143
  4090  0ECF  0876               	movf	___fladd@a+2,w
  4091  0ED0  0272               	subwf	___fladd@b+2,w
  4092  0ED1  1D03               	skipz
  4093  0ED2  2ED9               	goto	u2143
  4094  0ED3  0875               	movf	___fladd@a+1,w
  4095  0ED4  0271               	subwf	___fladd@b+1,w
  4096  0ED5  1D03               	skipz
  4097  0ED6  2ED9               	goto	u2143
  4098  0ED7  0874               	movf	___fladd@a,w
  4099  0ED8  0270               	subwf	___fladd@b,w
  4100  0ED9                     u2143:
  4101  0ED9  1803               	skipnc
  4102  0EDA  2EDC               	goto	u2141
  4103  0EDB  2EDD               	goto	u2140
  4104  0EDC                     u2141:
  4105  0EDC  2F37               	goto	l1917
  4106  0EDD                     u2140:
  4107  0EDD                     l1909:
  4108  0EDD  30FF               	movlw	255
  4109  0EDE  1283               	bcf	3,5	;RP0=0, select bank0
  4110  0EDF  1303               	bcf	3,6	;RP1=0, select bank0
  4111  0EE0  00A0               	movwf	??___fladd
  4112  0EE1  30FF               	movlw	255
  4113  0EE2  00A1               	movwf	??___fladd+1
  4114  0EE3  30FF               	movlw	255
  4115  0EE4  00A2               	movwf	??___fladd+2
  4116  0EE5  30FF               	movlw	255
  4117  0EE6  00A3               	movwf	??___fladd+3
  4118  0EE7  0874               	movf	___fladd@a,w
  4119  0EE8  00A4               	movwf	??___fladd+4
  4120  0EE9  0875               	movf	___fladd@a+1,w
  4121  0EEA  00A5               	movwf	??___fladd+5
  4122  0EEB  0876               	movf	___fladd@a+2,w
  4123  0EEC  00A6               	movwf	??___fladd+6
  4124  0EED  0877               	movf	___fladd@a+3,w
  4125  0EEE  00A7               	movwf	??___fladd+7
  4126  0EEF  0870               	movf	___fladd@b,w
  4127  0EF0  02A4               	subwf	??___fladd+4,f
  4128  0EF1  0871               	movf	___fladd@b+1,w
  4129  0EF2  1C03               	skipc
  4130  0EF3  0F71               	incfsz	___fladd@b+1,w
  4131  0EF4  2EF6               	goto	u2151
  4132  0EF5  2EF7               	goto	u2152
  4133  0EF6                     u2151:
  4134  0EF6  02A5               	subwf	??___fladd+5,f
  4135  0EF7                     u2152:
  4136  0EF7  0872               	movf	___fladd@b+2,w
  4137  0EF8  1C03               	skipc
  4138  0EF9  0F72               	incfsz	___fladd@b+2,w
  4139  0EFA  2EFC               	goto	u2153
  4140  0EFB  2EFD               	goto	u2154
  4141  0EFC                     u2153:
  4142  0EFC  02A6               	subwf	??___fladd+6,f
  4143  0EFD                     u2154:
  4144  0EFD  0873               	movf	___fladd@b+3,w
  4145  0EFE  1C03               	skipc
  4146  0EFF  0F73               	incfsz	___fladd@b+3,w
  4147  0F00  2F02               	goto	u2155
  4148  0F01  2F03               	goto	u2156
  4149  0F02                     u2155:
  4150  0F02  02A7               	subwf	??___fladd+7,f
  4151  0F03                     u2156:
  4152  0F03  0824               	movf	??___fladd+4,w
  4153  0F04  07A0               	addwf	??___fladd,f
  4154  0F05  0825               	movf	??___fladd+5,w
  4155  0F06  1803               	skipnc
  4156  0F07  0F25               	incfsz	??___fladd+5,w
  4157  0F08  2F0A               	goto	u2160
  4158  0F09  2F0B               	goto	u2161
  4159  0F0A                     u2160:
  4160  0F0A  07A1               	addwf	??___fladd+1,f
  4161  0F0B                     u2161:
  4162  0F0B  0826               	movf	??___fladd+6,w
  4163  0F0C  1803               	skipnc
  4164  0F0D  0F26               	incfsz	??___fladd+6,w
  4165  0F0E  2F10               	goto	u2162
  4166  0F0F  2F11               	goto	u2163
  4167  0F10                     u2162:
  4168  0F10  07A2               	addwf	??___fladd+2,f
  4169  0F11                     u2163:
  4170  0F11  0827               	movf	??___fladd+7,w
  4171  0F12  1803               	skipnc
  4172  0F13  0A27               	incf	??___fladd+7,w
  4173  0F14  07A3               	addwf	??___fladd+3,f
  4174  0F15  0823               	movf	??___fladd+3,w
  4175  0F16  00F3               	movwf	___fladd@b+3
  4176  0F17  0822               	movf	??___fladd+2,w
  4177  0F18  00F2               	movwf	___fladd@b+2
  4178  0F19  0821               	movf	??___fladd+1,w
  4179  0F1A  00F1               	movwf	___fladd@b+1
  4180  0F1B  0820               	movf	??___fladd,w
  4181  0F1C  00F0               	movwf	___fladd@b
  4182  0F1D                     l1911:
  4183  0F1D  3080               	movlw	128
  4184  0F1E  00A0               	movwf	??___fladd
  4185  0F1F  0820               	movf	??___fladd,w
  4186  0F20  06F8               	xorwf	___fladd@signs,f
  4187  0F21  09FB               	comf	___fladd@grs,f
  4188  0F22  0AFB               	incf	___fladd@grs,f
  4189  0F23                     l1913:
  4190  0F23  087B               	movf	___fladd@grs,w
  4191  0F24  1D03               	btfss	3,2
  4192  0F25  2F27               	goto	u2171
  4193  0F26  2F28               	goto	u2170
  4194  0F27                     u2171:
  4195  0F27  2F45               	goto	l589
  4196  0F28                     u2170:
  4197  0F28                     l1915:
  4198  0F28  3001               	movlw	1
  4199  0F29  07F0               	addwf	___fladd@b,f
  4200  0F2A  3000               	movlw	0
  4201  0F2B  1803               	skipnc
  4202  0F2C  3001               	movlw	1
  4203  0F2D  07F1               	addwf	___fladd@b+1,f
  4204  0F2E  3000               	movlw	0
  4205  0F2F  1803               	skipnc
  4206  0F30  3001               	movlw	1
  4207  0F31  07F2               	addwf	___fladd@b+2,f
  4208  0F32  3000               	movlw	0
  4209  0F33  1803               	skipnc
  4210  0F34  3001               	movlw	1
  4211  0F35  07F3               	addwf	___fladd@b+3,f
  4212  0F36  2F45               	goto	l589
  4213  0F37                     l1917:
  4214  0F37  0874               	movf	___fladd@a,w
  4215  0F38  02F0               	subwf	___fladd@b,f
  4216  0F39  0875               	movf	___fladd@a+1,w
  4217  0F3A  1C03               	skipc
  4218  0F3B  0F75               	incfsz	___fladd@a+1,w
  4219  0F3C  02F1               	subwf	___fladd@b+1,f
  4220  0F3D  0876               	movf	___fladd@a+2,w
  4221  0F3E  1C03               	skipc
  4222  0F3F  0F76               	incfsz	___fladd@a+2,w
  4223  0F40  02F2               	subwf	___fladd@b+2,f
  4224  0F41  0877               	movf	___fladd@a+3,w
  4225  0F42  1C03               	skipc
  4226  0F43  0F77               	incfsz	___fladd@a+3,w
  4227  0F44  02F3               	subwf	___fladd@b+3,f
  4228  0F45                     l589:
  4229  0F45  0873               	movf	___fladd@b+3,w
  4230  0F46  0472               	iorwf	___fladd@b+2,w
  4231  0F47  0471               	iorwf	___fladd@b+1,w
  4232  0F48  0470               	iorwf	___fladd@b,w
  4233  0F49  1D03               	skipz
  4234  0F4A  2F4C               	goto	u2181
  4235  0F4B  2F4D               	goto	u2180
  4236  0F4C                     u2181:
  4237  0F4C  2F7B               	goto	l1939
  4238  0F4D                     u2180:
  4239  0F4D                     l1919:
  4240  0F4D  087B               	movf	___fladd@grs,w
  4241  0F4E  1D03               	btfss	3,2
  4242  0F4F  2F51               	goto	u2191
  4243  0F50  2F52               	goto	u2190
  4244  0F51                     u2191:
  4245  0F51  2F7B               	goto	l1939
  4246  0F52                     u2190:
  4247  0F52                     l1921:
  4248  0F52  3000               	movlw	0
  4249  0F53  00F3               	movwf	?___fladd+3
  4250  0F54  3000               	movlw	0
  4251  0F55  00F2               	movwf	?___fladd+2
  4252  0F56  3000               	movlw	0
  4253  0F57  00F1               	movwf	?___fladd+1
  4254  0F58  3000               	movlw	0
  4255  0F59  00F0               	movwf	?___fladd
  4256  0F5A  2FFF               	goto	l581
  4257  0F5B                     l1925:
  4258  0F5B  3001               	movlw	1
  4259  0F5C  1283               	bcf	3,5	;RP0=0, select bank0
  4260  0F5D  1303               	bcf	3,6	;RP1=0, select bank0
  4261  0F5E  00A0               	movwf	??___fladd
  4262  0F5F                     u2205:
  4263  0F5F  1003               	clrc
  4264  0F60  0DF0               	rlf	___fladd@b,f
  4265  0F61  0DF1               	rlf	___fladd@b+1,f
  4266  0F62  0DF2               	rlf	___fladd@b+2,f
  4267  0F63  0DF3               	rlf	___fladd@b+3,f
  4268  0F64  0BA0               	decfsz	??___fladd,f
  4269  0F65  2F5F               	goto	u2205
  4270  0F66                     l1927:
  4271  0F66  1FFB               	btfss	___fladd@grs,7
  4272  0F67  2F69               	goto	u2211
  4273  0F68  2F6A               	goto	u2210
  4274  0F69                     u2211:
  4275  0F69  2F6B               	goto	l593
  4276  0F6A                     u2210:
  4277  0F6A                     l1929:
  4278  0F6A  1470               	bsf	___fladd@b,0
  4279  0F6B                     l593:
  4280  0F6B  1C7B               	btfss	___fladd@grs,0
  4281  0F6C  2F6E               	goto	u2221
  4282  0F6D  2F6F               	goto	u2220
  4283  0F6E                     u2221:
  4284  0F6E  2F72               	goto	l1933
  4285  0F6F                     u2220:
  4286  0F6F                     l1931:
  4287  0F6F  1403               	setc
  4288  0F70  0DFB               	rlf	___fladd@grs,f
  4289  0F71  2F74               	goto	l1935
  4290  0F72                     l1933:
  4291  0F72  1003               	clrc
  4292  0F73  0DFB               	rlf	___fladd@grs,f
  4293  0F74                     l1935:
  4294  0F74  087A               	movf	___fladd@bexp,w
  4295  0F75  1903               	btfsc	3,2
  4296  0F76  2F78               	goto	u2231
  4297  0F77  2F79               	goto	u2230
  4298  0F78                     u2231:
  4299  0F78  2F7B               	goto	l1939
  4300  0F79                     u2230:
  4301  0F79                     l1937:
  4302  0F79  3001               	movlw	1
  4303  0F7A  02FA               	subwf	___fladd@bexp,f
  4304  0F7B                     l1939:
  4305  0F7B  1FF2               	btfss	___fladd@b+2,7
  4306  0F7C  2F7E               	goto	u2241
  4307  0F7D  2F7F               	goto	u2240
  4308  0F7E                     u2241:
  4309  0F7E  2F5B               	goto	l1925
  4310  0F7F                     u2240:
  4311  0F7F                     l1941:
  4312  0F7F  01F9               	clrf	___fladd@aexp
  4313  0F80                     l1943:
  4314  0F80  1FFB               	btfss	___fladd@grs,7
  4315  0F81  2F83               	goto	u2251
  4316  0F82  2F84               	goto	u2250
  4317  0F83                     u2251:
  4318  0F83  2F92               	goto	l1951
  4319  0F84                     u2250:
  4320  0F84                     l1945:
  4321  0F84  087B               	movf	___fladd@grs,w
  4322  0F85  397F               	andlw	127
  4323  0F86  1903               	btfsc	3,2
  4324  0F87  2F89               	goto	u2261
  4325  0F88  2F8A               	goto	u2260
  4326  0F89                     u2261:
  4327  0F89  2F8D               	goto	l599
  4328  0F8A                     u2260:
  4329  0F8A                     l1947:
  4330  0F8A  01F9               	clrf	___fladd@aexp
  4331  0F8B  0AF9               	incf	___fladd@aexp,f
  4332  0F8C  2F92               	goto	l1951
  4333  0F8D                     l599:
  4334  0F8D  1C70               	btfss	___fladd@b,0
  4335  0F8E  2F90               	goto	u2271
  4336  0F8F  2F91               	goto	u2270
  4337  0F90                     u2271:
  4338  0F90  2F92               	goto	l1951
  4339  0F91                     u2270:
  4340  0F91  2F8A               	goto	l1947
  4341  0F92                     l1951:
  4342  0F92  0879               	movf	___fladd@aexp,w
  4343  0F93  1903               	btfsc	3,2
  4344  0F94  2F96               	goto	u2281
  4345  0F95  2F97               	goto	u2280
  4346  0F96                     u2281:
  4347  0F96  2FCD               	goto	l602
  4348  0F97                     u2280:
  4349  0F97                     l1953:
  4350  0F97  3001               	movlw	1
  4351  0F98  07F0               	addwf	___fladd@b,f
  4352  0F99  3000               	movlw	0
  4353  0F9A  1803               	skipnc
  4354  0F9B  3001               	movlw	1
  4355  0F9C  07F1               	addwf	___fladd@b+1,f
  4356  0F9D  3000               	movlw	0
  4357  0F9E  1803               	skipnc
  4358  0F9F  3001               	movlw	1
  4359  0FA0  07F2               	addwf	___fladd@b+2,f
  4360  0FA1  3000               	movlw	0
  4361  0FA2  1803               	skipnc
  4362  0FA3  3001               	movlw	1
  4363  0FA4  07F3               	addwf	___fladd@b+3,f
  4364  0FA5                     l1955:
  4365  0FA5  1C73               	btfss	___fladd@b+3,0
  4366  0FA6  2FA8               	goto	u2291
  4367  0FA7  2FA9               	goto	u2290
  4368  0FA8                     u2291:
  4369  0FA8  2FCD               	goto	l602
  4370  0FA9                     u2290:
  4371  0FA9                     l1957:
  4372  0FA9  0870               	movf	___fladd@b,w
  4373  0FAA  1283               	bcf	3,5	;RP0=0, select bank0
  4374  0FAB  1303               	bcf	3,6	;RP1=0, select bank0
  4375  0FAC  00A0               	movwf	??___fladd
  4376  0FAD  0871               	movf	___fladd@b+1,w
  4377  0FAE  00A1               	movwf	??___fladd+1
  4378  0FAF  0872               	movf	___fladd@b+2,w
  4379  0FB0  00A2               	movwf	??___fladd+2
  4380  0FB1  0873               	movf	___fladd@b+3,w
  4381  0FB2  00A3               	movwf	??___fladd+3
  4382  0FB3  3001               	movlw	1
  4383  0FB4  00A4               	movwf	??___fladd+4
  4384  0FB5                     u2305:
  4385  0FB5  0D23               	rlf	??___fladd+3,w
  4386  0FB6  0CA3               	rrf	??___fladd+3,f
  4387  0FB7  0CA2               	rrf	??___fladd+2,f
  4388  0FB8  0CA1               	rrf	??___fladd+1,f
  4389  0FB9  0CA0               	rrf	??___fladd,f
  4390  0FBA                     u2300:
  4391  0FBA  0BA4               	decfsz	??___fladd+4,f
  4392  0FBB  2FB5               	goto	u2305
  4393  0FBC  0823               	movf	??___fladd+3,w
  4394  0FBD  00F3               	movwf	___fladd@b+3
  4395  0FBE  0822               	movf	??___fladd+2,w
  4396  0FBF  00F2               	movwf	___fladd@b+2
  4397  0FC0  0821               	movf	??___fladd+1,w
  4398  0FC1  00F1               	movwf	___fladd@b+1
  4399  0FC2  0820               	movf	??___fladd,w
  4400  0FC3  00F0               	movwf	___fladd@b
  4401  0FC4  0A7A               	incf	___fladd@bexp,w
  4402  0FC5  1903               	btfsc	3,2
  4403  0FC6  2FC8               	goto	u2311
  4404  0FC7  2FC9               	goto	u2310
  4405  0FC8                     u2311:
  4406  0FC8  2FCD               	goto	l602
  4407  0FC9                     u2310:
  4408  0FC9                     l1959:
  4409  0FC9  3001               	movlw	1
  4410  0FCA  00A0               	movwf	??___fladd
  4411  0FCB  0820               	movf	??___fladd,w
  4412  0FCC  07FA               	addwf	___fladd@bexp,f
  4413  0FCD                     l602:
  4414  0FCD  0A7A               	incf	___fladd@bexp,w
  4415  0FCE  1903               	btfsc	3,2
  4416  0FCF  2FD1               	goto	u2321
  4417  0FD0  2FD2               	goto	u2320
  4418  0FD1                     u2321:
  4419  0FD1  2FD7               	goto	l1963
  4420  0FD2                     u2320:
  4421  0FD2                     l1961:
  4422  0FD2  087A               	movf	___fladd@bexp,w
  4423  0FD3  1D03               	btfss	3,2
  4424  0FD4  2FD6               	goto	u2331
  4425  0FD5  2FD7               	goto	u2330
  4426  0FD6                     u2331:
  4427  0FD6  2FE5               	goto	l1969
  4428  0FD7                     u2330:
  4429  0FD7                     l1963:
  4430  0FD7  3000               	movlw	0
  4431  0FD8  00F3               	movwf	___fladd@b+3
  4432  0FD9  3000               	movlw	0
  4433  0FDA  00F2               	movwf	___fladd@b+2
  4434  0FDB  3000               	movlw	0
  4435  0FDC  00F1               	movwf	___fladd@b+1
  4436  0FDD  3000               	movlw	0
  4437  0FDE  00F0               	movwf	___fladd@b
  4438  0FDF                     l1965:
  4439  0FDF  087A               	movf	___fladd@bexp,w
  4440  0FE0  1D03               	btfss	3,2
  4441  0FE1  2FE3               	goto	u2341
  4442  0FE2  2FE4               	goto	u2340
  4443  0FE3                     u2341:
  4444  0FE3  2FE5               	goto	l1969
  4445  0FE4                     u2340:
  4446  0FE4                     l1967:
  4447  0FE4  01F8               	clrf	___fladd@signs
  4448  0FE5                     l1969:
  4449  0FE5  1C7A               	btfss	___fladd@bexp,0
  4450  0FE6  2FE8               	goto	u2351
  4451  0FE7  2FE9               	goto	u2350
  4452  0FE8                     u2351:
  4453  0FE8  2FEB               	goto	l1973
  4454  0FE9                     u2350:
  4455  0FE9                     l1971:
  4456  0FE9  17F2               	bsf	___fladd@b+2,7
  4457  0FEA  2FF1               	goto	l610
  4458  0FEB                     l1973:
  4459  0FEB  307F               	movlw	127
  4460  0FEC  1283               	bcf	3,5	;RP0=0, select bank0
  4461  0FED  1303               	bcf	3,6	;RP1=0, select bank0
  4462  0FEE  00A0               	movwf	??___fladd
  4463  0FEF  0820               	movf	??___fladd,w
  4464  0FF0  05F2               	andwf	___fladd@b+2,f
  4465  0FF1                     l610:
  4466  0FF1  087A               	movf	___fladd@bexp,w
  4467  0FF2  1283               	bcf	3,5	;RP0=0, select bank0
  4468  0FF3  1303               	bcf	3,6	;RP1=0, select bank0
  4469  0FF4  00A0               	movwf	??___fladd
  4470  0FF5  1003               	clrc
  4471  0FF6  0C20               	rrf	??___fladd,w
  4472  0FF7  00A1               	movwf	??___fladd+1
  4473  0FF8  0821               	movf	??___fladd+1,w
  4474  0FF9  00F3               	movwf	___fladd@b+3
  4475  0FFA                     l1975:
  4476  0FFA  1FF8               	btfss	___fladd@signs,7
  4477  0FFB  2FFD               	goto	u2361
  4478  0FFC  2FFE               	goto	u2360
  4479  0FFD                     u2361:
  4480  0FFD  2FFF               	goto	l611
  4481  0FFE                     u2360:
  4482  0FFE                     l1977:
  4483  0FFE  17F3               	bsf	___fladd@b+3,7
  4484  0FFF                     l611:
  4485  0FFF                     l581:
  4486  0FFF  0008               	return
  4487  1000                     __end_of___fladd:
  4488                           
  4489                           	psect	text10
  4490  009A                     __ptext10:	
  4491 ;; *************** function ___flmul *****************
  4492 ;; Defined at:
  4493 ;;		line 8 in file "C:\Program Files\Microchip\xc8\v2.31\pic\sources\c90\common\sprcmul.c"
  4494 ;; Parameters:    Size  Location     Type
  4495 ;;  b               4   44[BANK0 ] unsigned char 
  4496 ;;  a               4   48[BANK0 ] unsigned char 
  4497 ;; Auto vars:     Size  Location     Type
  4498 ;;  prod            4   64[BANK0 ] struct .
  4499 ;;  grs             4   58[BANK0 ] unsigned long 
  4500 ;;  temp            2   68[BANK0 ] struct .
  4501 ;;  bexp            1   63[BANK0 ] unsigned char 
  4502 ;;  aexp            1   62[BANK0 ] unsigned char 
  4503 ;;  sign            1   57[BANK0 ] unsigned char 
  4504 ;; Return value:  Size  Location     Type
  4505 ;;                  4   44[BANK0 ] unsigned char 
  4506 ;; Registers used:
  4507 ;;		wreg, status,2, status,0, btemp+1, pclath, cstack
  4508 ;; Tracked objects:
  4509 ;;		On entry : 0/0
  4510 ;;		On exit  : 0/0
  4511 ;;		Unchanged: 0/0
  4512 ;; Data sizes:     COMMON   BANK0   BANK1   BANK3   BANK2
  4513 ;;      Params:         0       8       0       0       0
  4514 ;;      Locals:         0      13       0       0       0
  4515 ;;      Temps:          0       5       0       0       0
  4516 ;;      Totals:         0      26       0       0       0
  4517 ;;Total ram usage:       26 bytes
  4518 ;; Hardware stack levels used:    1
  4519 ;; Hardware stack levels required when called:    1
  4520 ;; This function calls:
  4521 ;;		__Umul8_16
  4522 ;; This function is called by:
  4523 ;;		_main
  4524 ;;		_convert
  4525 ;; This function uses a non-reentrant model
  4526 ;;
  4527                           
  4528                           
  4529                           ;psect for function ___flmul
  4530  009A                     ___flmul:
  4531  009A                     l2291:	
  4532                           ;incstack = 0
  4533                           ; Regs used in ___flmul: [wreg+status,2+status,0+btemp+1+pclath+cstack]
  4534                           
  4535  009A  1283               	bcf	3,5	;RP0=0, select bank0
  4536  009B  1303               	bcf	3,6	;RP1=0, select bank0
  4537  009C  084F               	movf	___flmul@b+3,w
  4538  009D  3980               	andlw	128
  4539  009E  00D4               	movwf	??___flmul
  4540  009F  0854               	movf	??___flmul,w
  4541  00A0  00D9               	movwf	___flmul@sign
  4542  00A1                     l2293:
  4543  00A1  084F               	movf	___flmul@b+3,w
  4544  00A2  00D4               	movwf	??___flmul
  4545  00A3  0754               	addwf	??___flmul,w
  4546  00A4  00D5               	movwf	??___flmul+1
  4547  00A5  0855               	movf	??___flmul+1,w
  4548  00A6  00DF               	movwf	___flmul@bexp
  4549  00A7                     l2295:
  4550  00A7  1FCE               	btfss	___flmul@b+2,7
  4551  00A8  28AA               	goto	u3031
  4552  00A9  28AB               	goto	u3030
  4553  00AA                     u3031:
  4554  00AA  28AC               	goto	l2299
  4555  00AB                     u3030:
  4556  00AB                     l2297:
  4557  00AB  145F               	bsf	___flmul@bexp,0
  4558  00AC                     l2299:
  4559  00AC  085F               	movf	___flmul@bexp,w
  4560  00AD  1903               	btfsc	3,2
  4561  00AE  28B0               	goto	u3041
  4562  00AF  28B1               	goto	u3040
  4563  00B0                     u3041:
  4564  00B0  28C0               	goto	l2307
  4565  00B1                     u3040:
  4566  00B1                     l2301:
  4567  00B1  0A5F               	incf	___flmul@bexp,w
  4568  00B2  1D03               	btfss	3,2
  4569  00B3  28B5               	goto	u3051
  4570  00B4  28B6               	goto	u3050
  4571  00B5                     u3051:
  4572  00B5  28BE               	goto	l2305
  4573  00B6                     u3050:
  4574  00B6                     l2303:
  4575  00B6  3000               	movlw	0
  4576  00B7  00CF               	movwf	___flmul@b+3
  4577  00B8  3000               	movlw	0
  4578  00B9  00CE               	movwf	___flmul@b+2
  4579  00BA  3000               	movlw	0
  4580  00BB  00CD               	movwf	___flmul@b+1
  4581  00BC  3000               	movlw	0
  4582  00BD  00CC               	movwf	___flmul@b
  4583  00BE                     l2305:
  4584  00BE  17CE               	bsf	___flmul@b+2,7
  4585  00BF  28C8               	goto	l2309
  4586  00C0                     l2307:
  4587  00C0  3000               	movlw	0
  4588  00C1  00CF               	movwf	___flmul@b+3
  4589  00C2  3000               	movlw	0
  4590  00C3  00CE               	movwf	___flmul@b+2
  4591  00C4  3000               	movlw	0
  4592  00C5  00CD               	movwf	___flmul@b+1
  4593  00C6  3000               	movlw	0
  4594  00C7  00CC               	movwf	___flmul@b
  4595  00C8                     l2309:
  4596  00C8  0853               	movf	___flmul@a+3,w
  4597  00C9  3980               	andlw	128
  4598  00CA  00D4               	movwf	??___flmul
  4599  00CB  0854               	movf	??___flmul,w
  4600  00CC  06D9               	xorwf	___flmul@sign,f
  4601  00CD                     l2311:
  4602  00CD  0853               	movf	___flmul@a+3,w
  4603  00CE  00D4               	movwf	??___flmul
  4604  00CF  0754               	addwf	??___flmul,w
  4605  00D0  00D5               	movwf	??___flmul+1
  4606  00D1  0855               	movf	??___flmul+1,w
  4607  00D2  00DE               	movwf	___flmul@aexp
  4608  00D3                     l2313:
  4609  00D3  1FD2               	btfss	___flmul@a+2,7
  4610  00D4  28D6               	goto	u3061
  4611  00D5  28D7               	goto	u3060
  4612  00D6                     u3061:
  4613  00D6  28D8               	goto	l2317
  4614  00D7                     u3060:
  4615  00D7                     l2315:
  4616  00D7  145E               	bsf	___flmul@aexp,0
  4617  00D8                     l2317:
  4618  00D8  085E               	movf	___flmul@aexp,w
  4619  00D9  1903               	btfsc	3,2
  4620  00DA  28DC               	goto	u3071
  4621  00DB  28DD               	goto	u3070
  4622  00DC                     u3071:
  4623  00DC  28EC               	goto	l2325
  4624  00DD                     u3070:
  4625  00DD                     l2319:
  4626  00DD  0A5E               	incf	___flmul@aexp,w
  4627  00DE  1D03               	btfss	3,2
  4628  00DF  28E1               	goto	u3081
  4629  00E0  28E2               	goto	u3080
  4630  00E1                     u3081:
  4631  00E1  28EA               	goto	l2323
  4632  00E2                     u3080:
  4633  00E2                     l2321:
  4634  00E2  3000               	movlw	0
  4635  00E3  00D3               	movwf	___flmul@a+3
  4636  00E4  3000               	movlw	0
  4637  00E5  00D2               	movwf	___flmul@a+2
  4638  00E6  3000               	movlw	0
  4639  00E7  00D1               	movwf	___flmul@a+1
  4640  00E8  3000               	movlw	0
  4641  00E9  00D0               	movwf	___flmul@a
  4642  00EA                     l2323:
  4643  00EA  17D2               	bsf	___flmul@a+2,7
  4644  00EB  28F4               	goto	l2327
  4645  00EC                     l2325:
  4646  00EC  3000               	movlw	0
  4647  00ED  00D3               	movwf	___flmul@a+3
  4648  00EE  3000               	movlw	0
  4649  00EF  00D2               	movwf	___flmul@a+2
  4650  00F0  3000               	movlw	0
  4651  00F1  00D1               	movwf	___flmul@a+1
  4652  00F2  3000               	movlw	0
  4653  00F3  00D0               	movwf	___flmul@a
  4654  00F4                     l2327:
  4655  00F4  085E               	movf	___flmul@aexp,w
  4656  00F5  1903               	btfsc	3,2
  4657  00F6  28F8               	goto	u3091
  4658  00F7  28F9               	goto	u3090
  4659  00F8                     u3091:
  4660  00F8  28FE               	goto	l2331
  4661  00F9                     u3090:
  4662  00F9                     l2329:
  4663  00F9  085F               	movf	___flmul@bexp,w
  4664  00FA  1D03               	btfss	3,2
  4665  00FB  28FD               	goto	u3101
  4666  00FC  28FE               	goto	u3100
  4667  00FD                     u3101:
  4668  00FD  2907               	goto	l2335
  4669  00FE                     u3100:
  4670  00FE                     l2331:
  4671  00FE  3000               	movlw	0
  4672  00FF  00CF               	movwf	?___flmul+3
  4673  0100  3000               	movlw	0
  4674  0101  00CE               	movwf	?___flmul+2
  4675  0102  3000               	movlw	0
  4676  0103  00CD               	movwf	?___flmul+1
  4677  0104  3000               	movlw	0
  4678  0105  00CC               	movwf	?___flmul
  4679  0106  2BFA               	goto	l664
  4680  0107                     l2335:
  4681  0107  084C               	movf	___flmul@b,w
  4682  0108  00D4               	movwf	??___flmul
  4683  0109  0854               	movf	??___flmul,w
  4684  010A  00F0               	movwf	__Umul8_16@multiplicand
  4685  010B  0852               	movf	___flmul@a+2,w
  4686  010C  160A  118A  260A  120A  118A  	fcall	__Umul8_16
  4687  0111  0871               	movf	?__Umul8_16+1,w
  4688  0112  1283               	bcf	3,5	;RP0=0, select bank0
  4689  0113  1303               	bcf	3,6	;RP1=0, select bank0
  4690  0114  00E5               	movwf	___flmul@temp+1
  4691  0115  0870               	movf	?__Umul8_16,w
  4692  0116  00E4               	movwf	___flmul@temp
  4693  0117                     l2337:
  4694  0117  0864               	movf	___flmul@temp,w
  4695  0118  00D4               	movwf	??___flmul
  4696  0119  01D5               	clrf	??___flmul+1
  4697  011A  01D6               	clrf	??___flmul+2
  4698  011B  01D7               	clrf	??___flmul+3
  4699  011C  0857               	movf	??___flmul+3,w
  4700  011D  00DD               	movwf	___flmul@grs+3
  4701  011E  0856               	movf	??___flmul+2,w
  4702  011F  00DC               	movwf	___flmul@grs+2
  4703  0120  0855               	movf	??___flmul+1,w
  4704  0121  00DB               	movwf	___flmul@grs+1
  4705  0122  0854               	movf	??___flmul,w
  4706  0123  00DA               	movwf	___flmul@grs
  4707  0124                     l2339:
  4708  0124  0865               	movf	___flmul@temp+1,w
  4709  0125  00D4               	movwf	??___flmul
  4710  0126  01D5               	clrf	??___flmul+1
  4711  0127  01D6               	clrf	??___flmul+2
  4712  0128  01D7               	clrf	??___flmul+3
  4713  0129  0857               	movf	??___flmul+3,w
  4714  012A  00E3               	movwf	___flmul@prod+3
  4715  012B  0856               	movf	??___flmul+2,w
  4716  012C  00E2               	movwf	___flmul@prod+2
  4717  012D  0855               	movf	??___flmul+1,w
  4718  012E  00E1               	movwf	___flmul@prod+1
  4719  012F  0854               	movf	??___flmul,w
  4720  0130  00E0               	movwf	___flmul@prod
  4721  0131  084D               	movf	___flmul@b+1,w
  4722  0132  00D4               	movwf	??___flmul
  4723  0133  0854               	movf	??___flmul,w
  4724  0134  00F0               	movwf	__Umul8_16@multiplicand
  4725  0135  0851               	movf	___flmul@a+1,w
  4726  0136  160A  118A  260A  120A  118A  	fcall	__Umul8_16
  4727  013B  0871               	movf	?__Umul8_16+1,w
  4728  013C  1283               	bcf	3,5	;RP0=0, select bank0
  4729  013D  1303               	bcf	3,6	;RP1=0, select bank0
  4730  013E  00E5               	movwf	___flmul@temp+1
  4731  013F  0870               	movf	?__Umul8_16,w
  4732  0140  00E4               	movwf	___flmul@temp
  4733  0141                     l2341:
  4734  0141  0864               	movf	___flmul@temp,w
  4735  0142  00D4               	movwf	??___flmul
  4736  0143  01D5               	clrf	??___flmul+1
  4737  0144  01D6               	clrf	??___flmul+2
  4738  0145  01D7               	clrf	??___flmul+3
  4739  0146  0854               	movf	??___flmul,w
  4740  0147  07DA               	addwf	___flmul@grs,f
  4741  0148  0855               	movf	??___flmul+1,w
  4742  0149  1103               	clrz
  4743  014A  1803               	skipnc
  4744  014B  3E01               	addlw	1
  4745  014C  1903               	skipnz
  4746  014D  294F               	goto	u3111
  4747  014E  07DB               	addwf	___flmul@grs+1,f
  4748  014F                     u3111:
  4749  014F  0856               	movf	??___flmul+2,w
  4750  0150  1103               	clrz
  4751  0151  1803               	skipnc
  4752  0152  3E01               	addlw	1
  4753  0153  1903               	skipnz
  4754  0154  2956               	goto	u3112
  4755  0155  07DC               	addwf	___flmul@grs+2,f
  4756  0156                     u3112:
  4757  0156  0857               	movf	??___flmul+3,w
  4758  0157  1103               	clrz
  4759  0158  1803               	skipnc
  4760  0159  3E01               	addlw	1
  4761  015A  1903               	skipnz
  4762  015B  295D               	goto	u3113
  4763  015C  07DD               	addwf	___flmul@grs+3,f
  4764  015D                     u3113:
  4765  015D                     l2343:
  4766  015D  0865               	movf	___flmul@temp+1,w
  4767  015E  00D4               	movwf	??___flmul
  4768  015F  01D5               	clrf	??___flmul+1
  4769  0160  01D6               	clrf	??___flmul+2
  4770  0161  01D7               	clrf	??___flmul+3
  4771  0162  0854               	movf	??___flmul,w
  4772  0163  07E0               	addwf	___flmul@prod,f
  4773  0164  0855               	movf	??___flmul+1,w
  4774  0165  1103               	clrz
  4775  0166  1803               	skipnc
  4776  0167  3E01               	addlw	1
  4777  0168  1903               	skipnz
  4778  0169  296B               	goto	u3121
  4779  016A  07E1               	addwf	___flmul@prod+1,f
  4780  016B                     u3121:
  4781  016B  0856               	movf	??___flmul+2,w
  4782  016C  1103               	clrz
  4783  016D  1803               	skipnc
  4784  016E  3E01               	addlw	1
  4785  016F  1903               	skipnz
  4786  0170  2972               	goto	u3122
  4787  0171  07E2               	addwf	___flmul@prod+2,f
  4788  0172                     u3122:
  4789  0172  0857               	movf	??___flmul+3,w
  4790  0173  1103               	clrz
  4791  0174  1803               	skipnc
  4792  0175  3E01               	addlw	1
  4793  0176  1903               	skipnz
  4794  0177  2979               	goto	u3123
  4795  0178  07E3               	addwf	___flmul@prod+3,f
  4796  0179                     u3123:
  4797  0179  084E               	movf	___flmul@b+2,w
  4798  017A  00D4               	movwf	??___flmul
  4799  017B  0854               	movf	??___flmul,w
  4800  017C  00F0               	movwf	__Umul8_16@multiplicand
  4801  017D  0850               	movf	___flmul@a,w
  4802  017E  160A  118A  260A  120A  118A  	fcall	__Umul8_16
  4803  0183  0871               	movf	?__Umul8_16+1,w
  4804  0184  1283               	bcf	3,5	;RP0=0, select bank0
  4805  0185  1303               	bcf	3,6	;RP1=0, select bank0
  4806  0186  00E5               	movwf	___flmul@temp+1
  4807  0187  0870               	movf	?__Umul8_16,w
  4808  0188  00E4               	movwf	___flmul@temp
  4809  0189                     l2345:
  4810  0189  0864               	movf	___flmul@temp,w
  4811  018A  00D4               	movwf	??___flmul
  4812  018B  01D5               	clrf	??___flmul+1
  4813  018C  01D6               	clrf	??___flmul+2
  4814  018D  01D7               	clrf	??___flmul+3
  4815  018E  0854               	movf	??___flmul,w
  4816  018F  07DA               	addwf	___flmul@grs,f
  4817  0190  0855               	movf	??___flmul+1,w
  4818  0191  1103               	clrz
  4819  0192  1803               	skipnc
  4820  0193  3E01               	addlw	1
  4821  0194  1903               	skipnz
  4822  0195  2997               	goto	u3131
  4823  0196  07DB               	addwf	___flmul@grs+1,f
  4824  0197                     u3131:
  4825  0197  0856               	movf	??___flmul+2,w
  4826  0198  1103               	clrz
  4827  0199  1803               	skipnc
  4828  019A  3E01               	addlw	1
  4829  019B  1903               	skipnz
  4830  019C  299E               	goto	u3132
  4831  019D  07DC               	addwf	___flmul@grs+2,f
  4832  019E                     u3132:
  4833  019E  0857               	movf	??___flmul+3,w
  4834  019F  1103               	clrz
  4835  01A0  1803               	skipnc
  4836  01A1  3E01               	addlw	1
  4837  01A2  1903               	skipnz
  4838  01A3  29A5               	goto	u3133
  4839  01A4  07DD               	addwf	___flmul@grs+3,f
  4840  01A5                     u3133:
  4841  01A5                     l2347:
  4842  01A5  0865               	movf	___flmul@temp+1,w
  4843  01A6  00D4               	movwf	??___flmul
  4844  01A7  01D5               	clrf	??___flmul+1
  4845  01A8  01D6               	clrf	??___flmul+2
  4846  01A9  01D7               	clrf	??___flmul+3
  4847  01AA  0854               	movf	??___flmul,w
  4848  01AB  07E0               	addwf	___flmul@prod,f
  4849  01AC  0855               	movf	??___flmul+1,w
  4850  01AD  1103               	clrz
  4851  01AE  1803               	skipnc
  4852  01AF  3E01               	addlw	1
  4853  01B0  1903               	skipnz
  4854  01B1  29B3               	goto	u3141
  4855  01B2  07E1               	addwf	___flmul@prod+1,f
  4856  01B3                     u3141:
  4857  01B3  0856               	movf	??___flmul+2,w
  4858  01B4  1103               	clrz
  4859  01B5  1803               	skipnc
  4860  01B6  3E01               	addlw	1
  4861  01B7  1903               	skipnz
  4862  01B8  29BA               	goto	u3142
  4863  01B9  07E2               	addwf	___flmul@prod+2,f
  4864  01BA                     u3142:
  4865  01BA  0857               	movf	??___flmul+3,w
  4866  01BB  1103               	clrz
  4867  01BC  1803               	skipnc
  4868  01BD  3E01               	addlw	1
  4869  01BE  1903               	skipnz
  4870  01BF  29C1               	goto	u3143
  4871  01C0  07E3               	addwf	___flmul@prod+3,f
  4872  01C1                     u3143:
  4873  01C1                     l2349:
  4874  01C1  3008               	movlw	8
  4875  01C2  00D4               	movwf	??___flmul
  4876  01C3                     u3155:
  4877  01C3  1003               	clrc
  4878  01C4  0DDA               	rlf	___flmul@grs,f
  4879  01C5  0DDB               	rlf	___flmul@grs+1,f
  4880  01C6  0DDC               	rlf	___flmul@grs+2,f
  4881  01C7  0DDD               	rlf	___flmul@grs+3,f
  4882  01C8  0BD4               	decfsz	??___flmul,f
  4883  01C9  29C3               	goto	u3155
  4884  01CA                     l2351:
  4885  01CA  084D               	movf	___flmul@b+1,w
  4886  01CB  00D4               	movwf	??___flmul
  4887  01CC  0854               	movf	??___flmul,w
  4888  01CD  00F0               	movwf	__Umul8_16@multiplicand
  4889  01CE  0850               	movf	___flmul@a,w
  4890  01CF  160A  118A  260A  120A  118A  	fcall	__Umul8_16
  4891  01D4  0871               	movf	?__Umul8_16+1,w
  4892  01D5  1283               	bcf	3,5	;RP0=0, select bank0
  4893  01D6  1303               	bcf	3,6	;RP1=0, select bank0
  4894  01D7  00E5               	movwf	___flmul@temp+1
  4895  01D8  0870               	movf	?__Umul8_16,w
  4896  01D9  00E4               	movwf	___flmul@temp
  4897  01DA                     l2353:
  4898  01DA  0864               	movf	___flmul@temp,w
  4899  01DB  00D4               	movwf	??___flmul
  4900  01DC  0865               	movf	___flmul@temp+1,w
  4901  01DD  00D5               	movwf	??___flmul+1
  4902  01DE  01D6               	clrf	??___flmul+2
  4903  01DF  01D7               	clrf	??___flmul+3
  4904  01E0  0854               	movf	??___flmul,w
  4905  01E1  07DA               	addwf	___flmul@grs,f
  4906  01E2  0855               	movf	??___flmul+1,w
  4907  01E3  1103               	clrz
  4908  01E4  1803               	skipnc
  4909  01E5  3E01               	addlw	1
  4910  01E6  1903               	skipnz
  4911  01E7  29E9               	goto	u3161
  4912  01E8  07DB               	addwf	___flmul@grs+1,f
  4913  01E9                     u3161:
  4914  01E9  0856               	movf	??___flmul+2,w
  4915  01EA  1103               	clrz
  4916  01EB  1803               	skipnc
  4917  01EC  3E01               	addlw	1
  4918  01ED  1903               	skipnz
  4919  01EE  29F0               	goto	u3162
  4920  01EF  07DC               	addwf	___flmul@grs+2,f
  4921  01F0                     u3162:
  4922  01F0  0857               	movf	??___flmul+3,w
  4923  01F1  1103               	clrz
  4924  01F2  1803               	skipnc
  4925  01F3  3E01               	addlw	1
  4926  01F4  1903               	skipnz
  4927  01F5  29F7               	goto	u3163
  4928  01F6  07DD               	addwf	___flmul@grs+3,f
  4929  01F7                     u3163:
  4930  01F7                     l2355:
  4931  01F7  084C               	movf	___flmul@b,w
  4932  01F8  00D4               	movwf	??___flmul
  4933  01F9  0854               	movf	??___flmul,w
  4934  01FA  00F0               	movwf	__Umul8_16@multiplicand
  4935  01FB  0851               	movf	___flmul@a+1,w
  4936  01FC  160A  118A  260A  120A  118A  	fcall	__Umul8_16
  4937  0201  0871               	movf	?__Umul8_16+1,w
  4938  0202  1283               	bcf	3,5	;RP0=0, select bank0
  4939  0203  1303               	bcf	3,6	;RP1=0, select bank0
  4940  0204  00E5               	movwf	___flmul@temp+1
  4941  0205  0870               	movf	?__Umul8_16,w
  4942  0206  00E4               	movwf	___flmul@temp
  4943  0207                     l2357:
  4944  0207  0864               	movf	___flmul@temp,w
  4945  0208  00D4               	movwf	??___flmul
  4946  0209  0865               	movf	___flmul@temp+1,w
  4947  020A  00D5               	movwf	??___flmul+1
  4948  020B  01D6               	clrf	??___flmul+2
  4949  020C  01D7               	clrf	??___flmul+3
  4950  020D  0854               	movf	??___flmul,w
  4951  020E  07DA               	addwf	___flmul@grs,f
  4952  020F  0855               	movf	??___flmul+1,w
  4953  0210  1103               	clrz
  4954  0211  1803               	skipnc
  4955  0212  3E01               	addlw	1
  4956  0213  1903               	skipnz
  4957  0214  2A16               	goto	u3171
  4958  0215  07DB               	addwf	___flmul@grs+1,f
  4959  0216                     u3171:
  4960  0216  0856               	movf	??___flmul+2,w
  4961  0217  1103               	clrz
  4962  0218  1803               	skipnc
  4963  0219  3E01               	addlw	1
  4964  021A  1903               	skipnz
  4965  021B  2A1D               	goto	u3172
  4966  021C  07DC               	addwf	___flmul@grs+2,f
  4967  021D                     u3172:
  4968  021D  0857               	movf	??___flmul+3,w
  4969  021E  1103               	clrz
  4970  021F  1803               	skipnc
  4971  0220  3E01               	addlw	1
  4972  0221  1903               	skipnz
  4973  0222  2A24               	goto	u3173
  4974  0223  07DD               	addwf	___flmul@grs+3,f
  4975  0224                     u3173:
  4976  0224                     l2359:
  4977  0224  3008               	movlw	8
  4978  0225  00D4               	movwf	??___flmul
  4979  0226                     u3185:
  4980  0226  1003               	clrc
  4981  0227  0DDA               	rlf	___flmul@grs,f
  4982  0228  0DDB               	rlf	___flmul@grs+1,f
  4983  0229  0DDC               	rlf	___flmul@grs+2,f
  4984  022A  0DDD               	rlf	___flmul@grs+3,f
  4985  022B  0BD4               	decfsz	??___flmul,f
  4986  022C  2A26               	goto	u3185
  4987  022D  084C               	movf	___flmul@b,w
  4988  022E  00D4               	movwf	??___flmul
  4989  022F  0854               	movf	??___flmul,w
  4990  0230  00F0               	movwf	__Umul8_16@multiplicand
  4991  0231  0850               	movf	___flmul@a,w
  4992  0232  160A  118A  260A  120A  118A  	fcall	__Umul8_16
  4993  0237  0871               	movf	?__Umul8_16+1,w
  4994  0238  1283               	bcf	3,5	;RP0=0, select bank0
  4995  0239  1303               	bcf	3,6	;RP1=0, select bank0
  4996  023A  00E5               	movwf	___flmul@temp+1
  4997  023B  0870               	movf	?__Umul8_16,w
  4998  023C  00E4               	movwf	___flmul@temp
  4999  023D                     l2361:
  5000  023D  0864               	movf	___flmul@temp,w
  5001  023E  00D4               	movwf	??___flmul
  5002  023F  0865               	movf	___flmul@temp+1,w
  5003  0240  00D5               	movwf	??___flmul+1
  5004  0241  01D6               	clrf	??___flmul+2
  5005  0242  01D7               	clrf	??___flmul+3
  5006  0243  0854               	movf	??___flmul,w
  5007  0244  07DA               	addwf	___flmul@grs,f
  5008  0245  0855               	movf	??___flmul+1,w
  5009  0246  1103               	clrz
  5010  0247  1803               	skipnc
  5011  0248  3E01               	addlw	1
  5012  0249  1903               	skipnz
  5013  024A  2A4C               	goto	u3191
  5014  024B  07DB               	addwf	___flmul@grs+1,f
  5015  024C                     u3191:
  5016  024C  0856               	movf	??___flmul+2,w
  5017  024D  1103               	clrz
  5018  024E  1803               	skipnc
  5019  024F  3E01               	addlw	1
  5020  0250  1903               	skipnz
  5021  0251  2A53               	goto	u3192
  5022  0252  07DC               	addwf	___flmul@grs+2,f
  5023  0253                     u3192:
  5024  0253  0857               	movf	??___flmul+3,w
  5025  0254  1103               	clrz
  5026  0255  1803               	skipnc
  5027  0256  3E01               	addlw	1
  5028  0257  1903               	skipnz
  5029  0258  2A5A               	goto	u3193
  5030  0259  07DD               	addwf	___flmul@grs+3,f
  5031  025A                     u3193:
  5032  025A                     l2363:
  5033  025A  084D               	movf	___flmul@b+1,w
  5034  025B  00D4               	movwf	??___flmul
  5035  025C  0854               	movf	??___flmul,w
  5036  025D  00F0               	movwf	__Umul8_16@multiplicand
  5037  025E  0852               	movf	___flmul@a+2,w
  5038  025F  160A  118A  260A  120A  118A  	fcall	__Umul8_16
  5039  0264  0871               	movf	?__Umul8_16+1,w
  5040  0265  1283               	bcf	3,5	;RP0=0, select bank0
  5041  0266  1303               	bcf	3,6	;RP1=0, select bank0
  5042  0267  00E5               	movwf	___flmul@temp+1
  5043  0268  0870               	movf	?__Umul8_16,w
  5044  0269  00E4               	movwf	___flmul@temp
  5045  026A  0864               	movf	___flmul@temp,w
  5046  026B  00D4               	movwf	??___flmul
  5047  026C  0865               	movf	___flmul@temp+1,w
  5048  026D  00D5               	movwf	??___flmul+1
  5049  026E  01D6               	clrf	??___flmul+2
  5050  026F  01D7               	clrf	??___flmul+3
  5051  0270  0854               	movf	??___flmul,w
  5052  0271  07E0               	addwf	___flmul@prod,f
  5053  0272  0855               	movf	??___flmul+1,w
  5054  0273  1103               	clrz
  5055  0274  1803               	skipnc
  5056  0275  3E01               	addlw	1
  5057  0276  1903               	skipnz
  5058  0277  2A79               	goto	u3201
  5059  0278  07E1               	addwf	___flmul@prod+1,f
  5060  0279                     u3201:
  5061  0279  0856               	movf	??___flmul+2,w
  5062  027A  1103               	clrz
  5063  027B  1803               	skipnc
  5064  027C  3E01               	addlw	1
  5065  027D  1903               	skipnz
  5066  027E  2A80               	goto	u3202
  5067  027F  07E2               	addwf	___flmul@prod+2,f
  5068  0280                     u3202:
  5069  0280  0857               	movf	??___flmul+3,w
  5070  0281  1103               	clrz
  5071  0282  1803               	skipnc
  5072  0283  3E01               	addlw	1
  5073  0284  1903               	skipnz
  5074  0285  2A87               	goto	u3203
  5075  0286  07E3               	addwf	___flmul@prod+3,f
  5076  0287                     u3203:
  5077  0287                     l2365:
  5078  0287  084E               	movf	___flmul@b+2,w
  5079  0288  00D4               	movwf	??___flmul
  5080  0289  0854               	movf	??___flmul,w
  5081  028A  00F0               	movwf	__Umul8_16@multiplicand
  5082  028B  0851               	movf	___flmul@a+1,w
  5083  028C  160A  118A  260A  120A  118A  	fcall	__Umul8_16
  5084  0291  0871               	movf	?__Umul8_16+1,w
  5085  0292  1283               	bcf	3,5	;RP0=0, select bank0
  5086  0293  1303               	bcf	3,6	;RP1=0, select bank0
  5087  0294  00E5               	movwf	___flmul@temp+1
  5088  0295  0870               	movf	?__Umul8_16,w
  5089  0296  00E4               	movwf	___flmul@temp
  5090  0297                     l2367:
  5091  0297  0864               	movf	___flmul@temp,w
  5092  0298  00D4               	movwf	??___flmul
  5093  0299  0865               	movf	___flmul@temp+1,w
  5094  029A  00D5               	movwf	??___flmul+1
  5095  029B  01D6               	clrf	??___flmul+2
  5096  029C  01D7               	clrf	??___flmul+3
  5097  029D  0854               	movf	??___flmul,w
  5098  029E  07E0               	addwf	___flmul@prod,f
  5099  029F  0855               	movf	??___flmul+1,w
  5100  02A0  1103               	clrz
  5101  02A1  1803               	skipnc
  5102  02A2  3E01               	addlw	1
  5103  02A3  1903               	skipnz
  5104  02A4  2AA6               	goto	u3211
  5105  02A5  07E1               	addwf	___flmul@prod+1,f
  5106  02A6                     u3211:
  5107  02A6  0856               	movf	??___flmul+2,w
  5108  02A7  1103               	clrz
  5109  02A8  1803               	skipnc
  5110  02A9  3E01               	addlw	1
  5111  02AA  1903               	skipnz
  5112  02AB  2AAD               	goto	u3212
  5113  02AC  07E2               	addwf	___flmul@prod+2,f
  5114  02AD                     u3212:
  5115  02AD  0857               	movf	??___flmul+3,w
  5116  02AE  1103               	clrz
  5117  02AF  1803               	skipnc
  5118  02B0  3E01               	addlw	1
  5119  02B1  1903               	skipnz
  5120  02B2  2AB4               	goto	u3213
  5121  02B3  07E3               	addwf	___flmul@prod+3,f
  5122  02B4                     u3213:
  5123  02B4  084E               	movf	___flmul@b+2,w
  5124  02B5  00D4               	movwf	??___flmul
  5125  02B6  0854               	movf	??___flmul,w
  5126  02B7  00F0               	movwf	__Umul8_16@multiplicand
  5127  02B8  0852               	movf	___flmul@a+2,w
  5128  02B9  160A  118A  260A  120A  118A  	fcall	__Umul8_16
  5129  02BE  0871               	movf	?__Umul8_16+1,w
  5130  02BF  1283               	bcf	3,5	;RP0=0, select bank0
  5131  02C0  1303               	bcf	3,6	;RP1=0, select bank0
  5132  02C1  00E5               	movwf	___flmul@temp+1
  5133  02C2  0870               	movf	?__Umul8_16,w
  5134  02C3  00E4               	movwf	___flmul@temp
  5135  02C4                     l2369:
  5136  02C4  0864               	movf	___flmul@temp,w
  5137  02C5  00D4               	movwf	??___flmul
  5138  02C6  0865               	movf	___flmul@temp+1,w
  5139  02C7  00D5               	movwf	??___flmul+1
  5140  02C8  01D6               	clrf	??___flmul+2
  5141  02C9  01D7               	clrf	??___flmul+3
  5142  02CA  3008               	movlw	8
  5143  02CB                     u3225:
  5144  02CB  1003               	clrc
  5145  02CC  0DD4               	rlf	??___flmul,f
  5146  02CD  0DD5               	rlf	??___flmul+1,f
  5147  02CE  0DD6               	rlf	??___flmul+2,f
  5148  02CF  0DD7               	rlf	??___flmul+3,f
  5149  02D0                     u3220:
  5150  02D0  3EFF               	addlw	-1
  5151  02D1  1D03               	skipz
  5152  02D2  2ACB               	goto	u3225
  5153  02D3  0854               	movf	??___flmul,w
  5154  02D4  07E0               	addwf	___flmul@prod,f
  5155  02D5  0855               	movf	??___flmul+1,w
  5156  02D6  1103               	clrz
  5157  02D7  1803               	skipnc
  5158  02D8  3E01               	addlw	1
  5159  02D9  1903               	skipnz
  5160  02DA  2ADC               	goto	u3231
  5161  02DB  07E1               	addwf	___flmul@prod+1,f
  5162  02DC                     u3231:
  5163  02DC  0856               	movf	??___flmul+2,w
  5164  02DD  1103               	clrz
  5165  02DE  1803               	skipnc
  5166  02DF  3E01               	addlw	1
  5167  02E0  1903               	skipnz
  5168  02E1  2AE3               	goto	u3232
  5169  02E2  07E2               	addwf	___flmul@prod+2,f
  5170  02E3                     u3232:
  5171  02E3  0857               	movf	??___flmul+3,w
  5172  02E4  1103               	clrz
  5173  02E5  1803               	skipnc
  5174  02E6  3E01               	addlw	1
  5175  02E7  1903               	skipnz
  5176  02E8  2AEA               	goto	u3233
  5177  02E9  07E3               	addwf	___flmul@prod+3,f
  5178  02EA                     u3233:
  5179  02EA                     l2371:
  5180  02EA  085A               	movf	___flmul@grs,w
  5181  02EB  00D4               	movwf	??___flmul
  5182  02EC  085B               	movf	___flmul@grs+1,w
  5183  02ED  00D5               	movwf	??___flmul+1
  5184  02EE  085C               	movf	___flmul@grs+2,w
  5185  02EF  00D6               	movwf	??___flmul+2
  5186  02F0  085D               	movf	___flmul@grs+3,w
  5187  02F1  00D7               	movwf	??___flmul+3
  5188  02F2  3018               	movlw	24
  5189  02F3                     u3245:
  5190  02F3  1003               	clrc
  5191  02F4  0CD7               	rrf	??___flmul+3,f
  5192  02F5  0CD6               	rrf	??___flmul+2,f
  5193  02F6  0CD5               	rrf	??___flmul+1,f
  5194  02F7  0CD4               	rrf	??___flmul,f
  5195  02F8                     u3240:
  5196  02F8  3EFF               	addlw	-1
  5197  02F9  1D03               	skipz
  5198  02FA  2AF3               	goto	u3245
  5199  02FB  0854               	movf	??___flmul,w
  5200  02FC  07E0               	addwf	___flmul@prod,f
  5201  02FD  0855               	movf	??___flmul+1,w
  5202  02FE  1103               	clrz
  5203  02FF  1803               	skipnc
  5204  0300  3E01               	addlw	1
  5205  0301  1903               	skipnz
  5206  0302  2B04               	goto	u3251
  5207  0303  07E1               	addwf	___flmul@prod+1,f
  5208  0304                     u3251:
  5209  0304  0856               	movf	??___flmul+2,w
  5210  0305  1103               	clrz
  5211  0306  1803               	skipnc
  5212  0307  3E01               	addlw	1
  5213  0308  1903               	skipnz
  5214  0309  2B0B               	goto	u3252
  5215  030A  07E2               	addwf	___flmul@prod+2,f
  5216  030B                     u3252:
  5217  030B  0857               	movf	??___flmul+3,w
  5218  030C  1103               	clrz
  5219  030D  1803               	skipnc
  5220  030E  3E01               	addlw	1
  5221  030F  1903               	skipnz
  5222  0310  2B12               	goto	u3253
  5223  0311  07E3               	addwf	___flmul@prod+3,f
  5224  0312                     u3253:
  5225  0312                     l2373:
  5226  0312  3008               	movlw	8
  5227  0313  00D4               	movwf	??___flmul
  5228  0314                     u3265:
  5229  0314  1003               	clrc
  5230  0315  0DDA               	rlf	___flmul@grs,f
  5231  0316  0DDB               	rlf	___flmul@grs+1,f
  5232  0317  0DDC               	rlf	___flmul@grs+2,f
  5233  0318  0DDD               	rlf	___flmul@grs+3,f
  5234  0319  0BD4               	decfsz	??___flmul,f
  5235  031A  2B14               	goto	u3265
  5236  031B                     l2375:
  5237  031B  085F               	movf	___flmul@bexp,w
  5238  031C  075E               	addwf	___flmul@aexp,w
  5239  031D  00D4               	movwf	??___flmul
  5240  031E  01D5               	clrf	??___flmul+1
  5241  031F  0DD5               	rlf	??___flmul+1,f
  5242  0320  0854               	movf	??___flmul,w
  5243  0321  3E82               	addlw	130
  5244  0322  00E4               	movwf	___flmul@temp
  5245  0323  0855               	movf	??___flmul+1,w
  5246  0324  1803               	skipnc
  5247  0325  3E01               	addlw	1
  5248  0326  3EFF               	addlw	255
  5249  0327  00E5               	movwf	___flmul@temp+1
  5250  0328  2B46               	goto	l2387
  5251  0329                     l2377:
  5252  0329  3001               	movlw	1
  5253  032A  00D4               	movwf	??___flmul
  5254  032B                     u3275:
  5255  032B  1003               	clrc
  5256  032C  0DE0               	rlf	___flmul@prod,f
  5257  032D  0DE1               	rlf	___flmul@prod+1,f
  5258  032E  0DE2               	rlf	___flmul@prod+2,f
  5259  032F  0DE3               	rlf	___flmul@prod+3,f
  5260  0330  0BD4               	decfsz	??___flmul,f
  5261  0331  2B2B               	goto	u3275
  5262  0332                     l2379:
  5263  0332  1FDD               	btfss	___flmul@grs+3,7
  5264  0333  2B35               	goto	u3281
  5265  0334  2B36               	goto	u3280
  5266  0335                     u3281:
  5267  0335  2B37               	goto	l2383
  5268  0336                     u3280:
  5269  0336                     l2381:
  5270  0336  1460               	bsf	___flmul@prod,0
  5271  0337                     l2383:
  5272  0337  3001               	movlw	1
  5273  0338  00D4               	movwf	??___flmul
  5274  0339                     u3295:
  5275  0339  1003               	clrc
  5276  033A  0DDA               	rlf	___flmul@grs,f
  5277  033B  0DDB               	rlf	___flmul@grs+1,f
  5278  033C  0DDC               	rlf	___flmul@grs+2,f
  5279  033D  0DDD               	rlf	___flmul@grs+3,f
  5280  033E  0BD4               	decfsz	??___flmul,f
  5281  033F  2B39               	goto	u3295
  5282  0340                     l2385:
  5283  0340  30FF               	movlw	255
  5284  0341  07E4               	addwf	___flmul@temp,f
  5285  0342  1803               	skipnc
  5286  0343  0AE5               	incf	___flmul@temp+1,f
  5287  0344  30FF               	movlw	255
  5288  0345  07E5               	addwf	___flmul@temp+1,f
  5289  0346                     l2387:
  5290  0346  1FE2               	btfss	___flmul@prod+2,7
  5291  0347  2B49               	goto	u3301
  5292  0348  2B4A               	goto	u3300
  5293  0349                     u3301:
  5294  0349  2B29               	goto	l2377
  5295  034A                     u3300:
  5296  034A                     l2389:
  5297  034A  01DE               	clrf	___flmul@aexp
  5298  034B                     l2391:
  5299  034B  1FDD               	btfss	___flmul@grs+3,7
  5300  034C  2B4E               	goto	u3311
  5301  034D  2B4F               	goto	u3310
  5302  034E                     u3311:
  5303  034E  2B6B               	goto	l2399
  5304  034F                     u3310:
  5305  034F                     l2393:
  5306  034F  30FF               	movlw	255
  5307  0350  055A               	andwf	___flmul@grs,w
  5308  0351  00D4               	movwf	??___flmul
  5309  0352  30FF               	movlw	255
  5310  0353  055B               	andwf	___flmul@grs+1,w
  5311  0354  00D5               	movwf	??___flmul+1
  5312  0355  30FF               	movlw	255
  5313  0356  055C               	andwf	___flmul@grs+2,w
  5314  0357  00D6               	movwf	??___flmul+2
  5315  0358  307F               	movlw	127
  5316  0359  055D               	andwf	___flmul@grs+3,w
  5317  035A  00D7               	movwf	??___flmul+3
  5318  035B  0857               	movf	??___flmul+3,w
  5319  035C  0456               	iorwf	??___flmul+2,w
  5320  035D  0455               	iorwf	??___flmul+1,w
  5321  035E  0454               	iorwf	??___flmul,w
  5322  035F  1903               	skipnz
  5323  0360  2B62               	goto	u3321
  5324  0361  2B63               	goto	u3320
  5325  0362                     u3321:
  5326  0362  2B66               	goto	l670
  5327  0363                     u3320:
  5328  0363                     l2395:
  5329  0363  01DE               	clrf	___flmul@aexp
  5330  0364  0ADE               	incf	___flmul@aexp,f
  5331  0365  2B6B               	goto	l2399
  5332  0366                     l670:
  5333  0366  1C60               	btfss	___flmul@prod,0
  5334  0367  2B69               	goto	u3331
  5335  0368  2B6A               	goto	u3330
  5336  0369                     u3331:
  5337  0369  2B6B               	goto	l2399
  5338  036A                     u3330:
  5339  036A  2B63               	goto	l2395
  5340  036B                     l2399:
  5341  036B  085E               	movf	___flmul@aexp,w
  5342  036C  1903               	btfsc	3,2
  5343  036D  2B6F               	goto	u3341
  5344  036E  2B70               	goto	u3340
  5345  036F                     u3341:
  5346  036F  2BA1               	goto	l2409
  5347  0370                     u3340:
  5348  0370                     l2401:
  5349  0370  3001               	movlw	1
  5350  0371  07E0               	addwf	___flmul@prod,f
  5351  0372  3000               	movlw	0
  5352  0373  1803               	skipnc
  5353  0374  3001               	movlw	1
  5354  0375  07E1               	addwf	___flmul@prod+1,f
  5355  0376  3000               	movlw	0
  5356  0377  1803               	skipnc
  5357  0378  3001               	movlw	1
  5358  0379  07E2               	addwf	___flmul@prod+2,f
  5359  037A  3000               	movlw	0
  5360  037B  1803               	skipnc
  5361  037C  3001               	movlw	1
  5362  037D  07E3               	addwf	___flmul@prod+3,f
  5363  037E                     l2403:
  5364  037E  1C63               	btfss	___flmul@prod+3,0
  5365  037F  2B81               	goto	u3351
  5366  0380  2B82               	goto	u3350
  5367  0381                     u3351:
  5368  0381  2BA1               	goto	l2409
  5369  0382                     u3350:
  5370  0382                     l2405:
  5371  0382  0860               	movf	___flmul@prod,w
  5372  0383  00D4               	movwf	??___flmul
  5373  0384  0861               	movf	___flmul@prod+1,w
  5374  0385  00D5               	movwf	??___flmul+1
  5375  0386  0862               	movf	___flmul@prod+2,w
  5376  0387  00D6               	movwf	??___flmul+2
  5377  0388  0863               	movf	___flmul@prod+3,w
  5378  0389  00D7               	movwf	??___flmul+3
  5379  038A  3001               	movlw	1
  5380  038B  00D8               	movwf	??___flmul+4
  5381  038C                     u3365:
  5382  038C  0D57               	rlf	??___flmul+3,w
  5383  038D  0CD7               	rrf	??___flmul+3,f
  5384  038E  0CD6               	rrf	??___flmul+2,f
  5385  038F  0CD5               	rrf	??___flmul+1,f
  5386  0390  0CD4               	rrf	??___flmul,f
  5387  0391                     u3360:
  5388  0391  0BD8               	decfsz	??___flmul+4,f
  5389  0392  2B8C               	goto	u3365
  5390  0393  0857               	movf	??___flmul+3,w
  5391  0394  00E3               	movwf	___flmul@prod+3
  5392  0395  0856               	movf	??___flmul+2,w
  5393  0396  00E2               	movwf	___flmul@prod+2
  5394  0397  0855               	movf	??___flmul+1,w
  5395  0398  00E1               	movwf	___flmul@prod+1
  5396  0399  0854               	movf	??___flmul,w
  5397  039A  00E0               	movwf	___flmul@prod
  5398  039B                     l2407:
  5399  039B  3001               	movlw	1
  5400  039C  07E4               	addwf	___flmul@temp,f
  5401  039D  1803               	skipnc
  5402  039E  0AE5               	incf	___flmul@temp+1,f
  5403  039F  3000               	movlw	0
  5404  03A0  07E5               	addwf	___flmul@temp+1,f
  5405  03A1                     l2409:
  5406  03A1  0865               	movf	___flmul@temp+1,w
  5407  03A2  3A80               	xorlw	128
  5408  03A3  00FF               	movwf	btemp+1
  5409  03A4  3080               	movlw	128
  5410  03A5  027F               	subwf	btemp+1,w
  5411  03A6  1D03               	skipz
  5412  03A7  2BAA               	goto	u3375
  5413  03A8  30FF               	movlw	255
  5414  03A9  0264               	subwf	___flmul@temp,w
  5415  03AA                     u3375:
  5416  03AA  1C03               	skipc
  5417  03AB  2BAD               	goto	u3371
  5418  03AC  2BAE               	goto	u3370
  5419  03AD                     u3371:
  5420  03AD  2BB9               	goto	l2413
  5421  03AE                     u3370:
  5422  03AE                     l2411:
  5423  03AE  307F               	movlw	127
  5424  03AF  1283               	bcf	3,5	;RP0=0, select bank0
  5425  03B0  1303               	bcf	3,6	;RP1=0, select bank0
  5426  03B1  00E3               	movwf	___flmul@prod+3
  5427  03B2  3080               	movlw	128
  5428  03B3  00E2               	movwf	___flmul@prod+2
  5429  03B4  3000               	movlw	0
  5430  03B5  00E1               	movwf	___flmul@prod+1
  5431  03B6  3000               	movlw	0
  5432  03B7  00E0               	movwf	___flmul@prod
  5433  03B8  2BEE               	goto	l676
  5434  03B9                     l2413:
  5435  03B9  1283               	bcf	3,5	;RP0=0, select bank0
  5436  03BA  1303               	bcf	3,6	;RP1=0, select bank0
  5437  03BB  0865               	movf	___flmul@temp+1,w
  5438  03BC  3A80               	xorlw	128
  5439  03BD  00FF               	movwf	btemp+1
  5440  03BE  3080               	movlw	128
  5441  03BF  027F               	subwf	btemp+1,w
  5442  03C0  1D03               	skipz
  5443  03C1  2BC4               	goto	u3385
  5444  03C2  3001               	movlw	1
  5445  03C3  0264               	subwf	___flmul@temp,w
  5446  03C4                     u3385:
  5447  03C4  1803               	skipnc
  5448  03C5  2BC7               	goto	u3381
  5449  03C6  2BC8               	goto	u3380
  5450  03C7                     u3381:
  5451  03C7  2BD4               	goto	l2419
  5452  03C8                     u3380:
  5453  03C8                     l2415:
  5454  03C8  3000               	movlw	0
  5455  03C9  1283               	bcf	3,5	;RP0=0, select bank0
  5456  03CA  1303               	bcf	3,6	;RP1=0, select bank0
  5457  03CB  00E3               	movwf	___flmul@prod+3
  5458  03CC  3000               	movlw	0
  5459  03CD  00E2               	movwf	___flmul@prod+2
  5460  03CE  3000               	movlw	0
  5461  03CF  00E1               	movwf	___flmul@prod+1
  5462  03D0  3000               	movlw	0
  5463  03D1  00E0               	movwf	___flmul@prod
  5464  03D2                     l2417:
  5465  03D2  01D9               	clrf	___flmul@sign
  5466  03D3  2BEE               	goto	l676
  5467  03D4                     l2419:
  5468  03D4  1283               	bcf	3,5	;RP0=0, select bank0
  5469  03D5  1303               	bcf	3,6	;RP1=0, select bank0
  5470  03D6  0864               	movf	___flmul@temp,w
  5471  03D7  00D4               	movwf	??___flmul
  5472  03D8  0854               	movf	??___flmul,w
  5473  03D9  00DF               	movwf	___flmul@bexp
  5474  03DA  30FF               	movlw	255
  5475  03DB  05E0               	andwf	___flmul@prod,f
  5476  03DC  30FF               	movlw	255
  5477  03DD  05E1               	andwf	___flmul@prod+1,f
  5478  03DE  307F               	movlw	127
  5479  03DF  05E2               	andwf	___flmul@prod+2,f
  5480  03E0  3000               	movlw	0
  5481  03E1  05E3               	andwf	___flmul@prod+3,f
  5482  03E2                     l2421:
  5483  03E2  1C5F               	btfss	___flmul@bexp,0
  5484  03E3  2BE5               	goto	u3391
  5485  03E4  2BE6               	goto	u3390
  5486  03E5                     u3391:
  5487  03E5  2BE7               	goto	l2425
  5488  03E6                     u3390:
  5489  03E6                     l2423:
  5490  03E6  17E2               	bsf	___flmul@prod+2,7
  5491  03E7                     l2425:
  5492  03E7  085F               	movf	___flmul@bexp,w
  5493  03E8  00D4               	movwf	??___flmul
  5494  03E9  1003               	clrc
  5495  03EA  0C54               	rrf	??___flmul,w
  5496  03EB  00D5               	movwf	??___flmul+1
  5497  03EC  0855               	movf	??___flmul+1,w
  5498  03ED  00E3               	movwf	___flmul@prod+3
  5499  03EE                     l676:
  5500  03EE  0859               	movf	___flmul@sign,w
  5501  03EF  00D4               	movwf	??___flmul
  5502  03F0  0854               	movf	??___flmul,w
  5503  03F1  04E3               	iorwf	___flmul@prod+3,f
  5504  03F2                     l2427:
  5505  03F2  0863               	movf	___flmul@prod+3,w
  5506  03F3  00CF               	movwf	?___flmul+3
  5507  03F4  0862               	movf	___flmul@prod+2,w
  5508  03F5  00CE               	movwf	?___flmul+2
  5509  03F6  0861               	movf	___flmul@prod+1,w
  5510  03F7  00CD               	movwf	?___flmul+1
  5511  03F8  0860               	movf	___flmul@prod,w
  5512  03F9  00CC               	movwf	?___flmul
  5513  03FA                     l664:
  5514  03FA  0008               	return
  5515  03FB                     __end_of___flmul:
  5516                           
  5517                           	psect	text11
  5518  160A                     __ptext11:	
  5519 ;; *************** function __Umul8_16 *****************
  5520 ;; Defined at:
  5521 ;;		line 4 in file "C:\Program Files\Microchip\xc8\v2.31\pic\sources\c90\common\Umul8_16.c"
  5522 ;; Parameters:    Size  Location     Type
  5523 ;;  multiplier      1    wreg     unsigned char 
  5524 ;;  multiplicand    1    0[COMMON] unsigned char 
  5525 ;; Auto vars:     Size  Location     Type
  5526 ;;  multiplier      1    8[COMMON] unsigned char 
  5527 ;;  word_mpld       2    6[COMMON] unsigned int 
  5528 ;;  product         2    4[COMMON] unsigned int 
  5529 ;; Return value:  Size  Location     Type
  5530 ;;                  2    0[COMMON] unsigned int 
  5531 ;; Registers used:
  5532 ;;		wreg, status,2, status,0
  5533 ;; Tracked objects:
  5534 ;;		On entry : 0/0
  5535 ;;		On exit  : 0/0
  5536 ;;		Unchanged: 0/0
  5537 ;; Data sizes:     COMMON   BANK0   BANK1   BANK3   BANK2
  5538 ;;      Params:         2       0       0       0       0
  5539 ;;      Locals:         5       0       0       0       0
  5540 ;;      Temps:          2       0       0       0       0
  5541 ;;      Totals:         9       0       0       0       0
  5542 ;;Total ram usage:        9 bytes
  5543 ;; Hardware stack levels used:    1
  5544 ;; This function calls:
  5545 ;;		Nothing
  5546 ;; This function is called by:
  5547 ;;		___flmul
  5548 ;; This function uses a non-reentrant model
  5549 ;;
  5550                           
  5551                           
  5552                           ;psect for function __Umul8_16
  5553  160A                     __Umul8_16:
  5554                           
  5555                           ;incstack = 0
  5556                           ; Regs used in __Umul8_16: [wreg+status,2+status,0]
  5557                           ;__Umul8_16@multiplier stored from wreg
  5558  160A  00F8               	movwf	__Umul8_16@multiplier
  5559  160B                     l1979:
  5560  160B  01F4               	clrf	__Umul8_16@product
  5561  160C  01F5               	clrf	__Umul8_16@product+1
  5562  160D                     l1981:
  5563  160D  0870               	movf	__Umul8_16@multiplicand,w
  5564  160E  00F2               	movwf	??__Umul8_16
  5565  160F  01F3               	clrf	??__Umul8_16+1
  5566  1610  0872               	movf	??__Umul8_16,w
  5567  1611  00F6               	movwf	__Umul8_16@word_mpld
  5568  1612  0873               	movf	??__Umul8_16+1,w
  5569  1613  00F7               	movwf	__Umul8_16@word_mpld+1
  5570  1614                     l1983:
  5571  1614  1C78               	btfss	__Umul8_16@multiplier,0
  5572  1615  2E17               	goto	u2371
  5573  1616  2E18               	goto	u2370
  5574  1617                     u2371:
  5575  1617  2E1E               	goto	l683
  5576  1618                     u2370:
  5577  1618                     l1985:
  5578  1618  0876               	movf	__Umul8_16@word_mpld,w
  5579  1619  07F4               	addwf	__Umul8_16@product,f
  5580  161A  1803               	skipnc
  5581  161B  0AF5               	incf	__Umul8_16@product+1,f
  5582  161C  0877               	movf	__Umul8_16@word_mpld+1,w
  5583  161D  07F5               	addwf	__Umul8_16@product+1,f
  5584  161E                     l683:
  5585  161E  3001               	movlw	1
  5586  161F                     u2385:
  5587  161F  1003               	clrc
  5588  1620  0DF6               	rlf	__Umul8_16@word_mpld,f
  5589  1621  0DF7               	rlf	__Umul8_16@word_mpld+1,f
  5590  1622  3EFF               	addlw	-1
  5591  1623  1D03               	skipz
  5592  1624  2E1F               	goto	u2385
  5593  1625  1003               	clrc
  5594  1626  0CF8               	rrf	__Umul8_16@multiplier,f
  5595  1627                     l1987:
  5596  1627  0878               	movf	__Umul8_16@multiplier,w
  5597  1628  1D03               	btfss	3,2
  5598  1629  2E2B               	goto	u2391
  5599  162A  2E2C               	goto	u2390
  5600  162B                     u2391:
  5601  162B  2E14               	goto	l1983
  5602  162C                     u2390:
  5603  162C                     l1989:
  5604  162C  0875               	movf	__Umul8_16@product+1,w
  5605  162D  00F1               	movwf	?__Umul8_16+1
  5606  162E  0874               	movf	__Umul8_16@product,w
  5607  162F  00F0               	movwf	?__Umul8_16
  5608  1630                     l685:
  5609  1630  0008               	return
  5610  1631                     __end_of__Umul8_16:
  5611                           
  5612                           	psect	text12
  5613  0801                     __ptext12:	
  5614 ;; *************** function ___flge *****************
  5615 ;; Defined at:
  5616 ;;		line 4 in file "C:\Program Files\Microchip\xc8\v2.31\pic\sources\c90\common\flge.c"
  5617 ;; Parameters:    Size  Location     Type
  5618 ;;  ff1             4    0[COMMON] unsigned int 
  5619 ;;  ff2             4    4[COMMON] unsigned int 
  5620 ;; Auto vars:     Size  Location     Type
  5621 ;;		None
  5622 ;; Return value:  Size  Location     Type
  5623 ;;		None               void
  5624 ;; Registers used:
  5625 ;;		wreg, status,2, status,0
  5626 ;; Tracked objects:
  5627 ;;		On entry : 0/0
  5628 ;;		On exit  : 0/0
  5629 ;;		Unchanged: 0/0
  5630 ;; Data sizes:     COMMON   BANK0   BANK1   BANK3   BANK2
  5631 ;;      Params:         8       0       0       0       0
  5632 ;;      Locals:         0       0       0       0       0
  5633 ;;      Temps:          4       0       0       0       0
  5634 ;;      Totals:        12       0       0       0       0
  5635 ;;Total ram usage:       12 bytes
  5636 ;; Hardware stack levels used:    1
  5637 ;; This function calls:
  5638 ;;		Nothing
  5639 ;; This function is called by:
  5640 ;;		_convert
  5641 ;; This function uses a non-reentrant model
  5642 ;;
  5643                           
  5644                           
  5645                           ;psect for function ___flge
  5646  0801                     ___flge:
  5647  0801                     l2087:	
  5648                           ;incstack = 0
  5649                           ; Regs used in ___flge: [wreg+status,2+status,0]
  5650                           
  5651  0801  3000               	movlw	0
  5652  0802  0570               	andwf	___flge@ff1,w
  5653  0803  00F8               	movwf	??___flge
  5654  0804  3000               	movlw	0
  5655  0805  0571               	andwf	___flge@ff1+1,w
  5656  0806  00F9               	movwf	??___flge+1
  5657  0807  3080               	movlw	128
  5658  0808  0572               	andwf	___flge@ff1+2,w
  5659  0809  00FA               	movwf	??___flge+2
  5660  080A  307F               	movlw	127
  5661  080B  0573               	andwf	___flge@ff1+3,w
  5662  080C  00FB               	movwf	??___flge+3
  5663  080D  087B               	movf	??___flge+3,w
  5664  080E  047A               	iorwf	??___flge+2,w
  5665  080F  0479               	iorwf	??___flge+1,w
  5666  0810  0478               	iorwf	??___flge,w
  5667  0811  1D03               	skipz
  5668  0812  2814               	goto	u2571
  5669  0813  2815               	goto	u2570
  5670  0814                     u2571:
  5671  0814  281D               	goto	l449
  5672  0815                     u2570:
  5673  0815                     l2089:
  5674  0815  3000               	movlw	0
  5675  0816  00F3               	movwf	___flge@ff1+3
  5676  0817  3000               	movlw	0
  5677  0818  00F2               	movwf	___flge@ff1+2
  5678  0819  3000               	movlw	0
  5679  081A  00F1               	movwf	___flge@ff1+1
  5680  081B  3000               	movlw	0
  5681  081C  00F0               	movwf	___flge@ff1
  5682  081D                     l449:
  5683  081D  3000               	movlw	0
  5684  081E  0574               	andwf	___flge@ff2,w
  5685  081F  00F8               	movwf	??___flge
  5686  0820  3000               	movlw	0
  5687  0821  0575               	andwf	___flge@ff2+1,w
  5688  0822  00F9               	movwf	??___flge+1
  5689  0823  3080               	movlw	128
  5690  0824  0576               	andwf	___flge@ff2+2,w
  5691  0825  00FA               	movwf	??___flge+2
  5692  0826  307F               	movlw	127
  5693  0827  0577               	andwf	___flge@ff2+3,w
  5694  0828  00FB               	movwf	??___flge+3
  5695  0829  087B               	movf	??___flge+3,w
  5696  082A  047A               	iorwf	??___flge+2,w
  5697  082B  0479               	iorwf	??___flge+1,w
  5698  082C  0478               	iorwf	??___flge,w
  5699  082D  1D03               	skipz
  5700  082E  2830               	goto	u2581
  5701  082F  2831               	goto	u2580
  5702  0830                     u2581:
  5703  0830  2839               	goto	l2093
  5704  0831                     u2580:
  5705  0831                     l2091:
  5706  0831  3000               	movlw	0
  5707  0832  00F7               	movwf	___flge@ff2+3
  5708  0833  3000               	movlw	0
  5709  0834  00F6               	movwf	___flge@ff2+2
  5710  0835  3000               	movlw	0
  5711  0836  00F5               	movwf	___flge@ff2+1
  5712  0837  3000               	movlw	0
  5713  0838  00F4               	movwf	___flge@ff2
  5714  0839                     l2093:
  5715  0839  1FF3               	btfss	___flge@ff1+3,7
  5716  083A  283C               	goto	u2591
  5717  083B  283D               	goto	u2590
  5718  083C                     u2591:
  5719  083C  2861               	goto	l2097
  5720  083D                     u2590:
  5721  083D                     l2095:
  5722  083D  3000               	movlw	0
  5723  083E  00F8               	movwf	??___flge
  5724  083F  3000               	movlw	0
  5725  0840  00F9               	movwf	??___flge+1
  5726  0841  3000               	movlw	0
  5727  0842  00FA               	movwf	??___flge+2
  5728  0843  3080               	movlw	128
  5729  0844  00FB               	movwf	??___flge+3
  5730  0845  0870               	movf	___flge@ff1,w
  5731  0846  02F8               	subwf	??___flge,f
  5732  0847  0871               	movf	___flge@ff1+1,w
  5733  0848  1C03               	skipc
  5734  0849  0F71               	incfsz	___flge@ff1+1,w
  5735  084A  284C               	goto	u2601
  5736  084B  284D               	goto	u2602
  5737  084C                     u2601:
  5738  084C  02F9               	subwf	??___flge+1,f
  5739  084D                     u2602:
  5740  084D  0872               	movf	___flge@ff1+2,w
  5741  084E  1C03               	skipc
  5742  084F  0F72               	incfsz	___flge@ff1+2,w
  5743  0850  2852               	goto	u2603
  5744  0851  2853               	goto	u2604
  5745  0852                     u2603:
  5746  0852  02FA               	subwf	??___flge+2,f
  5747  0853                     u2604:
  5748  0853  0873               	movf	___flge@ff1+3,w
  5749  0854  1C03               	skipc
  5750  0855  0F73               	incfsz	___flge@ff1+3,w
  5751  0856  2858               	goto	u2605
  5752  0857  2859               	goto	u2606
  5753  0858                     u2605:
  5754  0858  02FB               	subwf	??___flge+3,f
  5755  0859                     u2606:
  5756  0859  087B               	movf	??___flge+3,w
  5757  085A  00F3               	movwf	___flge@ff1+3
  5758  085B  087A               	movf	??___flge+2,w
  5759  085C  00F2               	movwf	___flge@ff1+2
  5760  085D  0879               	movf	??___flge+1,w
  5761  085E  00F1               	movwf	___flge@ff1+1
  5762  085F  0878               	movf	??___flge,w
  5763  0860  00F0               	movwf	___flge@ff1
  5764  0861                     l2097:
  5765  0861  1FF7               	btfss	___flge@ff2+3,7
  5766  0862  2864               	goto	u2611
  5767  0863  2865               	goto	u2610
  5768  0864                     u2611:
  5769  0864  2889               	goto	l452
  5770  0865                     u2610:
  5771  0865                     l2099:
  5772  0865  3000               	movlw	0
  5773  0866  00F8               	movwf	??___flge
  5774  0867  3000               	movlw	0
  5775  0868  00F9               	movwf	??___flge+1
  5776  0869  3000               	movlw	0
  5777  086A  00FA               	movwf	??___flge+2
  5778  086B  3080               	movlw	128
  5779  086C  00FB               	movwf	??___flge+3
  5780  086D  0874               	movf	___flge@ff2,w
  5781  086E  02F8               	subwf	??___flge,f
  5782  086F  0875               	movf	___flge@ff2+1,w
  5783  0870  1C03               	skipc
  5784  0871  0F75               	incfsz	___flge@ff2+1,w
  5785  0872  2874               	goto	u2621
  5786  0873  2875               	goto	u2622
  5787  0874                     u2621:
  5788  0874  02F9               	subwf	??___flge+1,f
  5789  0875                     u2622:
  5790  0875  0876               	movf	___flge@ff2+2,w
  5791  0876  1C03               	skipc
  5792  0877  0F76               	incfsz	___flge@ff2+2,w
  5793  0878  287A               	goto	u2623
  5794  0879  287B               	goto	u2624
  5795  087A                     u2623:
  5796  087A  02FA               	subwf	??___flge+2,f
  5797  087B                     u2624:
  5798  087B  0877               	movf	___flge@ff2+3,w
  5799  087C  1C03               	skipc
  5800  087D  0F77               	incfsz	___flge@ff2+3,w
  5801  087E  2880               	goto	u2625
  5802  087F  2881               	goto	u2626
  5803  0880                     u2625:
  5804  0880  02FB               	subwf	??___flge+3,f
  5805  0881                     u2626:
  5806  0881  087B               	movf	??___flge+3,w
  5807  0882  00F7               	movwf	___flge@ff2+3
  5808  0883  087A               	movf	??___flge+2,w
  5809  0884  00F6               	movwf	___flge@ff2+2
  5810  0885  0879               	movf	??___flge+1,w
  5811  0886  00F5               	movwf	___flge@ff2+1
  5812  0887  0878               	movf	??___flge,w
  5813  0888  00F4               	movwf	___flge@ff2
  5814  0889                     l452:
  5815  0889  3080               	movlw	128
  5816  088A  06F3               	xorwf	___flge@ff1+3,f
  5817  088B  3080               	movlw	128
  5818  088C  06F7               	xorwf	___flge@ff2+3,f
  5819  088D  0877               	movf	___flge@ff2+3,w
  5820  088E  0273               	subwf	___flge@ff1+3,w
  5821  088F  1D03               	skipz
  5822  0890  289B               	goto	u2635
  5823  0891  0876               	movf	___flge@ff2+2,w
  5824  0892  0272               	subwf	___flge@ff1+2,w
  5825  0893  1D03               	skipz
  5826  0894  289B               	goto	u2635
  5827  0895  0875               	movf	___flge@ff2+1,w
  5828  0896  0271               	subwf	___flge@ff1+1,w
  5829  0897  1D03               	skipz
  5830  0898  289B               	goto	u2635
  5831  0899  0874               	movf	___flge@ff2,w
  5832  089A  0270               	subwf	___flge@ff1,w
  5833  089B                     u2635:
  5834  089B  1803               	skipnc
  5835  089C  289E               	goto	u2631
  5836  089D  289F               	goto	u2630
  5837  089E                     u2631:
  5838  089E  28A1               	goto	l2103
  5839  089F                     u2630:
  5840  089F                     l2101:
  5841  089F  1003               	clrc
  5842  08A0  28A2               	goto	l453
  5843  08A1                     l2103:
  5844  08A1  1403               	setc
  5845  08A2                     l453:
  5846  08A2  0008               	return
  5847  08A3                     __end_of___flge:
  5848                           
  5849                           	psect	text13
  5850  095F                     __ptext13:	
  5851 ;; *************** function ___fldiv *****************
  5852 ;; Defined at:
  5853 ;;		line 8 in file "C:\Program Files\Microchip\xc8\v2.31\pic\sources\c90\common\sprcdiv.c"
  5854 ;; Parameters:    Size  Location     Type
  5855 ;;  a               4   18[BANK0 ] unsigned int 
  5856 ;;  b               4   22[BANK0 ] unsigned int 
  5857 ;; Auto vars:     Size  Location     Type
  5858 ;;  grs             4   38[BANK0 ] unsigned long 
  5859 ;;  rem             4   31[BANK0 ] unsigned long 
  5860 ;;  new_exp         2   36[BANK0 ] int 
  5861 ;;  aexp            1   43[BANK0 ] unsigned char 
  5862 ;;  bexp            1   42[BANK0 ] unsigned char 
  5863 ;;  sign            1   35[BANK0 ] unsigned char 
  5864 ;; Return value:  Size  Location     Type
  5865 ;;                  4   18[BANK0 ] unsigned char 
  5866 ;; Registers used:
  5867 ;;		wreg, status,2, status,0, btemp+1
  5868 ;; Tracked objects:
  5869 ;;		On entry : 0/0
  5870 ;;		On exit  : 0/0
  5871 ;;		Unchanged: 0/0
  5872 ;; Data sizes:     COMMON   BANK0   BANK1   BANK3   BANK2
  5873 ;;      Params:         0       8       0       0       0
  5874 ;;      Locals:         0      13       0       0       0
  5875 ;;      Temps:          0       5       0       0       0
  5876 ;;      Totals:         0      26       0       0       0
  5877 ;;Total ram usage:       26 bytes
  5878 ;; Hardware stack levels used:    1
  5879 ;; This function calls:
  5880 ;;		Nothing
  5881 ;; This function is called by:
  5882 ;;		_main
  5883 ;;		_convert
  5884 ;; This function uses a non-reentrant model
  5885 ;;
  5886                           
  5887                           
  5888                           ;psect for function ___fldiv
  5889  095F                     ___fldiv:
  5890  095F                     l2149:	
  5891                           ;incstack = 0
  5892                           ; Regs used in ___fldiv: [wreg+status,2+status,0+btemp+1]
  5893                           
  5894  095F  1283               	bcf	3,5	;RP0=0, select bank0
  5895  0960  1303               	bcf	3,6	;RP1=0, select bank0
  5896  0961  0839               	movf	___fldiv@b+3,w
  5897  0962  3980               	andlw	128
  5898  0963  00BA               	movwf	??___fldiv
  5899  0964  083A               	movf	??___fldiv,w
  5900  0965  00C3               	movwf	___fldiv@sign
  5901  0966                     l2151:
  5902  0966  0839               	movf	___fldiv@b+3,w
  5903  0967  00BA               	movwf	??___fldiv
  5904  0968  073A               	addwf	??___fldiv,w
  5905  0969  00BB               	movwf	??___fldiv+1
  5906  096A  083B               	movf	??___fldiv+1,w
  5907  096B  00CA               	movwf	___fldiv@bexp
  5908  096C                     l2153:
  5909  096C  1FB8               	btfss	___fldiv@b+2,7
  5910  096D  296F               	goto	u2741
  5911  096E  2970               	goto	u2740
  5912  096F                     u2741:
  5913  096F  2971               	goto	l2157
  5914  0970                     u2740:
  5915  0970                     l2155:
  5916  0970  144A               	bsf	___fldiv@bexp,0
  5917  0971                     l2157:
  5918  0971  084A               	movf	___fldiv@bexp,w
  5919  0972  1903               	btfsc	3,2
  5920  0973  2975               	goto	u2751
  5921  0974  2976               	goto	u2750
  5922  0975                     u2751:
  5923  0975  2986               	goto	l2167
  5924  0976                     u2750:
  5925  0976                     l2159:
  5926  0976  0A4A               	incf	___fldiv@bexp,w
  5927  0977  1D03               	btfss	3,2
  5928  0978  297A               	goto	u2761
  5929  0979  297B               	goto	u2760
  5930  097A                     u2761:
  5931  097A  2983               	goto	l2163
  5932  097B                     u2760:
  5933  097B                     l2161:
  5934  097B  3000               	movlw	0
  5935  097C  00B9               	movwf	___fldiv@b+3
  5936  097D  3000               	movlw	0
  5937  097E  00B8               	movwf	___fldiv@b+2
  5938  097F  3000               	movlw	0
  5939  0980  00B7               	movwf	___fldiv@b+1
  5940  0981  3000               	movlw	0
  5941  0982  00B6               	movwf	___fldiv@b
  5942  0983                     l2163:
  5943  0983  17B8               	bsf	___fldiv@b+2,7
  5944  0984                     l2165:
  5945  0984  01B9               	clrf	___fldiv@b+3
  5946  0985  298E               	goto	l2169
  5947  0986                     l2167:
  5948  0986  3000               	movlw	0
  5949  0987  00B9               	movwf	___fldiv@b+3
  5950  0988  3000               	movlw	0
  5951  0989  00B8               	movwf	___fldiv@b+2
  5952  098A  3000               	movlw	0
  5953  098B  00B7               	movwf	___fldiv@b+1
  5954  098C  3000               	movlw	0
  5955  098D  00B6               	movwf	___fldiv@b
  5956  098E                     l2169:
  5957  098E  0835               	movf	___fldiv@a+3,w
  5958  098F  3980               	andlw	128
  5959  0990  00BA               	movwf	??___fldiv
  5960  0991  083A               	movf	??___fldiv,w
  5961  0992  06C3               	xorwf	___fldiv@sign,f
  5962  0993                     l2171:
  5963  0993  0835               	movf	___fldiv@a+3,w
  5964  0994  00BA               	movwf	??___fldiv
  5965  0995  073A               	addwf	??___fldiv,w
  5966  0996  00BB               	movwf	??___fldiv+1
  5967  0997  083B               	movf	??___fldiv+1,w
  5968  0998  00CB               	movwf	___fldiv@aexp
  5969  0999                     l2173:
  5970  0999  1FB4               	btfss	___fldiv@a+2,7
  5971  099A  299C               	goto	u2771
  5972  099B  299D               	goto	u2770
  5973  099C                     u2771:
  5974  099C  299E               	goto	l2177
  5975  099D                     u2770:
  5976  099D                     l2175:
  5977  099D  144B               	bsf	___fldiv@aexp,0
  5978  099E                     l2177:
  5979  099E  084B               	movf	___fldiv@aexp,w
  5980  099F  1903               	btfsc	3,2
  5981  09A0  29A2               	goto	u2781
  5982  09A1  29A3               	goto	u2780
  5983  09A2                     u2781:
  5984  09A2  29B3               	goto	l2187
  5985  09A3                     u2780:
  5986  09A3                     l2179:
  5987  09A3  0A4B               	incf	___fldiv@aexp,w
  5988  09A4  1D03               	btfss	3,2
  5989  09A5  29A7               	goto	u2791
  5990  09A6  29A8               	goto	u2790
  5991  09A7                     u2791:
  5992  09A7  29B0               	goto	l2183
  5993  09A8                     u2790:
  5994  09A8                     l2181:
  5995  09A8  3000               	movlw	0
  5996  09A9  00B5               	movwf	___fldiv@a+3
  5997  09AA  3000               	movlw	0
  5998  09AB  00B4               	movwf	___fldiv@a+2
  5999  09AC  3000               	movlw	0
  6000  09AD  00B3               	movwf	___fldiv@a+1
  6001  09AE  3000               	movlw	0
  6002  09AF  00B2               	movwf	___fldiv@a
  6003  09B0                     l2183:
  6004  09B0  17B4               	bsf	___fldiv@a+2,7
  6005  09B1                     l2185:
  6006  09B1  01B5               	clrf	___fldiv@a+3
  6007  09B2  29BB               	goto	l624
  6008  09B3                     l2187:
  6009  09B3  3000               	movlw	0
  6010  09B4  00B5               	movwf	___fldiv@a+3
  6011  09B5  3000               	movlw	0
  6012  09B6  00B4               	movwf	___fldiv@a+2
  6013  09B7  3000               	movlw	0
  6014  09B8  00B3               	movwf	___fldiv@a+1
  6015  09B9  3000               	movlw	0
  6016  09BA  00B2               	movwf	___fldiv@a
  6017  09BB                     l624:
  6018  09BB  0835               	movf	___fldiv@a+3,w
  6019  09BC  0434               	iorwf	___fldiv@a+2,w
  6020  09BD  0433               	iorwf	___fldiv@a+1,w
  6021  09BE  0432               	iorwf	___fldiv@a,w
  6022  09BF  1D03               	skipz
  6023  09C0  29C2               	goto	u2801
  6024  09C1  29C3               	goto	u2800
  6025  09C2                     u2801:
  6026  09C2  29DC               	goto	l2197
  6027  09C3                     u2800:
  6028  09C3                     l2189:
  6029  09C3  3000               	movlw	0
  6030  09C4  00B9               	movwf	___fldiv@b+3
  6031  09C5  3000               	movlw	0
  6032  09C6  00B8               	movwf	___fldiv@b+2
  6033  09C7  3000               	movlw	0
  6034  09C8  00B7               	movwf	___fldiv@b+1
  6035  09C9  3000               	movlw	0
  6036  09CA  00B6               	movwf	___fldiv@b
  6037  09CB  3080               	movlw	128
  6038  09CC  04B8               	iorwf	___fldiv@b+2,f
  6039  09CD  307F               	movlw	127
  6040  09CE  04B9               	iorwf	___fldiv@b+3,f
  6041  09CF                     l2191:
  6042  09CF  0843               	movf	___fldiv@sign,w
  6043  09D0  00BA               	movwf	??___fldiv
  6044  09D1  083A               	movf	??___fldiv,w
  6045  09D2  04B9               	iorwf	___fldiv@b+3,f
  6046  09D3                     l2193:
  6047  09D3  0839               	movf	___fldiv@b+3,w
  6048  09D4  00B5               	movwf	?___fldiv+3
  6049  09D5  0838               	movf	___fldiv@b+2,w
  6050  09D6  00B4               	movwf	?___fldiv+2
  6051  09D7  0837               	movf	___fldiv@b+1,w
  6052  09D8  00B3               	movwf	?___fldiv+1
  6053  09D9  0836               	movf	___fldiv@b,w
  6054  09DA  00B2               	movwf	?___fldiv
  6055  09DB  2B3B               	goto	l626
  6056  09DC                     l2197:
  6057  09DC  084A               	movf	___fldiv@bexp,w
  6058  09DD  1D03               	btfss	3,2
  6059  09DE  29E0               	goto	u2811
  6060  09DF  29E1               	goto	u2810
  6061  09E0                     u2811:
  6062  09E0  29EA               	goto	l2203
  6063  09E1                     u2810:
  6064  09E1                     l2199:
  6065  09E1  3000               	movlw	0
  6066  09E2  00B5               	movwf	?___fldiv+3
  6067  09E3  3000               	movlw	0
  6068  09E4  00B4               	movwf	?___fldiv+2
  6069  09E5  3000               	movlw	0
  6070  09E6  00B3               	movwf	?___fldiv+1
  6071  09E7  3000               	movlw	0
  6072  09E8  00B2               	movwf	?___fldiv
  6073  09E9  2B3B               	goto	l626
  6074  09EA                     l2203:
  6075  09EA  084A               	movf	___fldiv@bexp,w
  6076  09EB  00BA               	movwf	??___fldiv
  6077  09EC  01BB               	clrf	??___fldiv+1
  6078  09ED  083B               	movf	??___fldiv+1,w
  6079  09EE  00BD               	movwf	??___fldiv+3
  6080  09EF  084B               	movf	___fldiv@aexp,w
  6081  09F0  023A               	subwf	??___fldiv,w
  6082  09F1  00BC               	movwf	??___fldiv+2
  6083  09F2  1C03               	skipc
  6084  09F3  03BD               	decf	??___fldiv+3,f
  6085  09F4  083C               	movf	??___fldiv+2,w
  6086  09F5  3E7F               	addlw	127
  6087  09F6  00C4               	movwf	___fldiv@new_exp
  6088  09F7  083D               	movf	??___fldiv+3,w
  6089  09F8  1803               	skipnc
  6090  09F9  3E01               	addlw	1
  6091  09FA  3E00               	addlw	0
  6092  09FB  00C5               	movwf	___fldiv@new_exp+1
  6093  09FC                     l2205:
  6094  09FC  0839               	movf	___fldiv@b+3,w
  6095  09FD  00C2               	movwf	___fldiv@rem+3
  6096  09FE  0838               	movf	___fldiv@b+2,w
  6097  09FF  00C1               	movwf	___fldiv@rem+2
  6098  0A00  0837               	movf	___fldiv@b+1,w
  6099  0A01  00C0               	movwf	___fldiv@rem+1
  6100  0A02  0836               	movf	___fldiv@b,w
  6101  0A03  00BF               	movwf	___fldiv@rem
  6102  0A04                     l2207:
  6103  0A04  3000               	movlw	0
  6104  0A05  00B9               	movwf	___fldiv@b+3
  6105  0A06  3000               	movlw	0
  6106  0A07  00B8               	movwf	___fldiv@b+2
  6107  0A08  3000               	movlw	0
  6108  0A09  00B7               	movwf	___fldiv@b+1
  6109  0A0A  3000               	movlw	0
  6110  0A0B  00B6               	movwf	___fldiv@b
  6111  0A0C                     l2209:
  6112  0A0C  3000               	movlw	0
  6113  0A0D  00C9               	movwf	___fldiv@grs+3
  6114  0A0E  3000               	movlw	0
  6115  0A0F  00C8               	movwf	___fldiv@grs+2
  6116  0A10  3000               	movlw	0
  6117  0A11  00C7               	movwf	___fldiv@grs+1
  6118  0A12  3000               	movlw	0
  6119  0A13  00C6               	movwf	___fldiv@grs
  6120  0A14                     l2211:
  6121  0A14  01CB               	clrf	___fldiv@aexp
  6122  0A15  2A60               	goto	l2231
  6123  0A16                     l2213:
  6124  0A16  084B               	movf	___fldiv@aexp,w
  6125  0A17  1903               	btfsc	3,2
  6126  0A18  2A1A               	goto	u2821
  6127  0A19  2A1B               	goto	u2820
  6128  0A1A                     u2821:
  6129  0A1A  2A3B               	goto	l2223
  6130  0A1B                     u2820:
  6131  0A1B                     l2215:
  6132  0A1B  3001               	movlw	1
  6133  0A1C  00BA               	movwf	??___fldiv
  6134  0A1D                     u2835:
  6135  0A1D  1003               	clrc
  6136  0A1E  0DBF               	rlf	___fldiv@rem,f
  6137  0A1F  0DC0               	rlf	___fldiv@rem+1,f
  6138  0A20  0DC1               	rlf	___fldiv@rem+2,f
  6139  0A21  0DC2               	rlf	___fldiv@rem+3,f
  6140  0A22  0BBA               	decfsz	??___fldiv,f
  6141  0A23  2A1D               	goto	u2835
  6142  0A24  3001               	movlw	1
  6143  0A25  00BA               	movwf	??___fldiv
  6144  0A26                     u2845:
  6145  0A26  1003               	clrc
  6146  0A27  0DB6               	rlf	___fldiv@b,f
  6147  0A28  0DB7               	rlf	___fldiv@b+1,f
  6148  0A29  0DB8               	rlf	___fldiv@b+2,f
  6149  0A2A  0DB9               	rlf	___fldiv@b+3,f
  6150  0A2B  0BBA               	decfsz	??___fldiv,f
  6151  0A2C  2A26               	goto	u2845
  6152  0A2D                     l2217:
  6153  0A2D  1FC9               	btfss	___fldiv@grs+3,7
  6154  0A2E  2A30               	goto	u2851
  6155  0A2F  2A31               	goto	u2850
  6156  0A30                     u2851:
  6157  0A30  2A32               	goto	l2221
  6158  0A31                     u2850:
  6159  0A31                     l2219:
  6160  0A31  1436               	bsf	___fldiv@b,0
  6161  0A32                     l2221:
  6162  0A32  3001               	movlw	1
  6163  0A33  00BA               	movwf	??___fldiv
  6164  0A34                     u2865:
  6165  0A34  1003               	clrc
  6166  0A35  0DC6               	rlf	___fldiv@grs,f
  6167  0A36  0DC7               	rlf	___fldiv@grs+1,f
  6168  0A37  0DC8               	rlf	___fldiv@grs+2,f
  6169  0A38  0DC9               	rlf	___fldiv@grs+3,f
  6170  0A39  0BBA               	decfsz	??___fldiv,f
  6171  0A3A  2A34               	goto	u2865
  6172  0A3B                     l2223:
  6173  0A3B  0835               	movf	___fldiv@a+3,w
  6174  0A3C  0242               	subwf	___fldiv@rem+3,w
  6175  0A3D  1D03               	skipz
  6176  0A3E  2A49               	goto	u2875
  6177  0A3F  0834               	movf	___fldiv@a+2,w
  6178  0A40  0241               	subwf	___fldiv@rem+2,w
  6179  0A41  1D03               	skipz
  6180  0A42  2A49               	goto	u2875
  6181  0A43  0833               	movf	___fldiv@a+1,w
  6182  0A44  0240               	subwf	___fldiv@rem+1,w
  6183  0A45  1D03               	skipz
  6184  0A46  2A49               	goto	u2875
  6185  0A47  0832               	movf	___fldiv@a,w
  6186  0A48  023F               	subwf	___fldiv@rem,w
  6187  0A49                     u2875:
  6188  0A49  1C03               	skipc
  6189  0A4A  2A4C               	goto	u2871
  6190  0A4B  2A4D               	goto	u2870
  6191  0A4C                     u2871:
  6192  0A4C  2A5C               	goto	l2229
  6193  0A4D                     u2870:
  6194  0A4D                     l2225:
  6195  0A4D  1749               	bsf	___fldiv@grs+3,6
  6196  0A4E                     l2227:
  6197  0A4E  0832               	movf	___fldiv@a,w
  6198  0A4F  02BF               	subwf	___fldiv@rem,f
  6199  0A50  0833               	movf	___fldiv@a+1,w
  6200  0A51  1C03               	skipc
  6201  0A52  0F33               	incfsz	___fldiv@a+1,w
  6202  0A53  02C0               	subwf	___fldiv@rem+1,f
  6203  0A54  0834               	movf	___fldiv@a+2,w
  6204  0A55  1C03               	skipc
  6205  0A56  0F34               	incfsz	___fldiv@a+2,w
  6206  0A57  02C1               	subwf	___fldiv@rem+2,f
  6207  0A58  0835               	movf	___fldiv@a+3,w
  6208  0A59  1C03               	skipc
  6209  0A5A  0F35               	incfsz	___fldiv@a+3,w
  6210  0A5B  02C2               	subwf	___fldiv@rem+3,f
  6211  0A5C                     l2229:
  6212  0A5C  3001               	movlw	1
  6213  0A5D  00BA               	movwf	??___fldiv
  6214  0A5E  083A               	movf	??___fldiv,w
  6215  0A5F  07CB               	addwf	___fldiv@aexp,f
  6216  0A60                     l2231:
  6217  0A60  301A               	movlw	26
  6218  0A61  024B               	subwf	___fldiv@aexp,w
  6219  0A62  1C03               	skipc
  6220  0A63  2A65               	goto	u2881
  6221  0A64  2A66               	goto	u2880
  6222  0A65                     u2881:
  6223  0A65  2A16               	goto	l2213
  6224  0A66                     u2880:
  6225  0A66                     l2233:
  6226  0A66  0842               	movf	___fldiv@rem+3,w
  6227  0A67  0441               	iorwf	___fldiv@rem+2,w
  6228  0A68  0440               	iorwf	___fldiv@rem+1,w
  6229  0A69  043F               	iorwf	___fldiv@rem,w
  6230  0A6A  1903               	skipnz
  6231  0A6B  2A6D               	goto	u2891
  6232  0A6C  2A6E               	goto	u2890
  6233  0A6D                     u2891:
  6234  0A6D  2A8D               	goto	l2247
  6235  0A6E                     u2890:
  6236  0A6E                     l2235:
  6237  0A6E  1446               	bsf	___fldiv@grs,0
  6238  0A6F  2A8D               	goto	l2247
  6239  0A70                     l2237:
  6240  0A70  3001               	movlw	1
  6241  0A71  00BA               	movwf	??___fldiv
  6242  0A72                     u2905:
  6243  0A72  1003               	clrc
  6244  0A73  0DB6               	rlf	___fldiv@b,f
  6245  0A74  0DB7               	rlf	___fldiv@b+1,f
  6246  0A75  0DB8               	rlf	___fldiv@b+2,f
  6247  0A76  0DB9               	rlf	___fldiv@b+3,f
  6248  0A77  0BBA               	decfsz	??___fldiv,f
  6249  0A78  2A72               	goto	u2905
  6250  0A79                     l2239:
  6251  0A79  1FC9               	btfss	___fldiv@grs+3,7
  6252  0A7A  2A7C               	goto	u2911
  6253  0A7B  2A7D               	goto	u2910
  6254  0A7C                     u2911:
  6255  0A7C  2A7E               	goto	l2243
  6256  0A7D                     u2910:
  6257  0A7D                     l2241:
  6258  0A7D  1436               	bsf	___fldiv@b,0
  6259  0A7E                     l2243:
  6260  0A7E  3001               	movlw	1
  6261  0A7F  00BA               	movwf	??___fldiv
  6262  0A80                     u2925:
  6263  0A80  1003               	clrc
  6264  0A81  0DC6               	rlf	___fldiv@grs,f
  6265  0A82  0DC7               	rlf	___fldiv@grs+1,f
  6266  0A83  0DC8               	rlf	___fldiv@grs+2,f
  6267  0A84  0DC9               	rlf	___fldiv@grs+3,f
  6268  0A85  0BBA               	decfsz	??___fldiv,f
  6269  0A86  2A80               	goto	u2925
  6270  0A87                     l2245:
  6271  0A87  30FF               	movlw	255
  6272  0A88  07C4               	addwf	___fldiv@new_exp,f
  6273  0A89  1803               	skipnc
  6274  0A8A  0AC5               	incf	___fldiv@new_exp+1,f
  6275  0A8B  30FF               	movlw	255
  6276  0A8C  07C5               	addwf	___fldiv@new_exp+1,f
  6277  0A8D                     l2247:
  6278  0A8D  1FB8               	btfss	___fldiv@b+2,7
  6279  0A8E  2A90               	goto	u2931
  6280  0A8F  2A91               	goto	u2930
  6281  0A90                     u2931:
  6282  0A90  2A70               	goto	l2237
  6283  0A91                     u2930:
  6284  0A91                     l2249:
  6285  0A91  01CB               	clrf	___fldiv@aexp
  6286  0A92                     l2251:
  6287  0A92  1FC9               	btfss	___fldiv@grs+3,7
  6288  0A93  2A95               	goto	u2941
  6289  0A94  2A96               	goto	u2940
  6290  0A95                     u2941:
  6291  0A95  2AB2               	goto	l2259
  6292  0A96                     u2940:
  6293  0A96                     l2253:
  6294  0A96  30FF               	movlw	255
  6295  0A97  0546               	andwf	___fldiv@grs,w
  6296  0A98  00BA               	movwf	??___fldiv
  6297  0A99  30FF               	movlw	255
  6298  0A9A  0547               	andwf	___fldiv@grs+1,w
  6299  0A9B  00BB               	movwf	??___fldiv+1
  6300  0A9C  30FF               	movlw	255
  6301  0A9D  0548               	andwf	___fldiv@grs+2,w
  6302  0A9E  00BC               	movwf	??___fldiv+2
  6303  0A9F  307F               	movlw	127
  6304  0AA0  0549               	andwf	___fldiv@grs+3,w
  6305  0AA1  00BD               	movwf	??___fldiv+3
  6306  0AA2  083D               	movf	??___fldiv+3,w
  6307  0AA3  043C               	iorwf	??___fldiv+2,w
  6308  0AA4  043B               	iorwf	??___fldiv+1,w
  6309  0AA5  043A               	iorwf	??___fldiv,w
  6310  0AA6  1903               	skipnz
  6311  0AA7  2AA9               	goto	u2951
  6312  0AA8  2AAA               	goto	u2950
  6313  0AA9                     u2951:
  6314  0AA9  2AAD               	goto	l640
  6315  0AAA                     u2950:
  6316  0AAA                     l2255:
  6317  0AAA  01CB               	clrf	___fldiv@aexp
  6318  0AAB  0ACB               	incf	___fldiv@aexp,f
  6319  0AAC  2AB2               	goto	l2259
  6320  0AAD                     l640:
  6321  0AAD  1C36               	btfss	___fldiv@b,0
  6322  0AAE  2AB0               	goto	u2961
  6323  0AAF  2AB1               	goto	u2960
  6324  0AB0                     u2961:
  6325  0AB0  2AB2               	goto	l2259
  6326  0AB1                     u2960:
  6327  0AB1  2AAA               	goto	l2255
  6328  0AB2                     l2259:
  6329  0AB2  084B               	movf	___fldiv@aexp,w
  6330  0AB3  1903               	btfsc	3,2
  6331  0AB4  2AB6               	goto	u2971
  6332  0AB5  2AB7               	goto	u2970
  6333  0AB6                     u2971:
  6334  0AB6  2AE8               	goto	l2269
  6335  0AB7                     u2970:
  6336  0AB7                     l2261:
  6337  0AB7  3001               	movlw	1
  6338  0AB8  07B6               	addwf	___fldiv@b,f
  6339  0AB9  3000               	movlw	0
  6340  0ABA  1803               	skipnc
  6341  0ABB  3001               	movlw	1
  6342  0ABC  07B7               	addwf	___fldiv@b+1,f
  6343  0ABD  3000               	movlw	0
  6344  0ABE  1803               	skipnc
  6345  0ABF  3001               	movlw	1
  6346  0AC0  07B8               	addwf	___fldiv@b+2,f
  6347  0AC1  3000               	movlw	0
  6348  0AC2  1803               	skipnc
  6349  0AC3  3001               	movlw	1
  6350  0AC4  07B9               	addwf	___fldiv@b+3,f
  6351  0AC5                     l2263:
  6352  0AC5  1C39               	btfss	___fldiv@b+3,0
  6353  0AC6  2AC8               	goto	u2981
  6354  0AC7  2AC9               	goto	u2980
  6355  0AC8                     u2981:
  6356  0AC8  2AE8               	goto	l2269
  6357  0AC9                     u2980:
  6358  0AC9                     l2265:
  6359  0AC9  0836               	movf	___fldiv@b,w
  6360  0ACA  00BA               	movwf	??___fldiv
  6361  0ACB  0837               	movf	___fldiv@b+1,w
  6362  0ACC  00BB               	movwf	??___fldiv+1
  6363  0ACD  0838               	movf	___fldiv@b+2,w
  6364  0ACE  00BC               	movwf	??___fldiv+2
  6365  0ACF  0839               	movf	___fldiv@b+3,w
  6366  0AD0  00BD               	movwf	??___fldiv+3
  6367  0AD1  3001               	movlw	1
  6368  0AD2  00BE               	movwf	??___fldiv+4
  6369  0AD3                     u2995:
  6370  0AD3  0D3D               	rlf	??___fldiv+3,w
  6371  0AD4  0CBD               	rrf	??___fldiv+3,f
  6372  0AD5  0CBC               	rrf	??___fldiv+2,f
  6373  0AD6  0CBB               	rrf	??___fldiv+1,f
  6374  0AD7  0CBA               	rrf	??___fldiv,f
  6375  0AD8                     u2990:
  6376  0AD8  0BBE               	decfsz	??___fldiv+4,f
  6377  0AD9  2AD3               	goto	u2995
  6378  0ADA  083D               	movf	??___fldiv+3,w
  6379  0ADB  00B9               	movwf	___fldiv@b+3
  6380  0ADC  083C               	movf	??___fldiv+2,w
  6381  0ADD  00B8               	movwf	___fldiv@b+2
  6382  0ADE  083B               	movf	??___fldiv+1,w
  6383  0ADF  00B7               	movwf	___fldiv@b+1
  6384  0AE0  083A               	movf	??___fldiv,w
  6385  0AE1  00B6               	movwf	___fldiv@b
  6386  0AE2                     l2267:
  6387  0AE2  3001               	movlw	1
  6388  0AE3  07C4               	addwf	___fldiv@new_exp,f
  6389  0AE4  1803               	skipnc
  6390  0AE5  0AC5               	incf	___fldiv@new_exp+1,f
  6391  0AE6  3000               	movlw	0
  6392  0AE7  07C5               	addwf	___fldiv@new_exp+1,f
  6393  0AE8                     l2269:
  6394  0AE8  0845               	movf	___fldiv@new_exp+1,w
  6395  0AE9  3A80               	xorlw	128
  6396  0AEA  00FF               	movwf	btemp+1
  6397  0AEB  3080               	movlw	128
  6398  0AEC  027F               	subwf	btemp+1,w
  6399  0AED  1D03               	skipz
  6400  0AEE  2AF1               	goto	u3005
  6401  0AEF  30FF               	movlw	255
  6402  0AF0  0244               	subwf	___fldiv@new_exp,w
  6403  0AF1                     u3005:
  6404  0AF1  1C03               	skipc
  6405  0AF2  2AF4               	goto	u3001
  6406  0AF3  2AF5               	goto	u3000
  6407  0AF4                     u3001:
  6408  0AF4  2B03               	goto	l2273
  6409  0AF5                     u3000:
  6410  0AF5                     l2271:
  6411  0AF5  30FF               	movlw	255
  6412  0AF6  1283               	bcf	3,5	;RP0=0, select bank0
  6413  0AF7  1303               	bcf	3,6	;RP1=0, select bank0
  6414  0AF8  00C4               	movwf	___fldiv@new_exp
  6415  0AF9  3000               	movlw	0
  6416  0AFA  00C5               	movwf	___fldiv@new_exp+1
  6417  0AFB  3000               	movlw	0
  6418  0AFC  00B9               	movwf	___fldiv@b+3
  6419  0AFD  3000               	movlw	0
  6420  0AFE  00B8               	movwf	___fldiv@b+2
  6421  0AFF  3000               	movlw	0
  6422  0B00  00B7               	movwf	___fldiv@b+1
  6423  0B01  3000               	movlw	0
  6424  0B02  00B6               	movwf	___fldiv@b
  6425  0B03                     l2273:
  6426  0B03  1283               	bcf	3,5	;RP0=0, select bank0
  6427  0B04  1303               	bcf	3,6	;RP1=0, select bank0
  6428  0B05  0845               	movf	___fldiv@new_exp+1,w
  6429  0B06  3A80               	xorlw	128
  6430  0B07  00FF               	movwf	btemp+1
  6431  0B08  3080               	movlw	128
  6432  0B09  027F               	subwf	btemp+1,w
  6433  0B0A  1D03               	skipz
  6434  0B0B  2B0E               	goto	u3015
  6435  0B0C  3001               	movlw	1
  6436  0B0D  0244               	subwf	___fldiv@new_exp,w
  6437  0B0E                     u3015:
  6438  0B0E  1803               	skipnc
  6439  0B0F  2B11               	goto	u3011
  6440  0B10  2B12               	goto	u3010
  6441  0B11                     u3011:
  6442  0B11  2B1F               	goto	l646
  6443  0B12                     u3010:
  6444  0B12                     l2275:
  6445  0B12  1283               	bcf	3,5	;RP0=0, select bank0
  6446  0B13  1303               	bcf	3,6	;RP1=0, select bank0
  6447  0B14  01C4               	clrf	___fldiv@new_exp
  6448  0B15  01C5               	clrf	___fldiv@new_exp+1
  6449  0B16                     l2277:
  6450  0B16  3000               	movlw	0
  6451  0B17  00B9               	movwf	___fldiv@b+3
  6452  0B18  3000               	movlw	0
  6453  0B19  00B8               	movwf	___fldiv@b+2
  6454  0B1A  3000               	movlw	0
  6455  0B1B  00B7               	movwf	___fldiv@b+1
  6456  0B1C  3000               	movlw	0
  6457  0B1D  00B6               	movwf	___fldiv@b
  6458  0B1E                     l2279:
  6459  0B1E  01C3               	clrf	___fldiv@sign
  6460  0B1F                     l646:
  6461  0B1F  1283               	bcf	3,5	;RP0=0, select bank0
  6462  0B20  1303               	bcf	3,6	;RP1=0, select bank0
  6463  0B21  0844               	movf	___fldiv@new_exp,w
  6464  0B22  00BA               	movwf	??___fldiv
  6465  0B23  083A               	movf	??___fldiv,w
  6466  0B24  00CA               	movwf	___fldiv@bexp
  6467  0B25                     l2281:
  6468  0B25  1C4A               	btfss	___fldiv@bexp,0
  6469  0B26  2B28               	goto	u3021
  6470  0B27  2B29               	goto	u3020
  6471  0B28                     u3021:
  6472  0B28  2B2B               	goto	l2285
  6473  0B29                     u3020:
  6474  0B29                     l2283:
  6475  0B29  17B8               	bsf	___fldiv@b+2,7
  6476  0B2A  2B2F               	goto	l648
  6477  0B2B                     l2285:
  6478  0B2B  307F               	movlw	127
  6479  0B2C  00BA               	movwf	??___fldiv
  6480  0B2D  083A               	movf	??___fldiv,w
  6481  0B2E  05B8               	andwf	___fldiv@b+2,f
  6482  0B2F                     l648:
  6483  0B2F  084A               	movf	___fldiv@bexp,w
  6484  0B30  00BA               	movwf	??___fldiv
  6485  0B31  1003               	clrc
  6486  0B32  0C3A               	rrf	??___fldiv,w
  6487  0B33  00BB               	movwf	??___fldiv+1
  6488  0B34  083B               	movf	??___fldiv+1,w
  6489  0B35  00B9               	movwf	___fldiv@b+3
  6490  0B36  0843               	movf	___fldiv@sign,w
  6491  0B37  00BA               	movwf	??___fldiv
  6492  0B38  083A               	movf	??___fldiv,w
  6493  0B39  04B9               	iorwf	___fldiv@b+3,f
  6494  0B3A  29D3               	goto	l2193
  6495  0B3B                     l626:
  6496  0B3B  0008               	return
  6497  0B3C                     __end_of___fldiv:
  6498                           
  6499                           	psect	text14
  6500  1799                     __ptext14:	
  6501 ;; *************** function ___awdiv *****************
  6502 ;; Defined at:
  6503 ;;		line 5 in file "C:\Program Files\Microchip\xc8\v2.31\pic\sources\c90\common\awdiv.c"
  6504 ;; Parameters:    Size  Location     Type
  6505 ;;  divisor         2    0[COMMON] int 
  6506 ;;  dividend        2    2[COMMON] int 
  6507 ;; Auto vars:     Size  Location     Type
  6508 ;;  quotient        2    7[COMMON] int 
  6509 ;;  sign            1    6[COMMON] unsigned char 
  6510 ;;  counter         1    5[COMMON] unsigned char 
  6511 ;; Return value:  Size  Location     Type
  6512 ;;                  2    0[COMMON] int 
  6513 ;; Registers used:
  6514 ;;		wreg, status,2, status,0
  6515 ;; Tracked objects:
  6516 ;;		On entry : 0/0
  6517 ;;		On exit  : 0/0
  6518 ;;		Unchanged: 0/0
  6519 ;; Data sizes:     COMMON   BANK0   BANK1   BANK3   BANK2
  6520 ;;      Params:         4       0       0       0       0
  6521 ;;      Locals:         4       0       0       0       0
  6522 ;;      Temps:          1       0       0       0       0
  6523 ;;      Totals:         9       0       0       0       0
  6524 ;;Total ram usage:        9 bytes
  6525 ;; Hardware stack levels used:    1
  6526 ;; This function calls:
  6527 ;;		Nothing
  6528 ;; This function is called by:
  6529 ;;		_convert
  6530 ;; This function uses a non-reentrant model
  6531 ;;
  6532                           
  6533                           
  6534                           ;psect for function ___awdiv
  6535  1799                     ___awdiv:
  6536  1799                     l2043:	
  6537                           ;incstack = 0
  6538                           ; Regs used in ___awdiv: [wreg+status,2+status,0]
  6539                           
  6540  1799  01F6               	clrf	___awdiv@sign
  6541  179A                     l2045:
  6542  179A  1FF1               	btfss	___awdiv@divisor+1,7
  6543  179B  2F9D               	goto	u2471
  6544  179C  2F9E               	goto	u2470
  6545  179D                     u2471:
  6546  179D  2FA5               	goto	l2051
  6547  179E                     u2470:
  6548  179E                     l2047:
  6549  179E  09F0               	comf	___awdiv@divisor,f
  6550  179F  09F1               	comf	___awdiv@divisor+1,f
  6551  17A0  0AF0               	incf	___awdiv@divisor,f
  6552  17A1  1903               	skipnz
  6553  17A2  0AF1               	incf	___awdiv@divisor+1,f
  6554  17A3                     l2049:
  6555  17A3  01F6               	clrf	___awdiv@sign
  6556  17A4  0AF6               	incf	___awdiv@sign,f
  6557  17A5                     l2051:
  6558  17A5  1FF3               	btfss	___awdiv@dividend+1,7
  6559  17A6  2FA8               	goto	u2481
  6560  17A7  2FA9               	goto	u2480
  6561  17A8                     u2481:
  6562  17A8  2FB2               	goto	l2057
  6563  17A9                     u2480:
  6564  17A9                     l2053:
  6565  17A9  09F2               	comf	___awdiv@dividend,f
  6566  17AA  09F3               	comf	___awdiv@dividend+1,f
  6567  17AB  0AF2               	incf	___awdiv@dividend,f
  6568  17AC  1903               	skipnz
  6569  17AD  0AF3               	incf	___awdiv@dividend+1,f
  6570  17AE                     l2055:
  6571  17AE  3001               	movlw	1
  6572  17AF  00F4               	movwf	??___awdiv
  6573  17B0  0874               	movf	??___awdiv,w
  6574  17B1  06F6               	xorwf	___awdiv@sign,f
  6575  17B2                     l2057:
  6576  17B2  01F7               	clrf	___awdiv@quotient
  6577  17B3  01F8               	clrf	___awdiv@quotient+1
  6578  17B4                     l2059:
  6579  17B4  0870               	movf	___awdiv@divisor,w
  6580  17B5  0471               	iorwf	___awdiv@divisor+1,w
  6581  17B6  1903               	btfsc	3,2
  6582  17B7  2FB9               	goto	u2491
  6583  17B8  2FBA               	goto	u2490
  6584  17B9                     u2491:
  6585  17B9  2FF1               	goto	l2079
  6586  17BA                     u2490:
  6587  17BA                     l2061:
  6588  17BA  01F5               	clrf	___awdiv@counter
  6589  17BB  0AF5               	incf	___awdiv@counter,f
  6590  17BC  2FC8               	goto	l2067
  6591  17BD                     l2063:
  6592  17BD  3001               	movlw	1
  6593  17BE                     u2505:
  6594  17BE  1003               	clrc
  6595  17BF  0DF0               	rlf	___awdiv@divisor,f
  6596  17C0  0DF1               	rlf	___awdiv@divisor+1,f
  6597  17C1  3EFF               	addlw	-1
  6598  17C2  1D03               	skipz
  6599  17C3  2FBE               	goto	u2505
  6600  17C4                     l2065:
  6601  17C4  3001               	movlw	1
  6602  17C5  00F4               	movwf	??___awdiv
  6603  17C6  0874               	movf	??___awdiv,w
  6604  17C7  07F5               	addwf	___awdiv@counter,f
  6605  17C8                     l2067:
  6606  17C8  1FF1               	btfss	___awdiv@divisor+1,7
  6607  17C9  2FCB               	goto	u2511
  6608  17CA  2FCC               	goto	u2510
  6609  17CB                     u2511:
  6610  17CB  2FBD               	goto	l2063
  6611  17CC                     u2510:
  6612  17CC                     l2069:
  6613  17CC  3001               	movlw	1
  6614  17CD                     u2525:
  6615  17CD  1003               	clrc
  6616  17CE  0DF7               	rlf	___awdiv@quotient,f
  6617  17CF  0DF8               	rlf	___awdiv@quotient+1,f
  6618  17D0  3EFF               	addlw	-1
  6619  17D1  1D03               	skipz
  6620  17D2  2FCD               	goto	u2525
  6621  17D3  0871               	movf	___awdiv@divisor+1,w
  6622  17D4  0273               	subwf	___awdiv@dividend+1,w
  6623  17D5  1D03               	skipz
  6624  17D6  2FD9               	goto	u2535
  6625  17D7  0870               	movf	___awdiv@divisor,w
  6626  17D8  0272               	subwf	___awdiv@dividend,w
  6627  17D9                     u2535:
  6628  17D9  1C03               	skipc
  6629  17DA  2FDC               	goto	u2531
  6630  17DB  2FDD               	goto	u2530
  6631  17DC                     u2531:
  6632  17DC  2FE4               	goto	l2075
  6633  17DD                     u2530:
  6634  17DD                     l2071:
  6635  17DD  0870               	movf	___awdiv@divisor,w
  6636  17DE  02F2               	subwf	___awdiv@dividend,f
  6637  17DF  0871               	movf	___awdiv@divisor+1,w
  6638  17E0  1C03               	skipc
  6639  17E1  03F3               	decf	___awdiv@dividend+1,f
  6640  17E2  02F3               	subwf	___awdiv@dividend+1,f
  6641  17E3                     l2073:
  6642  17E3  1477               	bsf	___awdiv@quotient,0
  6643  17E4                     l2075:
  6644  17E4  3001               	movlw	1
  6645  17E5                     u2545:
  6646  17E5  1003               	clrc
  6647  17E6  0CF1               	rrf	___awdiv@divisor+1,f
  6648  17E7  0CF0               	rrf	___awdiv@divisor,f
  6649  17E8  3EFF               	addlw	-1
  6650  17E9  1D03               	skipz
  6651  17EA  2FE5               	goto	u2545
  6652  17EB                     l2077:
  6653  17EB  3001               	movlw	1
  6654  17EC  02F5               	subwf	___awdiv@counter,f
  6655  17ED  1D03               	btfss	3,2
  6656  17EE  2FF0               	goto	u2551
  6657  17EF  2FF1               	goto	u2550
  6658  17F0                     u2551:
  6659  17F0  2FCC               	goto	l2069
  6660  17F1                     u2550:
  6661  17F1                     l2079:
  6662  17F1  0876               	movf	___awdiv@sign,w
  6663  17F2  1903               	btfsc	3,2
  6664  17F3  2FF5               	goto	u2561
  6665  17F4  2FF6               	goto	u2560
  6666  17F5                     u2561:
  6667  17F5  2FFB               	goto	l2083
  6668  17F6                     u2560:
  6669  17F6                     l2081:
  6670  17F6  09F7               	comf	___awdiv@quotient,f
  6671  17F7  09F8               	comf	___awdiv@quotient+1,f
  6672  17F8  0AF7               	incf	___awdiv@quotient,f
  6673  17F9  1903               	skipnz
  6674  17FA  0AF8               	incf	___awdiv@quotient+1,f
  6675  17FB                     l2083:
  6676  17FB  0878               	movf	___awdiv@quotient+1,w
  6677  17FC  00F1               	movwf	?___awdiv+1
  6678  17FD  0877               	movf	___awdiv@quotient,w
  6679  17FE  00F0               	movwf	?___awdiv
  6680  17FF                     l428:
  6681  17FF  0008               	return
  6682  1800                     __end_of___awdiv:
  6683                           
  6684                           	psect	text15
  6685  1686                     __ptext15:	
  6686 ;; *************** function _Lcd_Write_String *****************
  6687 ;; Defined at:
  6688 ;;		line 170 in file "Librerias.c"
  6689 ;; Parameters:    Size  Location     Type
  6690 ;;  a               2    3[COMMON] PTR unsigned char 
  6691 ;;		 -> STR_5(2), RAM(512), STR_4(2), lcd1(10), 
  6692 ;;		 -> STR_3(4), STR_2(4), STR_1(4), 
  6693 ;; Auto vars:     Size  Location     Type
  6694 ;;  i               2    5[COMMON] int 
  6695 ;; Return value:  Size  Location     Type
  6696 ;;                  1    wreg      void 
  6697 ;; Registers used:
  6698 ;;		wreg, fsr0l, fsr0h, status,2, status,0, btemp+1, pclath, cstack
  6699 ;; Tracked objects:
  6700 ;;		On entry : 0/0
  6701 ;;		On exit  : 0/0
  6702 ;;		Unchanged: 0/0
  6703 ;; Data sizes:     COMMON   BANK0   BANK1   BANK3   BANK2
  6704 ;;      Params:         2       0       0       0       0
  6705 ;;      Locals:         2       0       0       0       0
  6706 ;;      Temps:          0       0       0       0       0
  6707 ;;      Totals:         4       0       0       0       0
  6708 ;;Total ram usage:        4 bytes
  6709 ;; Hardware stack levels used:    1
  6710 ;; Hardware stack levels required when called:    2
  6711 ;; This function calls:
  6712 ;;		_Lcd_Write_Char
  6713 ;; This function is called by:
  6714 ;;		_main
  6715 ;; This function uses a non-reentrant model
  6716 ;;
  6717                           
  6718                           
  6719                           ;psect for function _Lcd_Write_String
  6720  1686                     _Lcd_Write_String:
  6721  1686                     l2515:	
  6722                           ;incstack = 0
  6723                           ; Regs used in _Lcd_Write_String: [wreg-fsr0h+status,2+status,0+btemp+1+pclath+cstack]
  6724                           
  6725                           
  6726                           ;Librerias.c: 171:     int i;;Librerias.c: 172:     for (i = 0; a[i] != '\0'; i++)
  6727  1686  01F5               	clrf	Lcd_Write_String@i
  6728  1687  01F6               	clrf	Lcd_Write_String@i+1
  6729  1688  2EA1               	goto	l2521
  6730  1689                     l2517:
  6731                           
  6732                           ;Librerias.c: 173:         Lcd_Write_Char(a[i]);
  6733  1689  0875               	movf	Lcd_Write_String@i,w
  6734  168A  0773               	addwf	Lcd_Write_String@a,w
  6735  168B  0084               	movwf	4
  6736  168C  0876               	movf	Lcd_Write_String@i+1,w
  6737  168D  1803               	skipnc
  6738  168E  0A76               	incf	Lcd_Write_String@i+1,w
  6739  168F  0774               	addwf	Lcd_Write_String@a+1,w
  6740  1690  00FF               	movwf	btemp+1
  6741  1691  160A  118A  2000  160A  118A  	fcall	stringtab
  6742  1696  160A  118A  258B  160A  118A  	fcall	_Lcd_Write_Char
  6743  169B                     l2519:
  6744  169B  3001               	movlw	1
  6745  169C  07F5               	addwf	Lcd_Write_String@i,f
  6746  169D  1803               	skipnc
  6747  169E  0AF6               	incf	Lcd_Write_String@i+1,f
  6748  169F  3000               	movlw	0
  6749  16A0  07F6               	addwf	Lcd_Write_String@i+1,f
  6750  16A1                     l2521:
  6751  16A1  0875               	movf	Lcd_Write_String@i,w
  6752  16A2  0773               	addwf	Lcd_Write_String@a,w
  6753  16A3  0084               	movwf	4
  6754  16A4  0876               	movf	Lcd_Write_String@i+1,w
  6755  16A5  1803               	skipnc
  6756  16A6  0A76               	incf	Lcd_Write_String@i+1,w
  6757  16A7  0774               	addwf	Lcd_Write_String@a+1,w
  6758  16A8  1283               	bcf	3,5	;RP0=0, select bank0
  6759  16A9  1303               	bcf	3,6	;RP1=0, select bank0
  6760  16AA  00FF               	movwf	btemp+1
  6761  16AB  160A  118A  2000  160A  118A  	fcall	stringtab
  6762  16B0  3A00               	xorlw	0
  6763  16B1  1D03               	skipz
  6764  16B2  2EB4               	goto	u3561
  6765  16B3  2EB5               	goto	u3560
  6766  16B4                     u3561:
  6767  16B4  2E89               	goto	l2517
  6768  16B5                     u3560:
  6769  16B5                     l157:
  6770  16B5  0008               	return
  6771  16B6                     __end_of_Lcd_Write_String:
  6772                           
  6773                           	psect	text16
  6774  158B                     __ptext16:	
  6775 ;; *************** function _Lcd_Write_Char *****************
  6776 ;; Defined at:
  6777 ;;		line 162 in file "Librerias.c"
  6778 ;; Parameters:    Size  Location     Type
  6779 ;;  a               1    wreg     unsigned char 
  6780 ;; Auto vars:     Size  Location     Type
  6781 ;;  a               1    2[COMMON] unsigned char 
  6782 ;; Return value:  Size  Location     Type
  6783 ;;                  1    wreg      void 
  6784 ;; Registers used:
  6785 ;;		wreg, status,2, status,0, pclath, cstack
  6786 ;; Tracked objects:
  6787 ;;		On entry : 0/0
  6788 ;;		On exit  : 0/0
  6789 ;;		Unchanged: 0/0
  6790 ;; Data sizes:     COMMON   BANK0   BANK1   BANK3   BANK2
  6791 ;;      Params:         0       0       0       0       0
  6792 ;;      Locals:         1       0       0       0       0
  6793 ;;      Temps:          1       0       0       0       0
  6794 ;;      Totals:         2       0       0       0       0
  6795 ;;Total ram usage:        2 bytes
  6796 ;; Hardware stack levels used:    1
  6797 ;; Hardware stack levels required when called:    1
  6798 ;; This function calls:
  6799 ;;		_Lcd_Port
  6800 ;; This function is called by:
  6801 ;;		_Lcd_Write_String
  6802 ;; This function uses a non-reentrant model
  6803 ;;
  6804                           
  6805                           
  6806                           ;psect for function _Lcd_Write_Char
  6807  158B                     _Lcd_Write_Char:
  6808                           
  6809                           ;incstack = 0
  6810                           ; Regs used in _Lcd_Write_Char: [wreg+status,2+status,0+pclath+cstack]
  6811                           ;Lcd_Write_Char@a stored from wreg
  6812  158B  00F2               	movwf	Lcd_Write_Char@a
  6813  158C                     l2019:
  6814                           
  6815                           ;Librerias.c: 163:     PORTCbits.RC0 = 1;
  6816  158C  1283               	bcf	3,5	;RP0=0, select bank0
  6817  158D  1303               	bcf	3,6	;RP1=0, select bank0
  6818  158E  1407               	bsf	7,0	;volatile
  6819  158F                     l2021:
  6820                           
  6821                           ;Librerias.c: 164:     Lcd_Port(a);
  6822  158F  0872               	movf	Lcd_Write_Char@a,w
  6823  1590  160A  118A  2547  160A  118A  	fcall	_Lcd_Port
  6824  1595                     l2023:
  6825                           
  6826                           ;Librerias.c: 165:     PORTCbits.RC1 = 1;
  6827  1595  1283               	bcf	3,5	;RP0=0, select bank0
  6828  1596  1303               	bcf	3,6	;RP1=0, select bank0
  6829  1597  1487               	bsf	7,1	;volatile
  6830  1598                     l2025:
  6831                           
  6832                           ;Librerias.c: 166:     _delay((unsigned long)((10)*(4000000/4000000.0)));
  6833  1598  3003               	movlw	3
  6834  1599  00F1               	movwf	??_Lcd_Write_Char
  6835  159A                     u3707:
  6836  159A  0BF1               	decfsz	??_Lcd_Write_Char,f
  6837  159B  2D9A               	goto	u3707
  6838  159C                     l2027:
  6839                           
  6840                           ;Librerias.c: 167:     PORTCbits.RC1 = 0;
  6841  159C  1283               	bcf	3,5	;RP0=0, select bank0
  6842  159D  1303               	bcf	3,6	;RP1=0, select bank0
  6843  159E  1087               	bcf	7,1	;volatile
  6844  159F                     l151:
  6845  159F  0008               	return
  6846  15A0                     __end_of_Lcd_Write_Char:
  6847                           
  6848                           	psect	text17
  6849  15C2                     __ptext17:	
  6850 ;; *************** function _Lcd_Set_Cursor *****************
  6851 ;; Defined at:
  6852 ;;		line 137 in file "Librerias.c"
  6853 ;; Parameters:    Size  Location     Type
  6854 ;;  a               1    wreg     unsigned char 
  6855 ;;  b               1    4[COMMON] unsigned char 
  6856 ;; Auto vars:     Size  Location     Type
  6857 ;;  a               1    6[COMMON] unsigned char 
  6858 ;;  temp            1    7[COMMON] unsigned char 
  6859 ;; Return value:  Size  Location     Type
  6860 ;;                  1    wreg      void 
  6861 ;; Registers used:
  6862 ;;		wreg, status,2, status,0, pclath, cstack
  6863 ;; Tracked objects:
  6864 ;;		On entry : 0/0
  6865 ;;		On exit  : 0/0
  6866 ;;		Unchanged: 0/0
  6867 ;; Data sizes:     COMMON   BANK0   BANK1   BANK3   BANK2
  6868 ;;      Params:         1       0       0       0       0
  6869 ;;      Locals:         2       0       0       0       0
  6870 ;;      Temps:          1       0       0       0       0
  6871 ;;      Totals:         4       0       0       0       0
  6872 ;;Total ram usage:        4 bytes
  6873 ;; Hardware stack levels used:    1
  6874 ;; Hardware stack levels required when called:    2
  6875 ;; This function calls:
  6876 ;;		_Lcd_Cmd
  6877 ;; This function is called by:
  6878 ;;		_main
  6879 ;; This function uses a non-reentrant model
  6880 ;;
  6881                           
  6882                           
  6883                           ;psect for function _Lcd_Set_Cursor
  6884  15C2                     _Lcd_Set_Cursor:
  6885                           
  6886                           ;incstack = 0
  6887                           ; Regs used in _Lcd_Set_Cursor: [wreg+status,2+status,0+pclath+cstack]
  6888                           ;Lcd_Set_Cursor@a stored from wreg
  6889  15C2  00F6               	movwf	Lcd_Set_Cursor@a
  6890  15C3                     l2503:
  6891                           
  6892                           ;Librerias.c: 138:     char temp;;Librerias.c: 139:     if (a == 1) {
  6893  15C3  0376               	decf	Lcd_Set_Cursor@a,w
  6894  15C4  1D03               	btfss	3,2
  6895  15C5  2DC7               	goto	u3541
  6896  15C6  2DC8               	goto	u3540
  6897  15C7                     u3541:
  6898  15C7  2DD4               	goto	l2509
  6899  15C8                     u3540:
  6900  15C8                     l2505:
  6901                           
  6902                           ;Librerias.c: 140:         temp = 0x80 + b - 1;
  6903  15C8  0874               	movf	Lcd_Set_Cursor@b,w
  6904  15C9  3E7F               	addlw	127
  6905  15CA  00F5               	movwf	??_Lcd_Set_Cursor
  6906  15CB  0875               	movf	??_Lcd_Set_Cursor,w
  6907  15CC  00F7               	movwf	Lcd_Set_Cursor@temp
  6908  15CD                     l2507:
  6909                           
  6910                           ;Librerias.c: 141:         Lcd_Cmd(temp);
  6911  15CD  0877               	movf	Lcd_Set_Cursor@temp,w
  6912  15CE  120A  118A  2006  160A  118A  	fcall	_Lcd_Cmd
  6913                           
  6914                           ;Librerias.c: 142:     } else if (a == 2) {
  6915  15D3  2DE5               	goto	l145
  6916  15D4                     l2509:
  6917  15D4  3002               	movlw	2
  6918  15D5  0676               	xorwf	Lcd_Set_Cursor@a,w
  6919  15D6  1D03               	btfss	3,2
  6920  15D7  2DD9               	goto	u3551
  6921  15D8  2DDA               	goto	u3550
  6922  15D9                     u3551:
  6923  15D9  2DE5               	goto	l145
  6924  15DA                     u3550:
  6925  15DA                     l2511:
  6926                           
  6927                           ;Librerias.c: 143:         temp = 0xC0 + b - 1;
  6928  15DA  0874               	movf	Lcd_Set_Cursor@b,w
  6929  15DB  3EBF               	addlw	191
  6930  15DC  00F5               	movwf	??_Lcd_Set_Cursor
  6931  15DD  0875               	movf	??_Lcd_Set_Cursor,w
  6932  15DE  00F7               	movwf	Lcd_Set_Cursor@temp
  6933  15DF                     l2513:
  6934                           
  6935                           ;Librerias.c: 144:         Lcd_Cmd(temp);
  6936  15DF  0877               	movf	Lcd_Set_Cursor@temp,w
  6937  15E0  120A  118A  2006  160A  118A  	fcall	_Lcd_Cmd
  6938  15E5                     l145:
  6939  15E5  0008               	return
  6940  15E6                     __end_of_Lcd_Set_Cursor:
  6941                           
  6942                           	psect	text18
  6943  16EE                     __ptext18:	
  6944 ;; *************** function _Lcd_Init *****************
  6945 ;; Defined at:
  6946 ;;		line 148 in file "Librerias.c"
  6947 ;; Parameters:    Size  Location     Type
  6948 ;;		None
  6949 ;; Auto vars:     Size  Location     Type
  6950 ;;		None
  6951 ;; Return value:  Size  Location     Type
  6952 ;;                  1    wreg      void 
  6953 ;; Registers used:
  6954 ;;		wreg, status,2, status,0, pclath, cstack
  6955 ;; Tracked objects:
  6956 ;;		On entry : 0/0
  6957 ;;		On exit  : 0/0
  6958 ;;		Unchanged: 0/0
  6959 ;; Data sizes:     COMMON   BANK0   BANK1   BANK3   BANK2
  6960 ;;      Params:         0       0       0       0       0
  6961 ;;      Locals:         0       0       0       0       0
  6962 ;;      Temps:          2       0       0       0       0
  6963 ;;      Totals:         2       0       0       0       0
  6964 ;;Total ram usage:        2 bytes
  6965 ;; Hardware stack levels used:    1
  6966 ;; Hardware stack levels required when called:    2
  6967 ;; This function calls:
  6968 ;;		_Lcd_Cmd
  6969 ;;		_Lcd_Port
  6970 ;; This function is called by:
  6971 ;;		_main
  6972 ;; This function uses a non-reentrant model
  6973 ;;
  6974                           
  6975                           
  6976                           ;psect for function _Lcd_Init
  6977  16EE                     _Lcd_Init:
  6978  16EE                     l2491:	
  6979                           ;incstack = 0
  6980                           ; Regs used in _Lcd_Init: [wreg+status,2+status,0+pclath+cstack]
  6981                           
  6982                           
  6983                           ;Librerias.c: 149:     Lcd_Port(0x00);
  6984  16EE  3000               	movlw	0
  6985  16EF  160A  118A  2547  160A  118A  	fcall	_Lcd_Port
  6986  16F4                     l2493:
  6987                           
  6988                           ;Librerias.c: 150:     _delay((unsigned long)((20)*(4000000/4000.0)));
  6989  16F4  301A               	movlw	26
  6990  16F5  00F5               	movwf	??_Lcd_Init+1
  6991  16F6  30F8               	movlw	248
  6992  16F7  00F4               	movwf	??_Lcd_Init
  6993  16F8                     u3717:
  6994  16F8  0BF4               	decfsz	??_Lcd_Init,f
  6995  16F9  2EF8               	goto	u3717
  6996  16FA  0BF5               	decfsz	??_Lcd_Init+1,f
  6997  16FB  2EF8               	goto	u3717
  6998  16FC  0000               	nop
  6999  16FD                     l2495:
  7000                           
  7001                           ;Librerias.c: 151:     Lcd_Cmd(0x30);
  7002  16FD  3030               	movlw	48
  7003  16FE  120A  118A  2006  160A  118A  	fcall	_Lcd_Cmd
  7004                           
  7005                           ;Librerias.c: 152:     _delay((unsigned long)((5)*(4000000/4000.0)));
  7006  1703  3007               	movlw	7
  7007  1704  00F5               	movwf	??_Lcd_Init+1
  7008  1705  307D               	movlw	125
  7009  1706  00F4               	movwf	??_Lcd_Init
  7010  1707                     u3727:
  7011  1707  0BF4               	decfsz	??_Lcd_Init,f
  7012  1708  2F07               	goto	u3727
  7013  1709  0BF5               	decfsz	??_Lcd_Init+1,f
  7014  170A  2F07               	goto	u3727
  7015  170B                     l2497:
  7016                           
  7017                           ;Librerias.c: 153:     Lcd_Cmd(0x30);
  7018  170B  3030               	movlw	48
  7019  170C  120A  118A  2006  160A  118A  	fcall	_Lcd_Cmd
  7020  1711                     l2499:
  7021                           
  7022                           ;Librerias.c: 154:     _delay((unsigned long)((11)*(4000000/4000.0)));
  7023  1711  300F               	movlw	15
  7024  1712  00F5               	movwf	??_Lcd_Init+1
  7025  1713  3047               	movlw	71
  7026  1714  00F4               	movwf	??_Lcd_Init
  7027  1715                     u3737:
  7028  1715  0BF4               	decfsz	??_Lcd_Init,f
  7029  1716  2F15               	goto	u3737
  7030  1717  0BF5               	decfsz	??_Lcd_Init+1,f
  7031  1718  2F15               	goto	u3737
  7032  1719  2F1A               	nop2
  7033                           
  7034                           ;Librerias.c: 155:     Lcd_Cmd(0x30);
  7035  171A  3030               	movlw	48
  7036  171B  120A  118A  2006  160A  118A  	fcall	_Lcd_Cmd
  7037                           
  7038                           ;Librerias.c: 157:     Lcd_Cmd(0x38);
  7039  1720  3038               	movlw	56
  7040  1721  120A  118A  2006  160A  118A  	fcall	_Lcd_Cmd
  7041                           
  7042                           ;Librerias.c: 158:     Lcd_Cmd(0x0C);
  7043  1726  300C               	movlw	12
  7044  1727  120A  118A  2006  160A  118A  	fcall	_Lcd_Cmd
  7045                           
  7046                           ;Librerias.c: 159:     Lcd_Cmd(0x6);
  7047  172C  3006               	movlw	6
  7048  172D  120A  118A  2006  160A  118A  	fcall	_Lcd_Cmd
  7049  1732                     l148:
  7050  1732  0008               	return
  7051  1733                     __end_of_Lcd_Init:
  7052                           
  7053                           	psect	text19
  7054  157E                     __ptext19:	
  7055 ;; *************** function _Lcd_Clear *****************
  7056 ;; Defined at:
  7057 ;;		line 132 in file "Librerias.c"
  7058 ;; Parameters:    Size  Location     Type
  7059 ;;		None
  7060 ;; Auto vars:     Size  Location     Type
  7061 ;;		None
  7062 ;; Return value:  Size  Location     Type
  7063 ;;                  1    wreg      void 
  7064 ;; Registers used:
  7065 ;;		wreg, status,2, status,0, pclath, cstack
  7066 ;; Tracked objects:
  7067 ;;		On entry : 0/0
  7068 ;;		On exit  : 0/0
  7069 ;;		Unchanged: 0/0
  7070 ;; Data sizes:     COMMON   BANK0   BANK1   BANK3   BANK2
  7071 ;;      Params:         0       0       0       0       0
  7072 ;;      Locals:         0       0       0       0       0
  7073 ;;      Temps:          0       0       0       0       0
  7074 ;;      Totals:         0       0       0       0       0
  7075 ;;Total ram usage:        0 bytes
  7076 ;; Hardware stack levels used:    1
  7077 ;; Hardware stack levels required when called:    2
  7078 ;; This function calls:
  7079 ;;		_Lcd_Cmd
  7080 ;; This function is called by:
  7081 ;;		_main
  7082 ;; This function uses a non-reentrant model
  7083 ;;
  7084                           
  7085                           
  7086                           ;psect for function _Lcd_Clear
  7087  157E                     _Lcd_Clear:
  7088  157E                     l2501:	
  7089                           ;incstack = 0
  7090                           ; Regs used in _Lcd_Clear: [wreg+status,2+status,0+pclath+cstack]
  7091                           
  7092                           
  7093                           ;Librerias.c: 133:     Lcd_Cmd(0);
  7094  157E  3000               	movlw	0
  7095  157F  120A  118A  2006  160A  118A  	fcall	_Lcd_Cmd
  7096                           
  7097                           ;Librerias.c: 134:     Lcd_Cmd(1);
  7098  1584  3001               	movlw	1
  7099  1585  120A  118A  2006  160A  118A  	fcall	_Lcd_Cmd
  7100  158A                     l139:
  7101  158A  0008               	return
  7102  158B                     __end_of_Lcd_Clear:
  7103                           
  7104                           	psect	text20
  7105  0006                     __ptext20:	
  7106 ;; *************** function _Lcd_Cmd *****************
  7107 ;; Defined at:
  7108 ;;		line 124 in file "Librerias.c"
  7109 ;; Parameters:    Size  Location     Type
  7110 ;;  a               1    wreg     unsigned char 
  7111 ;; Auto vars:     Size  Location     Type
  7112 ;;  a               1    3[COMMON] unsigned char 
  7113 ;; Return value:  Size  Location     Type
  7114 ;;                  1    wreg      void 
  7115 ;; Registers used:
  7116 ;;		wreg, status,2, status,0, pclath, cstack
  7117 ;; Tracked objects:
  7118 ;;		On entry : 0/0
  7119 ;;		On exit  : 0/0
  7120 ;;		Unchanged: 0/0
  7121 ;; Data sizes:     COMMON   BANK0   BANK1   BANK3   BANK2
  7122 ;;      Params:         0       0       0       0       0
  7123 ;;      Locals:         1       0       0       0       0
  7124 ;;      Temps:          2       0       0       0       0
  7125 ;;      Totals:         3       0       0       0       0
  7126 ;;Total ram usage:        3 bytes
  7127 ;; Hardware stack levels used:    1
  7128 ;; Hardware stack levels required when called:    1
  7129 ;; This function calls:
  7130 ;;		_Lcd_Port
  7131 ;; This function is called by:
  7132 ;;		_Lcd_Clear
  7133 ;;		_Lcd_Set_Cursor
  7134 ;;		_Lcd_Init
  7135 ;;		_Lcd_Shift_Right
  7136 ;;		_Lcd_Shift_Left
  7137 ;; This function uses a non-reentrant model
  7138 ;;
  7139                           
  7140                           
  7141                           ;psect for function _Lcd_Cmd
  7142  0006                     _Lcd_Cmd:
  7143                           
  7144                           ;incstack = 0
  7145                           ; Regs used in _Lcd_Cmd: [wreg+status,2+status,0+pclath+cstack]
  7146                           ;Lcd_Cmd@a stored from wreg
  7147  0006  00F3               	movwf	Lcd_Cmd@a
  7148  0007                     l2009:
  7149                           
  7150                           ;Librerias.c: 125:     PORTCbits.RC0 = 0;
  7151  0007  1283               	bcf	3,5	;RP0=0, select bank0
  7152  0008  1303               	bcf	3,6	;RP1=0, select bank0
  7153  0009  1007               	bcf	7,0	;volatile
  7154  000A                     l2011:
  7155                           
  7156                           ;Librerias.c: 126:     Lcd_Port(a);
  7157  000A  0873               	movf	Lcd_Cmd@a,w
  7158  000B  160A  118A  2547  120A  118A  	fcall	_Lcd_Port
  7159  0010                     l2013:
  7160                           
  7161                           ;Librerias.c: 127:     PORTCbits.RC1 = 1;
  7162  0010  1283               	bcf	3,5	;RP0=0, select bank0
  7163  0011  1303               	bcf	3,6	;RP1=0, select bank0
  7164  0012  1487               	bsf	7,1	;volatile
  7165  0013                     l2015:
  7166                           
  7167                           ;Librerias.c: 128:     _delay((unsigned long)((4)*(4000000/4000.0)));
  7168  0013  3006               	movlw	6
  7169  0014  00F2               	movwf	??_Lcd_Cmd+1
  7170  0015  3030               	movlw	48
  7171  0016  00F1               	movwf	??_Lcd_Cmd
  7172  0017                     u3747:
  7173  0017  0BF1               	decfsz	??_Lcd_Cmd,f
  7174  0018  2817               	goto	u3747
  7175  0019  0BF2               	decfsz	??_Lcd_Cmd+1,f
  7176  001A  2817               	goto	u3747
  7177  001B  0000               	nop
  7178  001C                     l2017:
  7179                           
  7180                           ;Librerias.c: 129:     PORTCbits.RC1 = 0;
  7181  001C  1283               	bcf	3,5	;RP0=0, select bank0
  7182  001D  1303               	bcf	3,6	;RP1=0, select bank0
  7183  001E  1087               	bcf	7,1	;volatile
  7184  001F                     l136:
  7185  001F  0008               	return
  7186  0020                     __end_of_Lcd_Cmd:
  7187                           
  7188                           	psect	text21
  7189  1547                     __ptext21:	
  7190 ;; *************** function _Lcd_Port *****************
  7191 ;; Defined at:
  7192 ;;		line 120 in file "Librerias.c"
  7193 ;; Parameters:    Size  Location     Type
  7194 ;;  a               1    wreg     unsigned char 
  7195 ;; Auto vars:     Size  Location     Type
  7196 ;;  a               1    0[COMMON] unsigned char 
  7197 ;; Return value:  Size  Location     Type
  7198 ;;                  1    wreg      void 
  7199 ;; Registers used:
  7200 ;;		wreg
  7201 ;; Tracked objects:
  7202 ;;		On entry : 0/0
  7203 ;;		On exit  : 0/0
  7204 ;;		Unchanged: 0/0
  7205 ;; Data sizes:     COMMON   BANK0   BANK1   BANK3   BANK2
  7206 ;;      Params:         0       0       0       0       0
  7207 ;;      Locals:         1       0       0       0       0
  7208 ;;      Temps:          0       0       0       0       0
  7209 ;;      Totals:         1       0       0       0       0
  7210 ;;Total ram usage:        1 bytes
  7211 ;; Hardware stack levels used:    1
  7212 ;; This function calls:
  7213 ;;		Nothing
  7214 ;; This function is called by:
  7215 ;;		_Lcd_Cmd
  7216 ;;		_Lcd_Init
  7217 ;;		_Lcd_Write_Char
  7218 ;; This function uses a non-reentrant model
  7219 ;;
  7220                           
  7221                           
  7222                           ;psect for function _Lcd_Port
  7223  1547                     _Lcd_Port:
  7224                           
  7225                           ;incstack = 0
  7226                           ; Regs used in _Lcd_Port: [wreg]
  7227                           ;Lcd_Port@a stored from wreg
  7228  1547  00F0               	movwf	Lcd_Port@a
  7229  1548                     l1759:
  7230                           
  7231                           ;Librerias.c: 121:     PORTB = a;
  7232  1548  0870               	movf	Lcd_Port@a,w
  7233  1549  1283               	bcf	3,5	;RP0=0, select bank0
  7234  154A  1303               	bcf	3,6	;RP1=0, select bank0
  7235  154B  0086               	movwf	6	;volatile
  7236  154C                     l133:
  7237  154C  0008               	return
  7238  154D                     __end_of_Lcd_Port:
  7239                           
  7240                           	psect	text22
  7241  1567                     __ptext22:	
  7242 ;; *************** function _I2C_Master_Write *****************
  7243 ;; Defined at:
  7244 ;;		line 76 in file "Librerias.c"
  7245 ;; Parameters:    Size  Location     Type
  7246 ;;  d               2    0[COMMON] unsigned int 
  7247 ;; Auto vars:     Size  Location     Type
  7248 ;;		None
  7249 ;; Return value:  Size  Location     Type
  7250 ;;                  1    wreg      void 
  7251 ;; Registers used:
  7252 ;;		wreg, status,2, status,0, pclath, cstack
  7253 ;; Tracked objects:
  7254 ;;		On entry : 0/0
  7255 ;;		On exit  : 0/0
  7256 ;;		Unchanged: 0/0
  7257 ;; Data sizes:     COMMON   BANK0   BANK1   BANK3   BANK2
  7258 ;;      Params:         2       0       0       0       0
  7259 ;;      Locals:         0       0       0       0       0
  7260 ;;      Temps:          0       0       0       0       0
  7261 ;;      Totals:         2       0       0       0       0
  7262 ;;Total ram usage:        2 bytes
  7263 ;; Hardware stack levels used:    1
  7264 ;; Hardware stack levels required when called:    1
  7265 ;; This function calls:
  7266 ;;		_I2C_Master_Wait
  7267 ;; This function is called by:
  7268 ;;		_main
  7269 ;; This function uses a non-reentrant model
  7270 ;;
  7271                           
  7272                           
  7273                           ;psect for function _I2C_Master_Write
  7274  1567                     _I2C_Master_Write:
  7275  1567                     l2527:	
  7276                           ;incstack = 0
  7277                           ; Regs used in _I2C_Master_Write: [wreg+status,2+status,0+pclath+cstack]
  7278                           
  7279                           
  7280                           ;Librerias.c: 76: void I2C_Master_Write(unsigned d);Librerias.c: 77: {;Librerias.c: 78: 
      +                              I2C_Master_Wait();
  7281  1567  160A  118A  2571  160A  118A  	fcall	_I2C_Master_Wait
  7282  156C                     l2529:
  7283                           
  7284                           ;Librerias.c: 79:     SSPBUF = d;
  7285  156C  0870               	movf	I2C_Master_Write@d,w
  7286  156D  1283               	bcf	3,5	;RP0=0, select bank0
  7287  156E  1303               	bcf	3,6	;RP1=0, select bank0
  7288  156F  0093               	movwf	19	;volatile
  7289  1570                     l122:
  7290  1570  0008               	return
  7291  1571                     __end_of_I2C_Master_Write:
  7292                           
  7293                           	psect	text23
  7294  155E                     __ptext23:	
  7295 ;; *************** function _I2C_Master_Stop *****************
  7296 ;; Defined at:
  7297 ;;		line 66 in file "Librerias.c"
  7298 ;; Parameters:    Size  Location     Type
  7299 ;;		None
  7300 ;; Auto vars:     Size  Location     Type
  7301 ;;		None
  7302 ;; Return value:  Size  Location     Type
  7303 ;;                  1    wreg      void 
  7304 ;; Registers used:
  7305 ;;		wreg, status,2, status,0, pclath, cstack
  7306 ;; Tracked objects:
  7307 ;;		On entry : 0/0
  7308 ;;		On exit  : 0/0
  7309 ;;		Unchanged: 0/0
  7310 ;; Data sizes:     COMMON   BANK0   BANK1   BANK3   BANK2
  7311 ;;      Params:         0       0       0       0       0
  7312 ;;      Locals:         0       0       0       0       0
  7313 ;;      Temps:          0       0       0       0       0
  7314 ;;      Totals:         0       0       0       0       0
  7315 ;;Total ram usage:        0 bytes
  7316 ;; Hardware stack levels used:    1
  7317 ;; Hardware stack levels required when called:    1
  7318 ;; This function calls:
  7319 ;;		_I2C_Master_Wait
  7320 ;; This function is called by:
  7321 ;;		_main
  7322 ;; This function uses a non-reentrant model
  7323 ;;
  7324                           
  7325                           
  7326                           ;psect for function _I2C_Master_Stop
  7327  155E                     _I2C_Master_Stop:
  7328  155E                     l2547:	
  7329                           ;incstack = 0
  7330                           ; Regs used in _I2C_Master_Stop: [wreg+status,2+status,0+pclath+cstack]
  7331                           
  7332                           
  7333                           ;Librerias.c: 68:     I2C_Master_Wait();
  7334  155E  160A  118A  2571  160A  118A  	fcall	_I2C_Master_Wait
  7335  1563                     l2549:
  7336                           
  7337                           ;Librerias.c: 69:     SSPCON2bits.PEN = 1;
  7338  1563  1683               	bsf	3,5	;RP0=1, select bank1
  7339  1564  1303               	bcf	3,6	;RP1=0, select bank1
  7340  1565  1511               	bsf	17,2	;volatile
  7341  1566                     l119:
  7342  1566  0008               	return
  7343  1567                     __end_of_I2C_Master_Stop:
  7344                           
  7345                           	psect	text24
  7346  1555                     __ptext24:	
  7347 ;; *************** function _I2C_Master_Start *****************
  7348 ;; Defined at:
  7349 ;;		line 50 in file "Librerias.c"
  7350 ;; Parameters:    Size  Location     Type
  7351 ;;		None
  7352 ;; Auto vars:     Size  Location     Type
  7353 ;;		None
  7354 ;; Return value:  Size  Location     Type
  7355 ;;                  1    wreg      void 
  7356 ;; Registers used:
  7357 ;;		wreg, status,2, status,0, pclath, cstack
  7358 ;; Tracked objects:
  7359 ;;		On entry : 0/0
  7360 ;;		On exit  : 0/0
  7361 ;;		Unchanged: 0/0
  7362 ;; Data sizes:     COMMON   BANK0   BANK1   BANK3   BANK2
  7363 ;;      Params:         0       0       0       0       0
  7364 ;;      Locals:         0       0       0       0       0
  7365 ;;      Temps:          0       0       0       0       0
  7366 ;;      Totals:         0       0       0       0       0
  7367 ;;Total ram usage:        0 bytes
  7368 ;; Hardware stack levels used:    1
  7369 ;; Hardware stack levels required when called:    1
  7370 ;; This function calls:
  7371 ;;		_I2C_Master_Wait
  7372 ;; This function is called by:
  7373 ;;		_main
  7374 ;; This function uses a non-reentrant model
  7375 ;;
  7376                           
  7377                           
  7378                           ;psect for function _I2C_Master_Start
  7379  1555                     _I2C_Master_Start:
  7380  1555                     l2523:	
  7381                           ;incstack = 0
  7382                           ; Regs used in _I2C_Master_Start: [wreg+status,2+status,0+pclath+cstack]
  7383                           
  7384                           
  7385                           ;Librerias.c: 52:     I2C_Master_Wait();
  7386  1555  160A  118A  2571  160A  118A  	fcall	_I2C_Master_Wait
  7387  155A                     l2525:
  7388                           
  7389                           ;Librerias.c: 53:     SSPCON2bits.SEN = 1;
  7390  155A  1683               	bsf	3,5	;RP0=1, select bank1
  7391  155B  1303               	bcf	3,6	;RP1=0, select bank1
  7392  155C  1411               	bsf	17,0	;volatile
  7393  155D                     l113:
  7394  155D  0008               	return
  7395  155E                     __end_of_I2C_Master_Start:
  7396                           
  7397                           	psect	text25
  7398  1658                     __ptext25:	
  7399 ;; *************** function _I2C_Master_Read *****************
  7400 ;; Defined at:
  7401 ;;		line 85 in file "Librerias.c"
  7402 ;; Parameters:    Size  Location     Type
  7403 ;;  a               2    0[COMMON] unsigned short 
  7404 ;; Auto vars:     Size  Location     Type
  7405 ;;  temp            2    4[COMMON] unsigned short 
  7406 ;; Return value:  Size  Location     Type
  7407 ;;                  2    0[COMMON] unsigned short 
  7408 ;; Registers used:
  7409 ;;		wreg, status,2, status,0, pclath, cstack
  7410 ;; Tracked objects:
  7411 ;;		On entry : 0/0
  7412 ;;		On exit  : 0/0
  7413 ;;		Unchanged: 0/0
  7414 ;; Data sizes:     COMMON   BANK0   BANK1   BANK3   BANK2
  7415 ;;      Params:         2       0       0       0       0
  7416 ;;      Locals:         2       0       0       0       0
  7417 ;;      Temps:          2       0       0       0       0
  7418 ;;      Totals:         6       0       0       0       0
  7419 ;;Total ram usage:        6 bytes
  7420 ;; Hardware stack levels used:    1
  7421 ;; Hardware stack levels required when called:    1
  7422 ;; This function calls:
  7423 ;;		_I2C_Master_Wait
  7424 ;; This function is called by:
  7425 ;;		_main
  7426 ;; This function uses a non-reentrant model
  7427 ;;
  7428                           
  7429                           
  7430                           ;psect for function _I2C_Master_Read
  7431  1658                     _I2C_Master_Read:
  7432  1658                     l2531:	
  7433                           ;incstack = 0
  7434                           ; Regs used in _I2C_Master_Read: [wreg+status,2+status,0+pclath+cstack]
  7435                           
  7436                           
  7437                           ;Librerias.c: 85: unsigned short I2C_Master_Read(unsigned short a);Librerias.c: 86: {;Li
      +                          brerias.c: 87:     unsigned short temp;;Librerias.c: 88:     I2C_Master_Wait();
  7438  1658  160A  118A  2571  160A  118A  	fcall	_I2C_Master_Wait
  7439  165D                     l2533:
  7440                           
  7441                           ;Librerias.c: 89:     SSPCON2bits.RCEN = 1;
  7442  165D  1683               	bsf	3,5	;RP0=1, select bank1
  7443  165E  1303               	bcf	3,6	;RP1=0, select bank1
  7444  165F  1591               	bsf	17,3	;volatile
  7445                           
  7446                           ;Librerias.c: 90:     I2C_Master_Wait();
  7447  1660  160A  118A  2571  160A  118A  	fcall	_I2C_Master_Wait
  7448  1665                     l2535:
  7449                           
  7450                           ;Librerias.c: 91:     temp = SSPBUF;
  7451  1665  1283               	bcf	3,5	;RP0=0, select bank0
  7452  1666  1303               	bcf	3,6	;RP1=0, select bank0
  7453  1667  0813               	movf	19,w	;volatile
  7454  1668  00F2               	movwf	??_I2C_Master_Read
  7455  1669  01F3               	clrf	??_I2C_Master_Read+1
  7456  166A  0872               	movf	??_I2C_Master_Read,w
  7457  166B  00F4               	movwf	I2C_Master_Read@temp
  7458  166C  0873               	movf	??_I2C_Master_Read+1,w
  7459  166D  00F5               	movwf	I2C_Master_Read@temp+1
  7460  166E                     l2537:
  7461                           
  7462                           ;Librerias.c: 92:     I2C_Master_Wait();
  7463  166E  160A  118A  2571  160A  118A  	fcall	_I2C_Master_Wait
  7464  1673                     l2539:
  7465                           
  7466                           ;Librerias.c: 93:     if(a == 1){
  7467  1673  0370               	decf	I2C_Master_Read@a,w
  7468  1674  0471               	iorwf	I2C_Master_Read@a+1,w
  7469  1675  1D03               	btfss	3,2
  7470  1676  2E78               	goto	u3571
  7471  1677  2E79               	goto	u3570
  7472  1678                     u3571:
  7473  1678  2E7D               	goto	l125
  7474  1679                     u3570:
  7475  1679                     l2541:
  7476                           
  7477                           ;Librerias.c: 94:         SSPCON2bits.ACKDT = 0;
  7478  1679  1683               	bsf	3,5	;RP0=1, select bank1
  7479  167A  1303               	bcf	3,6	;RP1=0, select bank1
  7480  167B  1291               	bcf	17,5	;volatile
  7481                           
  7482                           ;Librerias.c: 95:     }else{
  7483  167C  2E80               	goto	l126
  7484  167D                     l125:
  7485                           
  7486                           ;Librerias.c: 96:         SSPCON2bits.ACKDT = 1;
  7487  167D  1683               	bsf	3,5	;RP0=1, select bank1
  7488  167E  1303               	bcf	3,6	;RP1=0, select bank1
  7489  167F  1691               	bsf	17,5	;volatile
  7490  1680                     l126:	
  7491                           ;Librerias.c: 97:     }
  7492                           
  7493                           
  7494                           ;Librerias.c: 98:     SSPCON2bits.ACKEN = 1;
  7495  1680  1611               	bsf	17,4	;volatile
  7496  1681                     l2543:
  7497                           
  7498                           ;Librerias.c: 99:     return temp;
  7499  1681  0875               	movf	I2C_Master_Read@temp+1,w
  7500  1682  00F1               	movwf	?_I2C_Master_Read+1
  7501  1683  0874               	movf	I2C_Master_Read@temp,w
  7502  1684  00F0               	movwf	?_I2C_Master_Read
  7503  1685                     l127:
  7504  1685  0008               	return
  7505  1686                     __end_of_I2C_Master_Read:
  7506                           
  7507                           	psect	text26
  7508  1571                     __ptext26:	
  7509 ;; *************** function _I2C_Master_Wait *****************
  7510 ;; Defined at:
  7511 ;;		line 43 in file "Librerias.c"
  7512 ;; Parameters:    Size  Location     Type
  7513 ;;		None
  7514 ;; Auto vars:     Size  Location     Type
  7515 ;;		None
  7516 ;; Return value:  Size  Location     Type
  7517 ;;                  1    wreg      void 
  7518 ;; Registers used:
  7519 ;;		wreg, status,2
  7520 ;; Tracked objects:
  7521 ;;		On entry : 0/0
  7522 ;;		On exit  : 0/0
  7523 ;;		Unchanged: 0/0
  7524 ;; Data sizes:     COMMON   BANK0   BANK1   BANK3   BANK2
  7525 ;;      Params:         0       0       0       0       0
  7526 ;;      Locals:         0       0       0       0       0
  7527 ;;      Temps:          0       0       0       0       0
  7528 ;;      Totals:         0       0       0       0       0
  7529 ;;Total ram usage:        0 bytes
  7530 ;; Hardware stack levels used:    1
  7531 ;; This function calls:
  7532 ;;		Nothing
  7533 ;; This function is called by:
  7534 ;;		_I2C_Master_Start
  7535 ;;		_I2C_Master_Stop
  7536 ;;		_I2C_Master_Write
  7537 ;;		_I2C_Master_Read
  7538 ;;		_I2C_Master_RepeatedStart
  7539 ;; This function uses a non-reentrant model
  7540 ;;
  7541                           
  7542                           
  7543                           ;psect for function _I2C_Master_Wait
  7544  1571                     _I2C_Master_Wait:
  7545  1571                     l2005:	
  7546                           ;incstack = 0
  7547                           ; Regs used in _I2C_Master_Wait: [wreg+status,2]
  7548                           
  7549  1571                     l107:	
  7550                           ;Librerias.c: 45:     while ((SSPSTAT & 0x04) || (SSPCON2 & 0x1F));
  7551                           
  7552  1571  1683               	bsf	3,5	;RP0=1, select bank1
  7553  1572  1303               	bcf	3,6	;RP1=0, select bank1
  7554  1573  1914               	btfsc	20,2	;volatile
  7555  1574  2D76               	goto	u2411
  7556  1575  2D77               	goto	u2410
  7557  1576                     u2411:
  7558  1576  2D71               	goto	l107
  7559  1577                     u2410:
  7560  1577                     l2007:
  7561  1577  0811               	movf	17,w	;volatile
  7562  1578  391F               	andlw	31
  7563  1579  1D03               	btfss	3,2
  7564  157A  2D7C               	goto	u2421
  7565  157B  2D7D               	goto	u2420
  7566  157C                     u2421:
  7567  157C  2D71               	goto	l107
  7568  157D                     u2420:
  7569  157D                     l110:
  7570  157D  0008               	return
  7571  157E                     __end_of_I2C_Master_Wait:
  7572  007E                     btemp	set	126	;btemp
  7573  007E                     wtemp0	set	126
  7574                           
  7575                           	psect	config
  7576                           
  7577                           ;Config register CONFIG1 @ 0x2007
  7578                           ;	Oscillator Selection bits
  7579                           ;	FOSC = EXTRC_NOCLKOUT, RCIO oscillator: I/O function on RA6/OSC2/CLKOUT pin, RC on RA7
      +                          /OSC1/CLKIN
  7580                           ;	Watchdog Timer Enable bit
  7581                           ;	WDTE = OFF, WDT disabled and can be enabled by SWDTEN bit of the WDTCON register
  7582                           ;	Power-up Timer Enable bit
  7583                           ;	PWRTE = OFF, PWRT disabled
  7584                           ;	RE3/MCLR pin function select bit
  7585                           ;	MCLRE = OFF, RE3/MCLR pin function is digital input, MCLR internally tied to VDD
  7586                           ;	Code Protection bit
  7587                           ;	CP = OFF, Program memory code protection is disabled
  7588                           ;	Data Code Protection bit
  7589                           ;	CPD = OFF, Data memory code protection is disabled
  7590                           ;	Brown Out Reset Selection bits
  7591                           ;	BOREN = OFF, BOR disabled
  7592                           ;	Internal External Switchover bit
  7593                           ;	IESO = OFF, Internal/External Switchover mode is disabled
  7594                           ;	Fail-Safe Clock Monitor Enabled bit
  7595                           ;	FCMEN = OFF, Fail-Safe Clock Monitor is disabled
  7596                           ;	Low Voltage Programming Enable bit
  7597                           ;	LVP = OFF, RB3 pin has digital I/O, HV on MCLR must be used for programming
  7598                           ;	In-Circuit Debugger Mode bit
  7599                           ;	DEBUG = 0x1, unprogrammed default
  7600  2007                     	org	8199
  7601  2007  20D6               	dw	8406
  7602                           
  7603                           ;Config register CONFIG2 @ 0x2008
  7604                           ;	Brown-out Reset Selection bit
  7605                           ;	BOR4V = BOR40V, Brown-out Reset set to 4.0V
  7606                           ;	Flash Program Memory Self Write Enable bits
  7607                           ;	WRT = OFF, Write protection off
  7608  2008                     	org	8200
  7609  2008  3FFF               	dw	16383

Data Sizes:
    Strings     14
    Constant    0
    Data        0
    BSS         46
    Persistent  0
    Stack       0

Auto Spaces:
    Space          Size  Autos    Used
    COMMON           14     14      14
    BANK0            80     78      80
    BANK1            80     19      63
    BANK3            96      0       0
    BANK2            96      0       0

Pointer List with Targets:

    convert@data	PTR unsigned char  size(1) Largest target is 10
		 -> lcd2(BANK1[10]), lcd1(BANK1[10]), 

    Lcd_Write_String@a	PTR unsigned char  size(2) Largest target is 512
		 -> STR_5(CODE[2]), RAM(DATA[512]), STR_4(CODE[2]), lcd1(BANK1[10]), 
		 -> STR_3(CODE[4]), STR_2(CODE[4]), STR_1(CODE[4]), 


Critical Paths under _main in COMMON

    _I2C_Master_Init->___lldiv
    _convert->___wmul
    ___xxtofl->___wmul
    ___wmul->___fltol
    ___flsub->___wmul
    _Lcd_Write_String->_Lcd_Write_Char
    _Lcd_Write_Char->_Lcd_Port
    _Lcd_Set_Cursor->_Lcd_Cmd
    _Lcd_Init->_Lcd_Cmd
    _Lcd_Clear->_Lcd_Cmd
    _Lcd_Cmd->_Lcd_Port

Critical Paths under _main in BANK0

    _main->_convert
    _setup->_I2C_Master_Init
    _convert->___flmul
    ___xxtofl->___wmul
    ___flsub->___xxtofl
    ___flmul->___fldiv
    ___fldiv->___xxtofl

Critical Paths under _main in BANK1

    _main->_convert

Critical Paths under _main in BANK3

    None.

Critical Paths under _main in BANK2

    None.

Call Graph Tables:

 ---------------------------------------------------------------------------------
 (Depth) Function   	        Calls       Base Space   Used Autos Params    Refs
 ---------------------------------------------------------------------------------
 (0) _main                                                 4     4      0   19790
                                             15 BANK1      4     4      0
                    _I2C_Master_Read
                   _I2C_Master_Start
                    _I2C_Master_Stop
                   _I2C_Master_Write
                          _Lcd_Clear
                           _Lcd_Init
                     _Lcd_Set_Cursor
                   _Lcd_Write_String
                            ___fldiv
                            ___flmul
                           ___xxtofl
                            _convert
                              _setup
 ---------------------------------------------------------------------------------
 (1) _setup                                                0     0      0     412
                    _I2C_Master_Init
 ---------------------------------------------------------------------------------
 (2) _I2C_Master_Init                                      8     4      4     412
                                              0 BANK0      8     4      4
                            ___lldiv
 ---------------------------------------------------------------------------------
 (3) ___lldiv                                             14     6      8     314
                                              0 COMMON    14     6      8
 ---------------------------------------------------------------------------------
 (1) _convert                                             23    17      6   11989
                                             70 BANK0      8     2      6
                                              0 BANK1     15    15      0
                            ___awdiv
                            ___fldiv
                             ___flge
                            ___flmul
                            ___flsub
                            ___fltol
                             ___wmul
                           ___xxtofl
 ---------------------------------------------------------------------------------
 (2) ___xxtofl                                            14    10      4     930
                                              4 BANK0     14    10      4
                            ___fltol (ARG)
                             ___wmul (ARG)
 ---------------------------------------------------------------------------------
 (2) ___wmul                                               6     2      4     852
                                             11 COMMON     2     2      0
                                              0 BANK0      4     0      4
                            ___fltol (ARG)
 ---------------------------------------------------------------------------------
 (2) ___fltol                                             11     7      4     761
                                              0 COMMON    11     7      4
 ---------------------------------------------------------------------------------
 (2) ___flsub                                              8     0      8    2637
                                             18 BANK0      8     0      8
                            ___fladd
                            ___fltol (ARG)
                             ___wmul (ARG)
                           ___xxtofl (ARG)
 ---------------------------------------------------------------------------------
 (3) ___fladd                                             20    12      8    2136
                                              0 COMMON    12     4      8
                                              0 BANK0      8     8      0
 ---------------------------------------------------------------------------------
 (2) ___flmul                                             26    18      8    2873
                                             44 BANK0     26    18      8
                          __Umul8_16
                            ___fldiv (ARG)
                            ___flsub (ARG)
                            ___fltol (ARG)
                           ___xxtofl (ARG)
 ---------------------------------------------------------------------------------
 (3) __Umul8_16                                            9     7      2     799
                                              0 COMMON     9     7      2
 ---------------------------------------------------------------------------------
 (2) ___flge                                              12     4      8     334
                                              0 COMMON    12     4      8
 ---------------------------------------------------------------------------------
 (2) ___fldiv                                             26    18      8    1729
                                             18 BANK0     26    18      8
                           ___xxtofl (ARG)
 ---------------------------------------------------------------------------------
 (2) ___awdiv                                              9     5      4     452
                                              0 COMMON     9     5      4
 ---------------------------------------------------------------------------------
 (1) _Lcd_Write_String                                     4     2      2     666
                                              3 COMMON     4     2      2
                     _Lcd_Write_Char
 ---------------------------------------------------------------------------------
 (2) _Lcd_Write_Char                                       2     2      0      44
                                              1 COMMON     2     2      0
                           _Lcd_Port
 ---------------------------------------------------------------------------------
 (1) _Lcd_Set_Cursor                                       4     3      1     710
                                              4 COMMON     4     3      1
                            _Lcd_Cmd
 ---------------------------------------------------------------------------------
 (1) _Lcd_Init                                             2     2      0      66
                                              4 COMMON     2     2      0
                            _Lcd_Cmd
                           _Lcd_Port
 ---------------------------------------------------------------------------------
 (1) _Lcd_Clear                                            0     0      0      44
                            _Lcd_Cmd
 ---------------------------------------------------------------------------------
 (2) _Lcd_Cmd                                              3     3      0      44
                                              1 COMMON     3     3      0
                           _Lcd_Port
 ---------------------------------------------------------------------------------
 (3) _Lcd_Port                                             1     1      0      22
                                              0 COMMON     1     1      0
 ---------------------------------------------------------------------------------
 (1) _I2C_Master_Write                                     2     0      2     174
                                              0 COMMON     2     0      2
                    _I2C_Master_Wait
 ---------------------------------------------------------------------------------
 (1) _I2C_Master_Stop                                      0     0      0       0
                    _I2C_Master_Wait
 ---------------------------------------------------------------------------------
 (1) _I2C_Master_Start                                     0     0      0       0
                    _I2C_Master_Wait
 ---------------------------------------------------------------------------------
 (1) _I2C_Master_Read                                      6     4      2     197
                                              0 COMMON     6     4      2
                    _I2C_Master_Wait
 ---------------------------------------------------------------------------------
 (2) _I2C_Master_Wait                                      0     0      0       0
 ---------------------------------------------------------------------------------
 Estimated maximum stack depth 3
 ---------------------------------------------------------------------------------

 Call Graph Graphs:

 _main (ROOT)
   _I2C_Master_Read
     _I2C_Master_Wait
   _I2C_Master_Start
     _I2C_Master_Wait
   _I2C_Master_Stop
     _I2C_Master_Wait
   _I2C_Master_Write
     _I2C_Master_Wait
   _Lcd_Clear
     _Lcd_Cmd
       _Lcd_Port
   _Lcd_Init
     _Lcd_Cmd
       _Lcd_Port
     _Lcd_Port
   _Lcd_Set_Cursor
     _Lcd_Cmd
       _Lcd_Port
   _Lcd_Write_String
     _Lcd_Write_Char
       _Lcd_Port
   ___fldiv
     ___xxtofl (ARG)
       ___fltol (ARG)
       ___wmul (ARG)
         ___fltol (ARG)
   ___flmul
     __Umul8_16
     ___fldiv (ARG)
       ___xxtofl (ARG)
         ___fltol (ARG)
         ___wmul (ARG)
           ___fltol (ARG)
     ___flsub (ARG)
       ___fladd
       ___fltol (ARG)
       ___wmul (ARG)
         ___fltol (ARG)
       ___xxtofl (ARG)
         ___fltol (ARG)
         ___wmul (ARG)
           ___fltol (ARG)
     ___fltol (ARG)
     ___xxtofl (ARG)
       ___fltol (ARG)
       ___wmul (ARG)
         ___fltol (ARG)
   ___xxtofl
     ___fltol (ARG)
     ___wmul (ARG)
       ___fltol (ARG)
   _convert
     ___awdiv
     ___fldiv
       ___xxtofl (ARG)
         ___fltol (ARG)
         ___wmul (ARG)
           ___fltol (ARG)
     ___flge
     ___flmul
       __Umul8_16
       ___fldiv (ARG)
         ___xxtofl (ARG)
           ___fltol (ARG)
           ___wmul (ARG)
             ___fltol (ARG)
       ___flsub (ARG)
         ___fladd
         ___fltol (ARG)
         ___wmul (ARG)
           ___fltol (ARG)
         ___xxtofl (ARG)
           ___fltol (ARG)
           ___wmul (ARG)
             ___fltol (ARG)
       ___fltol (ARG)
       ___xxtofl (ARG)
         ___fltol (ARG)
         ___wmul (ARG)
           ___fltol (ARG)
     ___flsub
       ___fladd
       ___fltol (ARG)
       ___wmul (ARG)
         ___fltol (ARG)
       ___xxtofl (ARG)
         ___fltol (ARG)
         ___wmul (ARG)
           ___fltol (ARG)
     ___fltol
     ___wmul
       ___fltol (ARG)
     ___xxtofl
       ___fltol (ARG)
       ___wmul (ARG)
         ___fltol (ARG)
   _setup
     _I2C_Master_Init
       ___lldiv

 Address spaces:
Name               Size   Autos  Total    Cost      Usage
BITCOMMON            E      0       0       0        0.0%
EEDATA             100      0       0       0        0.0%
NULL                 0      0       0       0        0.0%
CODE                 0      0       0       0        0.0%
COMMON               E      E       E       1      100.0%
BITSFR0              0      0       0       1        0.0%
SFR0                 0      0       0       1        0.0%
BITSFR1              0      0       0       2        0.0%
SFR1                 0      0       0       2        0.0%
STACK                0      0       0       2        0.0%
ABS                  0      0      9D       3        0.0%
BITBANK0            50      0       0       4        0.0%
BITSFR3              0      0       0       4        0.0%
SFR3                 0      0       0       4        0.0%
BANK0               50     4E      50       5      100.0%
BITSFR2              0      0       0       5        0.0%
SFR2                 0      0       0       5        0.0%
BITBANK1            50      0       0       6        0.0%
BANK1               50     13      3F       7       78.8%
BITBANK3            60      0       0       8        0.0%
BANK3               60      0       0       9        0.0%
BITBANK2            60      0       0      10        0.0%
BANK2               60      0       0      11        0.0%
DATA                 0      0      9D      12        0.0%


Microchip Technology PIC Macro Assembler V2.31 build 20201012212115 
Symbol Table                                                                                   Sun Aug 08 21:37:26 2021

             ___fldiv@aexp 004B               ___fldiv@bexp 004A                          pc 0002  
             ___fldiv@sign 0043                         l63 0B4B                         l69 15C1  
             ___awdiv@sign 0076                         fsr 0004        ___wmul@multiplicand 0022  
      __Umul8_16@word_mpld 0076                        l110 157D                        l104 16ED  
                      l113 155D                        l122 1570                        l107 1571  
                      l125 167D                        l133 154C                        l126 1680  
                      l127 1685                        l119 1566                        l151 159F  
                      l311 1798                        l136 001F                        l145 15E5  
                      l139 158A                        l148 1732                        l157 16B5  
                      l610 0FF1                        l602 0FCD                        l611 0FFF  
                      l275 163F                        l428 17FF                        l452 0889  
                      l453 08A2                        l461 0099                        l277 1657  
                      l189 07EE                        l614 1609                        l710 095E  
                      l471 0099                        l640 0AAD                        l624 09BB  
                      l449 081D                        l721 0928                        l626 0B3B  
                      l722 0934                        l714 090C                        l572 0E74  
                      l468 0084                        l708 08C7                        l581 0FFF  
                      l646 0B1F                        l670 0366                        l574 0E49  
                      l648 0B2F                        l664 03FA                        l568 0DCB  
                      l593 0F6B                        l683 161E                        l676 03EE  
                      l685 1630                        l589 0F45                        l599 0F8D  
                      _GIE 005F                        _adc 006F                        fsr0 0004  
                      indf 0000               ___flmul@aexp 005E               ___flmul@bexp 005F  
             ___flmul@sign 0059               ___flmul@temp 0064               ___flmul@prod 0060  
             ___fltol@exp1 007A                       l2001 16EB                       l2011 000A  
                     l2003 16EC                       l2005 1571                       l2013 0010  
                     l2021 158F                       l2101 089F                       l2007 1577  
                     l2015 0013                       l2023 1595                       l2103 08A1  
                     l2031 1633                       l2017 001C                       l2009 0007  
                     l2025 1598                       l2121 0054                       l2113 0034  
                     l2033 1639                       l2027 159C                       l2019 158C  
                     l2051 17A5                       l2043 1799                       l2211 0A14  
                     l2203 09EA                       l2123 0058                       l2131 0072  
                     l2115 0049                       l2107 0020                       l2035 1646  
                     l2061 17BA                       l2053 17A9                       l2045 179A  
                     l2221 0A32                       l2213 0A16                       l2205 09FC  
                     l2301 00B1                       l2141 008E                       l2117 004A  
                     l2109 002B                       l2037 164D                       l2029 1631  
                     l2071 17DD                       l2063 17BD                       l2055 17AE  
                     l2047 179E                       l2215 0A1B                       l2223 0A3B  
                     l2231 0A60                       l2207 0A04                       l2151 0966  
                     l2311 00CD                       l2303 00B6                       l2143 15E6  
                     l2119 0052                       l2039 1653                       l2081 17F6  
                     l2073 17E3                       l2065 17C4                       l2057 17B2  
                     l2049 17A3                       l2241 0A7D                       l2233 0A66  
                     l2225 0A4D                       l2217 0A2D                       l2209 0A0C  
                     l2161 097B                       l2153 096C                       l2401 0370  
                     l2321 00E2                       l2313 00D3                       l2305 00BE  
                     l2145 15EA                       l2137 0079                       l2129 0060  
                     l2083 17FB                       l2075 17E4                       l2067 17C8  
                     l2059 17B4                       l2251 0A92                       l2243 0A7E  
                     l2235 0A6E                       l2227 0A4E                       l2219 0A31  
                     l2171 0993                       l2163 0983                       l2155 0970  
                     l2091 0831                       l2411 03AE                       l2403 037E  
                     l2331 00FE                       l2323 00EA                       l2315 00D7  
                     l2307 00C0                       l2139 0089                       l2501 157E  
                     l2077 17EB                       l2069 17CC                       l2261 0AB7  
                     l2253 0A96                       l2245 0A87                       l2237 0A70  
                     l2229 0A5C                       l2181 09A8                       l2173 0999  
                     l2165 0984                       l2157 0971                       l2149 095F  
                     l2093 0839                       l2421 03E2                       l2413 03B9  
                     l2405 0382                       l2341 0141                       l2325 00EC  
                     l2317 00D8                       l2309 00C8                       l2511 15DA  
                     l2503 15C3                       l2079 17F1                       l2271 0AF5  
                     l2263 0AC5                       l2255 0AAA                       l2239 0A79  
                     l2247 0A8D                       l2191 09CF                       l2183 09B0  
                     l2175 099D                       l2159 0976                       l2167 0986  
                     l2095 083D                       l2087 0801                       l2423 03E6  
                     l2415 03C8                       l2407 039B                       l2351 01CA  
                     l2343 015D                       l2335 0107                       l2327 00F4  
                     l2319 00DD                       l2431 08A6                       l2513 15DF  
                     l2505 15C8                       l2521 16A1                       l2281 0B25  
                     l2273 0B03                       l2265 0AC9                       l2249 0A91  
                     l2193 09D3                       l2185 09B1                       l2177 099E  
                     l2169 098E                       l2097 0861                       l2089 0815  
                     l2425 03E7                       l2417 03D2                       l2409 03A1  
                     l2361 023D                       l2353 01DA                       l2345 0189  
                     l2337 0117                       l2329 00F9                       l1801 0D8D  
                     l2433 08AB                       l2601 05AE                       l2531 1658  
                     l2523 1555                       l2507 15CD                       l2515 1686  
                     l2283 0B29                       l2275 0B12                       l2267 0AE2  
                     l2259 0AB2                       l2179 09A3                       l2187 09B3  
                     l2099 0865                       l2427 03F2                       l2419 03D4  
                     l2371 02EA                       l2363 025A                       l2355 01F7  
                     l2347 01A5                       l2339 0124                       l2291 009A  
                     l1811 0DA3                       l1803 0D8F                       l2451 08F5  
                     l2443 08D8                       l2435 08AF                       l2611 05EC  
                     l2603 05BE                       l2541 1679                       l2533 165D  
                     l2525 155A                       l2509 15D4                       l2517 1689  
                     l2285 0B2B                       l2277 0B16                       l2269 0AE8  
                     l2189 09C3                       l2197 09DC                       l2381 0336  
                     l2373 0312                       l2365 0287                       l2357 0207  
                     l2349 01C1                       l2293 00A1                       l1901 0EB6  
                     l1821 0DB8                       l1813 0DA9                       l1805 0D97  
                     l2461 092C                       l2453 0903                       l2445 08DD  
                     l2437 08BF                       l2621 06AA                       l2613 05F2  
                     l2605 05C6                       l2543 1681                       l2535 1665  
                     l2527 1567                       l2519 169B                       l2279 0B1E  
                     l2199 09E1                       l2391 034B                       l2383 0337  
                     l2375 031B                       l2367 0297                       l2359 0224  
                     l2295 00A7                       l1911 0F1D                       l1903 0EB7  
                     l1831 0DD5                       l1823 0DC0                       l1815 0DAD  
                     l1807 0D9C                       l2471 0956                       l2463 0936  
                     l2455 0913                       l2447 08EA                       l2439 08CF  
                     l2631 06C8                       l2623 06AA                       l2615 060A  
                     l2607 05C6                       l2551 03FE                       l2537 166E  
                     l2529 156C                       l2393 034F                       l2385 0340  
                     l2377 0329                       l2369 02C4                       l2297 00AB  
                     l1921 0F52                       l1913 0F23                       l1905 0EC2  
                     l1841 0DE9                       l1833 0DD9                       l1825 0DC1  
                     l1817 0DAE                       l1809 0DA2                       l2465 094C  
                     l2457 091E                       l2449 08F1                       l2641 07A6  
                     l2633 06CD                       l2625 06B0                       l2617 0687  
                     l2609 05CB                       l2561 041B                       l2553 0413  
                     l1761 1733                       l2481 15AE                       l2539 1673  
                     l2547 155E                       l2491 16EE                       l2395 0363  
                     l2379 0332                       l2387 0346                       l2299 00AC  
                     l1931 0F6F                       l1915 0F28                       l1907 0EC7  
                     l1851 0DFD                       l1843 0DED                       l1835 0DDD  
                     l1819 0DB3                       l1827 0DC3                       l2467 0951  
                     l2459 0922                       l2651 07DE                       l2643 07C6  
                     l2635 06EE                       l2627 06BD                       l2619 069D  
                     l2571 046B                       l2563 041B                       l2555 0413  
                     l1771 1760                       l1763 1743                       l2483 15BB  
                     l2475 15A0                       l2549 1563                       l2493 16F4  
                     l2389 034A                       l1933 0F72                       l1925 0F5B  
                     l1909 0EDD                       l1917 0F37                       l1941 0F7F  
                     l1861 0E11                       l1853 0E01                       l1845 0DF1  
                     l1837 0DE1                       l1829 0DD1                       l2469 0955  
                     l2645 07CE                       l2637 06F4                       l2629 06C3  
                     l2581 0498                       l2573 047E                       l2565 0436  
                     l2557 0415                       l1773 1772                       l1765 1746  
                     l1781 1790                       l2485 15BE                       l2477 15A4  
                     l2661 0B7D                       l2653 0B3C                       l1759 1548  
                     l2495 16FD                       l2399 036B                       l1951 0F92  
                     l1943 0F80                       l1935 0F74                       l1927 0F66  
                     l1919 0F4D                       l1871 0E58                       l1855 0E05  
                     l1847 0DF5                       l1839 0DE5                       l1863 0E15  
                     l1791 0D79                       l2647 07D4                       l2639 070A  
                     l2591 0576                       l2583 049D                       l2567 0457  
                     l2575 0484                       l2559 0417                       l1775 1780  
                     l1767 1753                       l2487 15BF                       l2479 15A7  
                     l2671 0BD4                       l2663 0BA9                       l2655 0B53  
                     l2497 170B                       l1961 0FD2                       l1953 0F97  
                     l1945 0F84                       l1937 0F79                       l1929 0F6A  
                     l1873 0E5A                       l1881 0E6E                       l1865 0E16  
                     l1857 0E09                       l1849 0DF9                       l1793 0D7A  
                     l1785 0D68                       l2649 07D8                       l2593 0596  
                     l2585 04BE                       l2577 048D                       l2569 0462  
                     l1777 1781                       l1769 1757                       l2489 15C0  
                     l2681 0C1A                       l2673 0BD9                       l2665 0BB8  
                     l2657 0B5C                       l2499 1711                       l1971 0FE9  
                     l1963 0FD7                       l1955 0FA5                       l1947 0F8A  
                     l1939 0F7B                       l1891 0E9D                       l1883 0E78  
                     l1875 0E5E                       l1867 0E2D                       l1859 0E0D  
                     l1795 0D7F                       l1787 0D6F                       l2595 059E  
                     l2587 04C4                       l2579 0493                       l1779 178A  
                     l2691 0CB7                       l2683 0C31                       l2675 0BF0  
                     l2667 0BBD                       l2659 0B71                       l1981 160D  
                     l1973 0FEB                       l1965 0FDF                       l1957 0FA9  
                     l1893 0EA1                       l1885 0E7D                       l1877 0E5F  
                     l1869 0E4D                       l1797 0D84                       l1789 0D75  
                     l2597 05A4                       l2589 04DA                       l2693 0CD7  
                     l2685 0C3A                       l2677 0BF9                       l2669 0BC6  
                     l1983 1614                       l1975 0FFA                       l1967 0FE4  
                     l1959 0FC9                       l1895 0EA5                       l1879 0E6A  
                     l1799 0D8C                       l2599 05A8                       l2695 0D36  
                     l2687 0C44                       l2679 0C0E                       l1985 1618  
                     l1977 0FFE                       l1969 0FE5                       l1897 0EB0  
                     l1889 0E86                       l1993 16B6                       l2697 0D56  
                     l2689 0C4C                       l1987 1627                       l1979 160B  
                     l1899 0EB2                       l1995 16BA                       l1989 162C  
                     l1997 16BD                       l1999 16EA                       STR_1 1010  
                     STR_2 1014                       STR_3 1018                       STR_4 101C  
                     STR_5 1012                       u2000 0E2D                       u2001 0E2C  
                     u2010 0E36                       u2011 0E34                       u2100 0EA1  
                     u2020 0E37                       u2101 0EA0                       u2005 0E29  
                     u2110 0EA5                       u2030 0E4D                       u2111 0EA4  
                     u2031 0E4C                       u3000 0AF5                       u2120 0EB6  
                     u2040 0E5E                       u3001 0AF4                       u2121 0EB5  
                     u2041 0E5D                       u3010 0B12                       u2210 0F6A  
                     u3011 0B11                       u2211 0F69                       u3020 0B29  
                     u3100 00FE                       u2300 0FBA                       u2220 0F6F  
                     u2140 0EDD                       u2060 0E74                       u3021 0B28  
                     u3005 0AF1                       u3101 00FD                       u2221 0F6E  
                     u2205 0F5F                       u2141 0EDC                       u2061 0E73  
                     u3030 00AB                       u2310 0FC9                       u2230 0F79  
                     u2070 0E78                       u3015 0B0E                       u3111 014F  
                     u3031 00AA                       u2311 0FC8                       u2231 0F78  
                     u2151 0EF6                       u2143 0ED9                       u2135 0EBB  
                     u2071 0E77                       u2055 0E63                       u3112 0156  
                     u3040 00B1                       u2320 0FD2                       u2240 0F7F  
                     u2160 0F0A                       u2152 0EF7                       u2080 0E7D  
                     u2400 16CD                       u3201 0279                       u3121 016B  
                     u3113 015D                       u3041 00B0                       u2321 0FD1  
                     u2305 0FB5                       u2241 0F7E                       u2161 0F0B  
                     u2153 0EFC                       u2081 0E7C                       u2410 1577  
                     u3202 0280                       u3122 0172                       u3050 00B6  
                     u2330 0FD7                       u2250 0F84                       u2170 0F28  
                     u2162 0F10                       u2154 0EFD                       u2411 1576  
                     u3211 02A6                       u3203 0287                       u3131 0197  
                     u3123 0179                       u3051 00B5                       u2331 0FD6  
                     u2251 0F83                       u2171 0F27                       u2163 0F11  
                     u2155 0F02                       u2091 0E8F                       u2420 157D  
                     u3300 034A                       u3220 02D0                       u3212 02AD  
                     u3132 019E                       u3060 00D7                       u2340 0FE4  
                     u2260 0F8A                       u2180 0F4D                       u2156 0F03  
                     u2092 0E96                       u2421 157C                       u3301 0349  
                     u3213 02B4                       u3141 01B3                       u3133 01A5  
                     u3061 00D6                       u2341 0FE3                       u2261 0F89  
                     u2181 0F4C                       u2093 0E9D                       u2405 16C8  
                     u2510 17CC                       u3310 034F                       u3142 01BA  
                     u3070 00DD                       u2350 0FE9                       u2270 0F91  
                     u2190 0F52                       u2430 1639                       u2511 17CB  
                     u3311 034E                       u3231 02DC                       u3143 01C1  
                     u3071 00DC                       u2351 0FE8                       u2271 0F90  
                     u2191 0F51                       u2431 1638                       u3320 0363  
                     u3240 02F8                       u3232 02E3                       u3080 00E2  
                     u2360 0FFE                       u2280 0F97                       u3400 08AB  
                     u2505 17BE                       u2601 084C                       u3321 0362  
                     u3233 02EA                       u3225 02CB                       u3161 01E9  
                     u3081 00E1                       u2361 0FFD                       u2281 0F96  
                     u3401 08AA                       u2530 17DD                       u2610 0865  
                     u2602 084D                       u2370 1618                       u3330 036A  
                     u3162 01F0                       u3090 00F9                       u2290 0FA9  
                     u3410 08AF                       u2531 17DC                       u2611 0864  
                     u2603 0852                       u2371 1617                       u3331 0369  
                     u3251 0304                       u3171 0216                       u3163 01F7  
                     u3155 01C3                       u3091 00F8                       u2291 0FA8  
                     u3411 08AE                       u2604 0853                       u3340 0370  
                     u3252 030B                       u3172 021D                       u2700 0078  
                     u2460 1653                       u3500 092C                       u3420 08CF  
                     u1900 1790                       u2525 17CD                       u2621 0874  
                     u2605 0858                       u3341 036F                       u3253 0312  
                     u3245 02F3                       u3173 0224                       u2701 0077  
                     u2461 1652                       u2445 1640                       u3501 092B  
                     u3421 08CE                       u1901 178F                       u2550 17F1  
                     u2470 179E                       u2630 089F                       u2622 0875  
                     u2606 0859                       u2390 162C                       u3350 0382  
                     u1910 0D79                       u3510 0941                       u2551 17F0  
                     u2535 17D9                       u2471 179D                       u2631 089E  
                     u2623 087A                       u2391 162B                       u3351 0381  
                     u3191 024C                       u1911 0D78                       u2455 1647  
                     u2560 17F6                       u2480 17A9                       u2800 09C3  
                     u2624 087B                       u3360 0391                       u3280 0336  
                     u3192 0253                       u1920 0D7F                       u2720 0089  
                     u2640 002B                       u3520 0951                       u3440 08F0  
                     u3600 0493                       u1840 1743                       u2561 17F5  
                     u2545 17E5                       u2481 17A8                       u2801 09C2  
                     u2625 0880                       u2385 161F                       u3281 0335  
                     u3265 0314                       u3193 025A                       u3185 0226  
                     u1921 0D7E                       u2721 0088                       u2641 002A  
                     u3521 0950                       u3441 08EF                       u3601 0492  
                     u1841 1742                       u2490 17BA                       u2810 09E1  
                     u2626 0881                       u2570 0815                       u3370 03AE  
                     u1930 0D84                       u2730 008E                       u2650 0042  
                     u3530 0955                       u3610 04DA                       u2491 17B9  
                     u2811 09E0                       u2635 089B                       u2571 0814  
                     u3371 03AD                       u3275 032B                       u1931 0D83  
                     u2731 008D                       u2715 007B                       u3531 0954  
                     u3515 093C                       u3435 08E2                       u3611 04D9  
                     u3540 15C8                       u2820 0A1B                       u2740 0970  
                     u2580 0831                       u3380 03C8                       u1940 0DA2  
                     u2660 0058                       u3460 0912                       u3620 05AE  
                     u1860 1757                       u3541 15C7                       u2821 0A1A  
                     u2741 096F                       u2581 0830                       u3381 03C7  
                     u3365 038C                       u1941 0DA1                       u2661 0057  
                     u3461 0911                       u3621 05AD                       u1861 1756  
                     u3550 15DA                       u2910 0A7D                       u2750 0976  
                     u2590 083D                       u3390 03E6                       u1950 0DAD  
                     u2670 005F                       u3630 060A                       u3551 15D9  
                     u2911 0A7C                       u2751 0975                       u2591 083C  
                     u3391 03E5                       u3375 03AA                       u3295 0339  
                     u1951 0DAC                       u2671 005E                       u2655 003D  
                     u3455 0904                       u3631 0609                       u3615 04D6  
                     u1855 1748                       u3560 16B5                       u2760 097B  
                     u1960 0DB3                       u3480 0922                       u3640 06C3  
                     u1880 1772                       u3561 16B4                       u2905 0A72  
                     u2761 097A                       u3385 03C4                       u1961 0DB2  
                     u3481 0921                       u3641 06C2                       u1881 1771  
                     u3570 1679                       u2930 0A91                       u2850 0A31  
                     u2770 099D                       u1970 0DB8                       u2690 0071  
                     u3490 0928                       u3650 070A                       u3571 1678  
                     u3707 159A                       u2931 0A90                       u2851 0A30  
                     u2835 0A1D                       u2771 099C                       u1971 0DB7  
                     u2691 0070                       u3491 0927                       u3475 0917  
                     u3651 0709                       u3635 0606                       u1875 1759  
                     _PEIE 005E                       u2940 0A96                       u2780 09A3  
                     u1980 0DD1                       u3660 07DE                       u3580 0436  
                     u3717 16F8                       u2941 0A95                       u2925 0A80  
                     u2845 0A26                       u2781 09A2                       u1981 0DD0  
                     u2685 0061                       u3661 07DD                       u3581 0435  
                     u1885 176E                       u2950 0AAA                       u2870 0A4D  
                     u2790 09A8                       u1990 0DD5                       u3590 048C  
                     u3727 1707                       u2951 0AA9                       u2871 0A4C  
                     u2791 09A7                       u1991 0DD4                       u3655 0706  
                     u3591 048B                       u1895 1782                       u2960 0AB1  
                     u2880 0A66                       u3737 1715                       u2961 0AB0  
                     u2881 0A65                       u2865 0A34                       u2970 0AB7  
                     u2890 0A6E                       u3747 0017                       u2971 0AB6  
                     u2891 0A6D                       u2875 0A49                       u2980 0AC9  
                     u2981 0AC8                       u3677 0BB1                       u2990 0AD8  
                     u3687 0BE1                       u3697 0D5E                       u2995 0AD3  
                     _lcd1 00C2                       _lcd2 00B8                       _lcd3 00A0  
        ?_Lcd_Write_String 0073                       _main 0B3C                       btemp 007E  
                     start 0000         ??_Lcd_Write_String 0075            ___fldiv@new_exp 0044  
          __end_of_Lcd_Cmd 0020           ?_I2C_Master_Init 0020           ?_I2C_Master_Read 0070  
         ?_I2C_Master_Wait 0070           ?_I2C_Master_Stop 0070              ___fltol@sign1 0079  
          __end_of___fladd 1000                      ?_main 0070            __end_of___fldiv 0B3C  
          __end_of___awdiv 1800            __end_of___flmul 03FB            __end_of___flsub 160A  
          __end_of___fltol 009A                      _ANSEL 0188            __end_of___lldiv 1799  
          ___awdiv@divisor 0070            ___awdiv@counter 0075                      _PORTB 0006  
                    _PORTD 0008    __size_of_Lcd_Set_Cursor 0024                      _TRISB 0086  
                    _TRISD 0088                      _SSPIE 0463                      _SSPIF 0063  
              convert@data 00D0                convert@temp 00CC            __end_of_convert 07EF  
                    _conv1 00B2                      _conv2 00AE                      _conv3 00AA  
                    _setup 15A0                      pclath 000A                      status 0003  
                    wtemp0 007E           __end_of_Lcd_Init 1733           __end_of_Lcd_Port 154D  
          __initialization 07EF               __end_of_main 0D68                     ??_main 00DB  
       __size_of_Lcd_Clear 000D          ?_I2C_Master_Start 0070          ?_I2C_Master_Write 0070  
       ??_I2C_Master_Start 0070         ??_I2C_Master_Write 0072           ___awdiv@dividend 0072  
                   ?_setup 0070                     _ANSELH 0189                  ??_Lcd_Cmd 0071  
  __size_of_Lcd_Write_Char 0015                     _SSPADD 0093                     _TRISC3 043B  
                   _TRISC4 043C                     _SSPCON 0014                     _SSPBUF 0013  
         __end_of___xxtofl 095F                     ___flge 0801               convert@place 006A  
                ??___fladd 0020                     ___wmul 1631                  ??___fldiv 003A  
                ??___awdiv 0074                  ??___flmul 0054                  ??___flsub 007D  
                ??___fltol 0074                  ??___lldiv 0078           ___awdiv@quotient 0077  
                   _sensor 00B6                  ??_convert 006C         __size_of__Umul8_16 0027  
          Lcd_Set_Cursor@a 0076            Lcd_Set_Cursor@b 0074                 ___flge@ff1 0070  
               ___flge@ff2 0074               ___xxtofl@arg 002E               ___xxtofl@exp 002D  
             ___xxtofl@val 0024    __end_of__initialization 07FC          __end_of_Lcd_Clear 158B  
               ___fltol@f1 0070             __pcstackCOMMON 0070              __end_of_setup 15C2  
           _Lcd_Set_Cursor 15C2                  ?_Lcd_Init 0070                  ?_Lcd_Port 0070  
                  ??_setup 007E                 __pbssBANK0 006E                 __pbssBANK1 00A0  
        __end_of__Umul8_16 1631                 __pmaintext 0B3C                    ?___flge 0070  
                  ?___wmul 0020  __size_of_Lcd_Write_String 0030     __end_of_Lcd_Set_Cursor 15E6  
                ?___xxtofl 0024                 ??_Lcd_Init 0074                 ??_Lcd_Port 0070  
                  _SSPCON2 0091                    _SSPSTAT 0094                 __stringtab 1000  
           _Lcd_Write_Char 158B                    _Lcd_Cmd 0006              convert@digits 00D7  
          __size_of___flge 00A2                    ___fladd 0D68                    ___fldiv 095F  
                  ___awdiv 1799                    ___flmul 009A                    ___flsub 15E6  
                  ___fltol 0020                    ___lldiv 1733            __size_of___wmul 0027  
          ?_Lcd_Set_Cursor 0074                    __ptext1 15A0                    __ptext2 16B6  
                  __ptext3 1733                    __ptext4 03FB                    __ptext5 08A3  
                  __ptext6 1631                    __ptext7 0020                    __ptext8 15E6  
                  __ptext9 0D68                    _convert 03FB                 ??___xxtofl 0028  
 __size_of_I2C_Master_Init 0038   __size_of_I2C_Master_Read 002E   __size_of_I2C_Master_Wait 000D  
 __size_of_I2C_Master_Stop 0009                    clrloop0 154E     __end_of_Lcd_Write_Char 15A0  
     end_of_initialization 07FC  __size_of_I2C_Master_Start 0009  __size_of_I2C_Master_Write 000A  
          ___lldiv@divisor 0070            ___lldiv@counter 007D           I2C_Master_Init@c 0020  
         I2C_Master_Read@a 0070                  Lcd_Port@a 0070                  _PORTCbits 0007  
              ___fladd@grs 007B              ___xxtofl@sign 002C                  _TRISCbits 0087  
              ___fldiv@grs 0046                ___fldiv@rem 003F            ?_Lcd_Write_Char 0070  
        Lcd_Write_String@a 0073          Lcd_Write_String@i 0075                ___flmul@grs 005A  
                _Lcd_Clear 157E             __end_of___flge 08A3             __end_of___wmul 1658  
         _Lcd_Write_String 1686        start_initialization 07EF          __size_of_Lcd_Init 0045  
        __size_of_Lcd_Port 0006          ??_I2C_Master_Init 0024          ??_I2C_Master_Read 0072  
        ??_I2C_Master_Wait 0070          ??_I2C_Master_Stop 0070                 ?_Lcd_Clear 0070  
                 ??___flge 0078                   ??___wmul 007B                  __Umul8_16 160A  
          Lcd_Write_Char@a 0072                  ___fladd@a 0074                  ___fladd@b 0070  
                ___fldiv@a 0032                  ___fldiv@b 0036                  ___flmul@a 0050  
                ___flmul@b 004C                  ___flsub@a 0032                  ___flsub@b 0036  
                ___latbits 0002              __pcstackBANK0 0020              __pcstackBANK1 00CC  
        __size_of___xxtofl 00BC                   ?_Lcd_Cmd 0070           _I2C_Master_Start 1555  
         _I2C_Master_Write 1567           ??_Lcd_Set_Cursor 0075                   ?___fladd 0070  
                 ?___fldiv 0032                   ?___awdiv 0070                   ?___flmul 004C  
                 ?___flsub 0032                   ?___fltol 0070                   ?___lldiv 0070  
               ?__Umul8_16 0070                  __pstrings 1000                   ?_convert 0066  
           __size_of_setup 0022             ___wmul@product 007B                  clear_ram0 154D  
                 Lcd_Cmd@a 0073                ??_Lcd_Clear 0074                __stringbase 100F  
        ___wmul@multiplier 0020           ??_Lcd_Write_Char 0071                   _Lcd_Init 16EE  
                 _Lcd_Port 1547        I2C_Master_Read@temp 0074                  convert@mu 00D9  
 __end_of_Lcd_Write_String 16B6           __size_of_Lcd_Cmd 001A                ??__Umul8_16 0072  
         __size_of___fladd 0298           __size_of___fldiv 01DD           __size_of___awdiv 0067  
         __size_of___flmul 0361           __size_of___flsub 0024           __size_of___fltol 007A  
         __size_of___lldiv 0066         __end_of__stringtab 1010           __size_of_convert 03F4  
          _I2C_Master_Init 16B6            _I2C_Master_Read 1658                   ___xxtofl 08A3  
          _I2C_Master_Wait 1571            _I2C_Master_Stop 155E                   __ptext10 009A  
                 __ptext11 160A                   __ptext20 0006                   __ptext12 0801  
                 __ptext21 1547                   __ptext13 095F                   __ptext22 1567  
                 __ptext14 1799                   __ptext23 155E                   __ptext15 1686  
                 __ptext24 1555                   __ptext16 158B                   __ptext25 1658  
                 __ptext17 15C2                   __ptext26 1571                   __ptext18 16EE  
                 __ptext19 157E                   _contador 006E              __size_of_main 022C  
                 convert@a 0066                   convert@i 00D5                   convert@j 00CE  
                 convert@x 00D1   __end_of_I2C_Master_Start 155E   __end_of_I2C_Master_Write 1571  
         ___lldiv@dividend 0074                  stringcode 100A                 _OSCCONbits 008F  
  __end_of_I2C_Master_Init 16EE    __end_of_I2C_Master_Read 1686    __end_of_I2C_Master_Wait 157E  
  __end_of_I2C_Master_Stop 1567         Lcd_Set_Cursor@temp 0077     __Umul8_16@multiplicand 0070  
         ___lldiv@quotient 0079          I2C_Master_Write@d 0070                   stringdir 100A  
                 stringtab 1000                _SSPCON2bits 0091              ___fladd@signs 0078  
             ___fladd@aexp 0079               ___fladd@bexp 007A       __Umul8_16@multiplier 0078  
        __Umul8_16@product 0074  
